

Microchip MPLAB XC8 Assembler V2.10 build 88905656 
                                                                                               Mon Dec 30 20:26:16 2019

Microchip MPLAB XC8 C Compiler v2.10 (Free license) build 20190730164152 Og1 
     1                           	processor	18F4520
     2                           	fnconf	rparam,??,?,0
     3                           	opt	pw 120
     4                           	opt	flic
     5                           	psect	idataCOMRAM,global,class=CODE,delta=1,noexec
     6                           	psect	smallconst,global,reloc=2,class=SMALLCONST,delta=1,noexec
     7                           	psect	cinit,global,reloc=2,class=CODE,delta=1
     8                           	psect	bssCOMRAM,global,class=COMRAM,space=1,delta=1,noexec
     9                           	psect	dataCOMRAM,global,class=COMRAM,space=1,delta=1,noexec
    10                           	psect	bssBANK0,global,class=BANK0,space=1,delta=1,lowdata,noexec
    11                           	psect	bssBANK1,global,class=BANK1,space=1,delta=1,lowdata,noexec
    12                           	psect	cstackBANK1,global,class=BANK1,space=1,delta=1,noexec
    13                           	psect	cstackBANK0,global,class=BANK0,space=1,delta=1,noexec
    14                           	psect	cstackCOMRAM,global,class=COMRAM,space=1,delta=1,noexec
    15                           	psect	text0,global,reloc=2,class=CODE,delta=1
    16                           	psect	text1,global,reloc=2,class=CODE,delta=1
    17                           	psect	text2,global,reloc=2,class=CODE,delta=1
    18                           	psect	text3,global,reloc=2,class=CODE,delta=1
    19                           	psect	text4,global,reloc=2,class=CODE,delta=1
    20                           	psect	text5,global,reloc=2,class=CODE,delta=1
    21                           	psect	text6,global,reloc=2,class=CODE,delta=1
    22                           	psect	text7,global,reloc=2,class=CODE,delta=1
    23                           	psect	text8,global,reloc=2,class=CODE,delta=1
    24                           	psect	text9,global,reloc=2,class=CODE,delta=1
    25                           	psect	text10,global,reloc=2,class=CODE,delta=1
    26                           	psect	text11,global,reloc=2,class=CODE,delta=1
    27                           	psect	text12,global,reloc=2,class=CODE,delta=1
    28                           	psect	text13,global,reloc=2,class=CODE,delta=1
    29                           	psect	text14,global,reloc=2,class=CODE,delta=1
    30                           	psect	text15,global,reloc=2,class=CODE,delta=1
    31                           	psect	text16,global,reloc=2,class=CODE,delta=1
    32                           	psect	text17,global,reloc=2,class=CODE,delta=1
    33                           	psect	text18,global,reloc=2,class=CODE,delta=1
    34                           	psect	text19,global,reloc=2,class=CODE,delta=1
    35                           	psect	text20,global,reloc=2,class=CODE,delta=1,group=2
    36                           	psect	text21,global,reloc=2,class=CODE,delta=1,group=1
    37                           	psect	text22,global,reloc=2,class=CODE,delta=1
    38                           	psect	text23,global,reloc=2,class=CODE,delta=1,group=1
    39                           	psect	text24,global,reloc=2,class=CODE,delta=1,group=1
    40                           	psect	text25,global,reloc=2,class=CODE,delta=1
    41                           	psect	text26,global,reloc=2,class=CODE,delta=1
    42                           	psect	text27,global,reloc=2,class=CODE,delta=1
    43                           	psect	intcode,global,reloc=2,class=CODE,delta=1
    44                           	psect	intcode_body,global,reloc=2,class=CODE,delta=1
    45                           	psect	text29,global,reloc=2,class=CODE,delta=1,group=2
    46                           	psect	text30,global,reloc=2,class=CODE,delta=1,group=2
    47                           	psect	text31,global,reloc=2,class=CODE,delta=1
    48                           	psect	text32,global,reloc=2,class=CODE,delta=1
    49                           	psect	text33,global,reloc=2,class=CODE,delta=1
    50                           	psect	text34,global,reloc=2,class=CODE,delta=1,group=2
    51                           	psect	text35,global,reloc=2,class=CODE,delta=1,group=2
    52                           	psect	text36,global,reloc=2,class=CODE,delta=1,group=2
    53                           	psect	text37,global,reloc=2,class=CODE,delta=1
    54                           	psect	text38,global,reloc=2,class=CODE,delta=1
    55                           	psect	text39,global,reloc=2,class=CODE,delta=1
    56                           	psect	text40,global,reloc=2,class=CODE,delta=1
    57                           	psect	text41,global,reloc=2,class=CODE,delta=1
    58                           	psect	intsave_regs,global,class=BIGRAM,space=1,delta=1,noexec
    59                           	psect	rparam,global,class=COMRAM,space=1,delta=1,noexec
    60                           	psect	temp,global,ovrld,common,class=COMRAM,space=1,delta=1
    61  0000                     
    62                           ; Version 2.10
    63                           ; Generated 31/07/2019 GMT
    64                           ; 
    65                           ; Copyright © 2019, Microchip Technology Inc. and its subsidiaries ("Microchip")
    66                           ; All rights reserved.
    67                           ; 
    68                           ; This software is developed by Microchip Technology Inc. and its subsidiaries ("Microch
      +                          ip").
    69                           ; 
    70                           ; Redistribution and use in source and binary forms, with or without modification, are
    71                           ; permitted provided that the following conditions are met:
    72                           ; 
    73                           ;     1. Redistributions of source code must retain the above copyright notice, this lis
      +                          t of
    74                           ;        conditions and the following disclaimer.
    75                           ; 
    76                           ;     2. Redistributions in binary form must reproduce the above copyright notice, this 
      +                          list
    77                           ;        of conditions and the following disclaimer in the documentation and/or other
    78                           ;        materials provided with the distribution.
    79                           ; 
    80                           ;     3. Microchip's name may not be used to endorse or promote products derived from th
      +                          is
    81                           ;        software without specific prior written permission.
    82                           ; 
    83                           ; THIS SOFTWARE IS PROVIDED BY MICROCHIP "AS IS" AND ANY EXPRESS OR IMPLIED WARRANTIES,
    84                           ; INCLUDING, BUT NOT LIMITED TO, THE IMPLIED WARRANTIES OF MERCHANTABILITY AND FITNESS F
      +                          OR
    85                           ; PURPOSE ARE DISCLAIMED.  IN NO EVENT SHALL MICROCHIP BE LIABLE FOR ANY DIRECT, INDIREC
      +                          T,
    86                           ; INCIDENTAL, SPECIAL, EXEMPLARY, OR CONSEQUENTIAL DAMAGES (INCLUDING BUT NOT LIMITED TO
    87                           ; PROCUREMENT OF SUBSTITUTE GOODS OR SERVICES; LOSS OF USE, DATA OR PROFITS; OR BUSINESS
    88                           ; INTERRUPTION) HOWSOEVER CAUSED AND ON ANY THEORY OF LIABILITY, WHETHER IN CONTRACT, ST
      +                          RICT
    89                           ; LIABILITY, OR TORT (INCLUDING NEGLIGENCE OR OTHERWISE) ARISING IN ANY WAY OUT OF THE U
      +                          SE OF
    90                           ; THIS SOFTWARE, EVEN IF ADVISED OF THE POSSIBILITY OF SUCH DAMAGE.
    91                           ; 
    92                           ; 
    93                           ; Code-generator required, PIC18F4520 Definitions
    94                           ; 
    95                           ; SFR Addresses
    96  0000                     
    97                           	psect	idataCOMRAM
    98  004266                     __pidataCOMRAM:
    99                           	opt callstack 0
   100                           
   101                           ;initializer for stoa@F1131
   102  004266  28                 	db	40
   103  004267  6E                 	db	110
   104  004268  75                 	db	117
   105  004269  6C                 	db	108
   106  00426A  6C                 	db	108
   107  00426B  29                 	db	41
   108  00426C  00                 	db	0
   109  0000                     _RCREG	set	4014
   110  0000                     _TXREG	set	4013
   111  0000                     _SPBRG	set	4015
   112  0000                     _BAUDCONbits	set	4024
   113  0000                     _TXSTAbits	set	4012
   114  0000                     _TRISCbits	set	3988
   115  0000                     _LATCbits	set	3979
   116  0000                     _LATBbits	set	3978
   117  0000                     _PORTAbits	set	3968
   118  0000                     _PR2	set	4043
   119  0000                     _INTCONbits	set	4082
   120  0000                     _RCONbits	set	4048
   121  0000                     _IPR1bits	set	3999
   122  0000                     _PIE1bits	set	3997
   123  0000                     _T2CONbits	set	4042
   124  0000                     _LATDbits	set	3980
   125  0000                     _OSCCONbits	set	4051
   126  0000                     _PORTA	set	3968
   127  0000                     _LATA	set	3977
   128  0000                     _TRISAbits	set	3986
   129  0000                     _LATC	set	3979
   130  0000                     _LATB	set	3978
   131  0000                     _TRISC	set	3988
   132  0000                     _TRISB	set	3987
   133  0000                     _LATD	set	3980
   134  0000                     _TRISD	set	3989
   135  0000                     _ADCON0bits	set	4034
   136  0000                     _ADRESL	set	4035
   137  0000                     _ADRESH	set	4036
   138  0000                     _ADCON2bits	set	4032
   139  0000                     _ADCON2	set	4032
   140  0000                     _ADCON1	set	4033
   141  0000                     _TRISA	set	3986
   142  0000                     _RCSTAbits	set	4011
   143  0000                     _LATAbits	set	3977
   144  0000                     _PIR1bits	set	3998
   145  0000                     _ADFM	set	32263
   146  0000                     _CREN	set	32092
   147  0000                     _RCIF	set	31989
   148                           
   149                           	psect	smallconst
   150  000600                     __psmallconst:
   151                           	opt callstack 0
   152  000600  00                 	db	0
   153  000601                     STR_1:
   154                           
   155                           ; BSR set to: 0
   156  000601  43                 	db	67	;'C'
   157  000602  6C                 	db	108	;'l'
   158  000603  65                 	db	101	;'e'
   159  000604  61                 	db	97	;'a'
   160  000605  72                 	db	114	;'r'
   161  000606  09                 	db	9
   162  000607  00                 	db	0
   163  000608                     STR_8:
   164                           
   165                           ; BSR set to: 0
   166  000608  25                 	db	37
   167  000609  73                 	db	115	;'s'
   168  00060A  20                 	db	32
   169  00060B  30                 	db	48	;'0'
   170  00060C  00                 	db	0
   171  00060D                     STR_7:
   172                           
   173                           ; BSR set to: 0
   174  00060D  25                 	db	37
   175  00060E  73                 	db	115	;'s'
   176  00060F  20                 	db	32
   177  000610  31                 	db	49	;'1'
   178  000611  00                 	db	0
   179  000612                     STR_6:
   180                           
   181                           ; BSR set to: 0
   182  000612  25                 	db	37
   183  000613  73                 	db	115	;'s'
   184  000614  20                 	db	32
   185  000615  32                 	db	50	;'2'
   186  000616  00                 	db	0
   187  000617                     STR_5:
   188                           
   189                           ; BSR set to: 0
   190  000617  25                 	db	37
   191  000618  73                 	db	115	;'s'
   192  000619  20                 	db	32
   193  00061A  33                 	db	51	;'3'
   194  00061B  00                 	db	0
   195  00061C                     STR_4:
   196                           
   197                           ; BSR set to: 0
   198  00061C  25                 	db	37
   199  00061D  73                 	db	115	;'s'
   200  00061E  20                 	db	32
   201  00061F  34                 	db	52	;'4'
   202  000620  00                 	db	0
   203  000621                     STR_3:
   204                           
   205                           ; BSR set to: 0
   206  000621  25                 	db	37
   207  000622  73                 	db	115	;'s'
   208  000623  20                 	db	32
   209  000624  35                 	db	53	;'5'
   210  000625  00                 	db	0
   211  000626                     STR_2:
   212                           
   213                           ; BSR set to: 0
   214  000626  6F                 	db	111	;'o'
   215  000627  73                 	db	115	;'s'
   216  000628  00                 	db	0
   217                           
   218                           ; #config settings
   219  000629  00                 	db	0	; dummy byte at the end
   220  0000                     
   221                           	psect	cinit
   222  0040C6                     __pcinit:
   223                           	opt callstack 0
   224  0040C6                     start_initialization:
   225                           	opt callstack 0
   226  0040C6                     __initialization:
   227                           	opt callstack 0
   228                           
   229                           ; Initialize objects allocated to COMRAM (7 bytes)
   230                           ; load TBLPTR registers with __pidataCOMRAM
   231  0040C6  0E66               	movlw	low __pidataCOMRAM
   232  0040C8  6EF6               	movwf	tblptrl,c
   233  0040CA  0E42               	movlw	high __pidataCOMRAM
   234  0040CC  6EF7               	movwf	tblptrh,c
   235  0040CE  0E00               	movlw	low (__pidataCOMRAM shr (0+16))
   236  0040D0  6EF8               	movwf	tblptru,c
   237  0040D2  EE00  F067         	lfsr	0,__pdataCOMRAM
   238  0040D6  EE10 F007          	lfsr	1,7
   239  0040DA                     copy_data0:
   240  0040DA  0009               	tblrd		*+
   241  0040DC  CFF5 FFEE          	movff	tablat,postinc0
   242  0040E0  50E5               	movf	postdec1,w,c
   243  0040E2  50E1               	movf	fsr1l,w,c
   244  0040E4  E1FA               	bnz	copy_data0
   245                           
   246                           ; Clear objects allocated to BANK1 (82 bytes)
   247  0040E6  EE01  F000         	lfsr	0,__pbssBANK1
   248  0040EA  0E52               	movlw	82
   249  0040EC                     clear_0:
   250  0040EC  6AEE               	clrf	postinc0,c
   251  0040EE  06E8               	decf	wreg,f,c
   252  0040F0  E1FD               	bnz	clear_0
   253                           
   254                           ; Clear objects allocated to BANK0 (48 bytes)
   255  0040F2  EE00  F0B9         	lfsr	0,__pbssBANK0
   256  0040F6  0E30               	movlw	48
   257  0040F8                     clear_1:
   258  0040F8  6AEE               	clrf	postinc0,c
   259  0040FA  06E8               	decf	wreg,f,c
   260  0040FC  E1FD               	bnz	clear_1
   261                           
   262                           ; Clear objects allocated to COMRAM (28 bytes)
   263  0040FE  EE00  F04B         	lfsr	0,__pbssCOMRAM
   264  004102  0E1C               	movlw	28
   265  004104                     clear_2:
   266  004104  6AEE               	clrf	postinc0,c
   267  004106  06E8               	decf	wreg,f,c
   268  004108  E1FD               	bnz	clear_2
   269  00410A                     end_of_initialization:
   270                           	opt callstack 0
   271  00410A                     __end_of__initialization:
   272                           	opt callstack 0
   273  00410A  906E               	bcf	int$flags,0,c	;clear compiler interrupt flag (level 1)
   274  00410C  926E               	bcf	int$flags,1,c	;clear compiler interrupt flag (level 2)
   275  00410E  0E00               	movlw	low (__Lmediumconst shr (0+16))
   276  004110  6EF8               	movwf	tblptru,c
   277  004112  0100               	movlb	0
   278  004114  EFF8  F007         	goto	_main	;jump to C main() function
   279                           
   280                           	psect	bssCOMRAM
   281  00004B                     __pbssCOMRAM:
   282                           	opt callstack 0
   283  00004B                     _nout:
   284                           	opt callstack 0
   285  00004B                     	ds	2
   286  00004D                     _width:
   287                           	opt callstack 0
   288  00004D                     	ds	2
   289  00004F                     _prec:
   290                           	opt callstack 0
   291  00004F                     	ds	2
   292  000051                     _flags:
   293                           	opt callstack 0
   294  000051                     	ds	2
   295  000053                     _mystring:
   296                           	opt callstack 0
   297  000053                     	ds	20
   298                           
   299                           	psect	dataCOMRAM
   300  000067                     __pdataCOMRAM:
   301                           	opt callstack 0
   302  000067                     stoa@F1131:
   303                           	opt callstack 0
   304  000067                     	ds	7
   305                           
   306                           	psect	bssBANK0
   307  0000B9                     __pbssBANK0:
   308                           	opt callstack 0
   309  0000B9                     _rgb:
   310                           	opt callstack 0
   311  0000B9                     	ds	24
   312  0000D1                     _original:
   313                           	opt callstack 0
   314  0000D1                     	ds	12
   315  0000DD                     _need_to_check:
   316                           	opt callstack 0
   317  0000DD                     	ds	2
   318  0000DF                     _lenStr:
   319                           	opt callstack 0
   320  0000DF                     	ds	2
   321  0000E1                     _seed:
   322                           	opt callstack 0
   323  0000E1                     	ds	8
   324                           
   325                           	psect	bssBANK1
   326  000100                     __pbssBANK1:
   327                           	opt callstack 0
   328  000100                     isr@F2876:
   329                           	opt callstack 0
   330  000100                     	ds	50
   331  000132                     	ds	32
   332                           
   333                           	psect	cstackBANK1
   334  000152                     __pcstackBANK1:
   335                           	opt callstack 0
   336  000152                     ?_ADC_Read:
   337                           	opt callstack 0
   338  000152                     ?___awdiv:
   339                           	opt callstack 0
   340  000152                     ?___omul:
   341                           	opt callstack 0
   342  000152                     rr@tempa:
   343                           	opt callstack 0
   344  000152                     rr_u@tempc:
   345                           	opt callstack 0
   346  000152                     rl@tempa:
   347                           	opt callstack 0
   348  000152                     rl_u@tempc:
   349                           	opt callstack 0
   350  000152                     rt@tempa:
   351                           	opt callstack 0
   352  000152                     rt_u@tempc:
   353                           	opt callstack 0
   354  000152                     rb@tempa:
   355                           	opt callstack 0
   356  000152                     rb_u@tempc:
   357                           	opt callstack 0
   358  000152                     rst@tempa:
   359                           	opt callstack 0
   360  000152                     rst_u@tempc:
   361                           	opt callstack 0
   362  000152                     rsb@tempa:
   363                           	opt callstack 0
   364  000152                     rsb_u@tempc:
   365                           	opt callstack 0
   366  000152                     ADC_Read@channle:
   367                           	opt callstack 0
   368  000152                     initial@i:
   369                           	opt callstack 0
   370  000152                     ___awdiv@dividend:
   371                           	opt callstack 0
   372  000152                     ___omul@multiplier:
   373                           	opt callstack 0
   374                           
   375                           ; 8 bytes @ 0x0
   376  000152                     	ds	1
   377  000153                     rr@tempb:
   378                           	opt callstack 0
   379  000153                     rr_u@tempd:
   380                           	opt callstack 0
   381  000153                     rl@tempb:
   382                           	opt callstack 0
   383  000153                     rl_u@tempd:
   384                           	opt callstack 0
   385  000153                     rt@tempb:
   386                           	opt callstack 0
   387  000153                     rt_u@tempd:
   388                           	opt callstack 0
   389  000153                     rb@tempb:
   390                           	opt callstack 0
   391  000153                     rb_u@tempd:
   392                           	opt callstack 0
   393  000153                     rst@tempb:
   394                           	opt callstack 0
   395  000153                     rst_u@tempd:
   396                           	opt callstack 0
   397  000153                     rsb@tempb:
   398                           	opt callstack 0
   399  000153                     rsb_u@tempd:
   400                           	opt callstack 0
   401                           
   402                           ; 1 bytes @ 0x1
   403  000153                     	ds	1
   404  000154                     ??_ADC_Read:
   405  000154                     rr@tempc:
   406                           	opt callstack 0
   407  000154                     rr_u@tempf:
   408                           	opt callstack 0
   409  000154                     rl@tempf:
   410                           	opt callstack 0
   411  000154                     rl_u@tempf:
   412                           	opt callstack 0
   413  000154                     rt@tempc:
   414                           	opt callstack 0
   415  000154                     rt_u@tempa:
   416                           	opt callstack 0
   417  000154                     rb@tempc:
   418                           	opt callstack 0
   419  000154                     rb_u@tempa:
   420                           	opt callstack 0
   421  000154                     rst@tempc:
   422                           	opt callstack 0
   423  000154                     rst_u@tempa:
   424                           	opt callstack 0
   425  000154                     rsb@tempc:
   426                           	opt callstack 0
   427  000154                     rsb_u@tempa:
   428                           	opt callstack 0
   429  000154                     ___awdiv@divisor:
   430                           	opt callstack 0
   431                           
   432                           ; 2 bytes @ 0x2
   433  000154                     	ds	2
   434  000156                     ___awdiv@counter:
   435                           	opt callstack 0
   436  000156                     ADC_Read@digital:
   437                           	opt callstack 0
   438                           
   439                           ; 2 bytes @ 0x4
   440  000156                     	ds	1
   441  000157                     ___awdiv@sign:
   442                           	opt callstack 0
   443                           
   444                           ; 1 bytes @ 0x5
   445  000157                     	ds	1
   446  000158                     ___awdiv@quotient:
   447                           	opt callstack 0
   448                           
   449                           ; 2 bytes @ 0x6
   450  000158                     	ds	2
   451  00015A                     rotate_r@val:
   452                           	opt callstack 0
   453  00015A                     rotate_l@val:
   454                           	opt callstack 0
   455  00015A                     rotate_top@val:
   456                           	opt callstack 0
   457  00015A                     rotate_bot@val:
   458                           	opt callstack 0
   459  00015A                     rotate_sidetop@val:
   460                           	opt callstack 0
   461  00015A                     rotate_sidebot@val:
   462                           	opt callstack 0
   463  00015A                     ___omul@multiplicand:
   464                           	opt callstack 0
   465                           
   466                           ; 8 bytes @ 0x8
   467  00015A                     	ds	2
   468  00015C                     ??_rotate_r:
   469  00015C                     ??_rotate_l:
   470  00015C                     ??_rotate_top:
   471  00015C                     ??_rotate_bot:
   472  00015C                     ??_rotate_sidetop:
   473  00015C                     ??_rotate_sidebot:
   474                           
   475                           ; 1 bytes @ 0xA
   476  00015C                     	ds	1
   477  00015D                     rotate_r@buf:
   478                           	opt callstack 0
   479  00015D                     rotate_l@buf:
   480                           	opt callstack 0
   481  00015D                     rotate_top@buf:
   482                           	opt callstack 0
   483  00015D                     rotate_bot@buf:
   484                           	opt callstack 0
   485  00015D                     rotate_sidetop@buf:
   486                           	opt callstack 0
   487  00015D                     rotate_sidebot@buf:
   488                           	opt callstack 0
   489                           
   490                           ; 2 bytes @ 0xB
   491  00015D                     	ds	2
   492  00015F                     rotate_r@buf_1043:
   493                           	opt callstack 0
   494  00015F                     rotate_l@buf_1165:
   495                           	opt callstack 0
   496  00015F                     rotate_top@buf_1287:
   497                           	opt callstack 0
   498  00015F                     rotate_bot@buf_1409:
   499                           	opt callstack 0
   500  00015F                     rotate_sidetop@buf_1531:
   501                           	opt callstack 0
   502  00015F                     rotate_sidebot@buf_1653:
   503                           	opt callstack 0
   504                           
   505                           ; 2 bytes @ 0xD
   506  00015F                     	ds	3
   507  000162                     ___omul@product:
   508                           	opt callstack 0
   509                           
   510                           ; 8 bytes @ 0x10
   511  000162                     	ds	8
   512  00016A                     ?_rand:
   513                           	opt callstack 0
   514                           
   515                           ; 2 bytes @ 0x18
   516  00016A                     	ds	2
   517  00016C                     ??_rand:
   518                           
   519                           ; 1 bytes @ 0x1A
   520  00016C                     	ds	8
   521  000174                     ?___awmod:
   522                           	opt callstack 0
   523  000174                     ___awmod@dividend:
   524                           	opt callstack 0
   525                           
   526                           ; 2 bytes @ 0x22
   527  000174                     	ds	2
   528  000176                     ___awmod@divisor:
   529                           	opt callstack 0
   530                           
   531                           ; 2 bytes @ 0x24
   532  000176                     	ds	2
   533  000178                     ___awmod@counter:
   534                           	opt callstack 0
   535                           
   536                           ; 1 bytes @ 0x26
   537  000178                     	ds	1
   538  000179                     ___awmod@sign:
   539                           	opt callstack 0
   540                           
   541                           ; 1 bytes @ 0x27
   542  000179                     	ds	1
   543  00017A                     ??_random_cube:
   544                           
   545                           ; 1 bytes @ 0x28
   546  00017A                     	ds	2
   547  00017C                     random_cube@r:
   548                           	opt callstack 0
   549                           
   550                           ; 2 bytes @ 0x2A
   551  00017C                     	ds	2
   552  00017E                     random_cube@j:
   553                           	opt callstack 0
   554                           
   555                           ; 2 bytes @ 0x2C
   556  00017E                     	ds	2
   557  000180                     ??_main:
   558                           
   559                           ; 1 bytes @ 0x2E
   560  000180                     	ds	2
   561  000182                     main@temp:
   562                           	opt callstack 0
   563                           
   564                           ; 2 bytes @ 0x30
   565  000182                     	ds	2
   566  000184                     main@val:
   567                           	opt callstack 0
   568                           
   569                           ; 2 bytes @ 0x32
   570  000184                     	ds	2
   571  000186                     main@val_1743:
   572                           	opt callstack 0
   573                           
   574                           ; 2 bytes @ 0x34
   575  000186                     	ds	2
   576  000188                     main@val_1745:
   577                           	opt callstack 0
   578                           
   579                           ; 2 bytes @ 0x36
   580  000188                     	ds	2
   581  00018A                     main@val_1747:
   582                           	opt callstack 0
   583                           
   584                           ; 2 bytes @ 0x38
   585  00018A                     	ds	2
   586  00018C                     main@val_1749:
   587                           	opt callstack 0
   588                           
   589                           ; 2 bytes @ 0x3A
   590  00018C                     	ds	2
   591  00018E                     main@val_1751:
   592                           	opt callstack 0
   593                           
   594                           ; 2 bytes @ 0x3C
   595  00018E                     	ds	2
   596  000190                     main@j:
   597                           	opt callstack 0
   598                           
   599                           ; 2 bytes @ 0x3E
   600  000190                     	ds	2
   601  000192                     main@i:
   602                           	opt callstack 0
   603                           
   604                           ; 2 bytes @ 0x40
   605  000192                     	ds	2
   606  000194                     main@turn:
   607                           	opt callstack 0
   608                           
   609                           ; 2 bytes @ 0x42
   610  000194                     	ds	2
   611                           
   612                           	psect	cstackBANK0
   613  000080                     __pcstackBANK0:
   614                           	opt callstack 0
   615  000080                     isr@str:
   616                           	opt callstack 0
   617                           
   618                           ; 50 bytes @ 0x0
   619  000080                     	ds	50
   620  0000B2                     isr@check:
   621                           	opt callstack 0
   622                           
   623                           ; 2 bytes @ 0x32
   624  0000B2                     	ds	2
   625  0000B4                     isr@temp:
   626                           	opt callstack 0
   627                           
   628                           ; 1 bytes @ 0x34
   629  0000B4                     	ds	1
   630  0000B5                     isr@k:
   631                           	opt callstack 0
   632                           
   633                           ; 2 bytes @ 0x35
   634  0000B5                     	ds	2
   635  0000B7                     isr@i:
   636                           	opt callstack 0
   637                           
   638                           ; 2 bytes @ 0x37
   639  0000B7                     	ds	2
   640                           
   641                           	psect	cstackCOMRAM
   642  000001                     __pcstackCOMRAM:
   643                           	opt callstack 0
   644  000001                     ?_strcmp:
   645                           	opt callstack 0
   646  000001                     ?_strlen:
   647                           	opt callstack 0
   648  000001                     ?i2___awmod:
   649                           	opt callstack 0
   650  000001                     UART_Write@data:
   651                           	opt callstack 0
   652  000001                     ClearBuffer@i:
   653                           	opt callstack 0
   654  000001                     fputc@c:
   655                           	opt callstack 0
   656  000001                     strcmp@l:
   657                           	opt callstack 0
   658  000001                     strlen@s:
   659                           	opt callstack 0
   660  000001                     i2___awmod@dividend:
   661                           	opt callstack 0
   662                           
   663                           ; 2 bytes @ 0x0
   664  000001                     	ds	1
   665  000002                     UART_Write_Text@text:
   666                           	opt callstack 0
   667                           
   668                           ; 2 bytes @ 0x1
   669  000002                     	ds	1
   670  000003                     fputc@fp:
   671                           	opt callstack 0
   672  000003                     strcmp@r:
   673                           	opt callstack 0
   674  000003                     strlen@a:
   675                           	opt callstack 0
   676  000003                     i2___awmod@divisor:
   677                           	opt callstack 0
   678                           
   679                           ; 2 bytes @ 0x2
   680  000003                     	ds	1
   681  000004                     ??_UART_Write_Text:
   682                           
   683                           ; 1 bytes @ 0x3
   684  000004                     	ds	1
   685  000005                     ??_strcmp:
   686  000005                     ??_fputc:
   687  000005                     i2___awmod@counter:
   688                           	opt callstack 0
   689                           
   690                           ; 1 bytes @ 0x4
   691  000005                     	ds	1
   692  000006                     i2___awmod@sign:
   693                           	opt callstack 0
   694  000006                     UART_Write_Text@i:
   695                           	opt callstack 0
   696                           
   697                           ; 2 bytes @ 0x5
   698  000006                     	ds	1
   699  000007                     
   700                           ; 1 bytes @ 0x6
   701  000007                     	ds	3
   702  00000A                     ?_stoa:
   703                           	opt callstack 0
   704  00000A                     stoa@fp:
   705                           	opt callstack 0
   706                           
   707                           ; 2 bytes @ 0x9
   708  00000A                     	ds	2
   709  00000C                     stoa@s:
   710                           	opt callstack 0
   711                           
   712                           ; 2 bytes @ 0xB
   713  00000C                     	ds	2
   714  00000E                     ??_stoa:
   715                           
   716                           ; 1 bytes @ 0xD
   717  00000E                     	ds	1
   718  00000F                     stoa@nuls:
   719                           	opt callstack 0
   720                           
   721                           ; 7 bytes @ 0xE
   722  00000F                     	ds	7
   723  000016                     stoa@i:
   724                           	opt callstack 0
   725                           
   726                           ; 2 bytes @ 0x15
   727  000016                     	ds	2
   728  000018                     stoa@w:
   729                           	opt callstack 0
   730                           
   731                           ; 2 bytes @ 0x17
   732  000018                     	ds	2
   733  00001A                     stoa@cp:
   734                           	opt callstack 0
   735                           
   736                           ; 2 bytes @ 0x19
   737  00001A                     	ds	2
   738  00001C                     stoa@p:
   739                           	opt callstack 0
   740                           
   741                           ; 2 bytes @ 0x1B
   742  00001C                     	ds	2
   743  00001E                     stoa@l:
   744                           	opt callstack 0
   745                           
   746                           ; 2 bytes @ 0x1D
   747  00001E                     	ds	2
   748  000020                     ?_vfpfcnvrt:
   749                           	opt callstack 0
   750  000020                     vfpfcnvrt@fp:
   751                           	opt callstack 0
   752                           
   753                           ; 2 bytes @ 0x1F
   754  000020                     	ds	2
   755  000022                     vfpfcnvrt@fmt:
   756                           	opt callstack 0
   757                           
   758                           ; 2 bytes @ 0x21
   759  000022                     	ds	2
   760  000024                     vfpfcnvrt@ap:
   761                           	opt callstack 0
   762                           
   763                           ; 2 bytes @ 0x23
   764  000024                     	ds	2
   765  000026                     ??_vfpfcnvrt:
   766                           
   767                           ; 1 bytes @ 0x25
   768  000026                     	ds	2
   769  000028                     vfpfcnvrt@cp:
   770                           	opt callstack 0
   771                           
   772                           ; 2 bytes @ 0x27
   773  000028                     	ds	2
   774  00002A                     ?_vfprintf:
   775                           	opt callstack 0
   776  00002A                     vfprintf@fp:
   777                           	opt callstack 0
   778                           
   779                           ; 2 bytes @ 0x29
   780  00002A                     	ds	2
   781  00002C                     vfprintf@fmt:
   782                           	opt callstack 0
   783                           
   784                           ; 2 bytes @ 0x2B
   785  00002C                     	ds	2
   786  00002E                     vfprintf@ap:
   787                           	opt callstack 0
   788                           
   789                           ; 2 bytes @ 0x2D
   790  00002E                     	ds	2
   791  000030                     vfprintf@cfmt:
   792                           	opt callstack 0
   793                           
   794                           ; 2 bytes @ 0x2F
   795  000030                     	ds	2
   796  000032                     ?_sprintf:
   797                           	opt callstack 0
   798  000032                     sprintf@s:
   799                           	opt callstack 0
   800                           
   801                           ; 2 bytes @ 0x31
   802  000032                     	ds	2
   803  000034                     sprintf@fmt:
   804                           	opt callstack 0
   805                           
   806                           ; 2 bytes @ 0x33
   807  000034                     	ds	4
   808  000038                     
   809                           ; 1 bytes @ 0x37
   810  000038                     	ds	2
   811  00003A                     sprintf@ap:
   812                           	opt callstack 0
   813                           
   814                           ; 2 bytes @ 0x39
   815  00003A                     	ds	2
   816  00003C                     sprintf@f:
   817                           	opt callstack 0
   818                           
   819                           ; 6 bytes @ 0x3B
   820  00003C                     	ds	6
   821  000042                     ??_isr:
   822                           
   823                           ; 1 bytes @ 0x41
   824  000042                     	ds	9
   825                           
   826 ;;
   827 ;;Main: autosize = 0, tempsize = 2, incstack = 0, save=0
   828 ;;
   829 ;; *************** function _main *****************
   830 ;; Defined at:
   831 ;;		line 671 in file "newmain.c"
   832 ;; Parameters:    Size  Location     Type
   833 ;;		None
   834 ;; Auto vars:     Size  Location     Type
   835 ;;  temp            2   48[BANK1 ] int 
   836 ;;  val             2   60[BANK1 ] int 
   837 ;;  val             2   58[BANK1 ] int 
   838 ;;  val             2   56[BANK1 ] int 
   839 ;;  val             2   54[BANK1 ] int 
   840 ;;  val             2   52[BANK1 ] int 
   841 ;;  val             2   50[BANK1 ] int 
   842 ;;  turn            2   66[BANK1 ] int 
   843 ;;  i               2   64[BANK1 ] int 
   844 ;;  j               2   62[BANK1 ] int 
   845 ;; Return value:  Size  Location     Type
   846 ;;                  1    wreg      void 
   847 ;; Registers used:
   848 ;;		wreg, fsr2l, fsr2h, status,2, status,0, cstack
   849 ;; Tracked objects:
   850 ;;		On entry : 0/0
   851 ;;		On exit  : 0/0
   852 ;;		Unchanged: 0/0
   853 ;; Data sizes:     COMRAM   BANK0   BANK1   BANK2   BANK3   BANK4   BANK5
   854 ;;      Params:         0       0       0       0       0       0       0
   855 ;;      Locals:         0       0      20       0       0       0       0
   856 ;;      Temps:          0       0       2       0       0       0       0
   857 ;;      Totals:         0       0      22       0       0       0       0
   858 ;;Total ram usage:       22 bytes
   859 ;; Hardware stack levels required when called:   10
   860 ;; This function calls:
   861 ;;		_ADC_Initialize
   862 ;;		_ADC_Read
   863 ;;		_UART_Initialize
   864 ;;		___awdiv
   865 ;;		_initial
   866 ;;		_random_cube
   867 ;;		_rotate_bot
   868 ;;		_rotate_l
   869 ;;		_rotate_r
   870 ;;		_rotate_sidebot
   871 ;;		_rotate_sidetop
   872 ;;		_rotate_top
   873 ;; This function is called by:
   874 ;;		Startup code after reset
   875 ;; This function uses a non-reentrant model
   876 ;;
   877                           
   878                           	psect	text0
   879  000FF0                     __ptext0:
   880                           	opt callstack 0
   881  000FF0                     _main:
   882                           	opt callstack 21
   883  000FF0                     
   884                           ;newmain.c: 672:     initial();
   885  000FF0  EC07  F00C         	call	_initial	;wreg free
   886  000FF4                     
   887                           ;newmain.c: 673:     ADC_Initialize();
   888  000FF4  EC1B  F021         	call	_ADC_Initialize	;wreg free
   889  000FF8                     
   890                           ;newmain.c: 674:     UART_Initialize();
   891  000FF8  EC0A  F021         	call	_UART_Initialize	;wreg free
   892  000FFC                     
   893                           ;newmain.c: 675:     TRISD =0;
   894  000FFC  0E00               	movlw	0
   895  000FFE  6E95               	movwf	149,c	;volatile
   896  001000                     
   897                           ;newmain.c: 676:     LATD = 0;
   898  001000  0E00               	movlw	0
   899  001002  6E8C               	movwf	140,c	;volatile
   900  001004                     
   901                           ;newmain.c: 677:     TRISB =0;
   902  001004  0E00               	movlw	0
   903  001006  6E93               	movwf	147,c	;volatile
   904  001008                     
   905                           ;newmain.c: 678:     TRISC = 0;
   906  001008  0E00               	movlw	0
   907  00100A  6E94               	movwf	148,c	;volatile
   908  00100C                     
   909                           ;newmain.c: 679:     LATB = 0;
   910  00100C  0E00               	movlw	0
   911  00100E  6E8A               	movwf	138,c	;volatile
   912  001010                     
   913                           ;newmain.c: 680:     LATC = 0;
   914  001010  0E00               	movlw	0
   915  001012  6E8B               	movwf	139,c	;volatile
   916  001014                     
   917                           ;newmain.c: 681:     TRISAbits.RA4 = 0;
   918  001014  9892               	bcf	146,4,c	;volatile
   919  001016                     
   920                           ;newmain.c: 682:     LATA = 0;
   921  001016  0E00               	movlw	0
   922  001018  6E89               	movwf	137,c	;volatile
   923  00101A                     
   924                           ;newmain.c: 683:     LATAbits.LA4 = 1;
   925  00101A  8889               	bsf	137,4,c	;volatile
   926  00101C                     
   927                           ;newmain.c: 684:     TRISAbits.RA6 = 1;
   928  00101C  8C92               	bsf	146,6,c	;volatile
   929  00101E                     
   930                           ;newmain.c: 685:     TRISAbits.RA7 = 1;
   931  00101E  8E92               	bsf	146,7,c	;volatile
   932  001020                     
   933                           ;newmain.c: 686:     PORTA = 0;
   934  001020  0E00               	movlw	0
   935  001022  6E80               	movwf	128,c	;volatile
   936  001024                     
   937                           ;newmain.c: 687:     OSCCONbits.IRCF = 6;
   938  001024  50D3               	movf	211,w,c	;volatile
   939  001026  0B8F               	andlw	-113
   940  001028  0960               	iorlw	96
   941  00102A  6ED3               	movwf	211,c	;volatile
   942  00102C                     
   943                           ;newmain.c: 688:     LATDbits.LATD0 = 1;
   944  00102C  808C               	bsf	140,0,c	;volatile
   945  00102E                     
   946                           ;newmain.c: 689:     T2CONbits.TMR2ON = 1;
   947  00102E  84CA               	bsf	202,2,c	;volatile
   948  001030                     
   949                           ;newmain.c: 690:     T2CONbits.T2OUTPS3 = 1;
   950  001030  8CCA               	bsf	202,6,c	;volatile
   951  001032                     
   952                           ;newmain.c: 691:     T2CONbits.T2OUTPS2 = 1;
   953  001032  8ACA               	bsf	202,5,c	;volatile
   954  001034                     
   955                           ;newmain.c: 692:     T2CONbits.T2OUTPS1 = 1;
   956  001034  88CA               	bsf	202,4,c	;volatile
   957  001036                     
   958                           ;newmain.c: 693:     T2CONbits.T2OUTPS0 = 1;
   959  001036  86CA               	bsf	202,3,c	;volatile
   960  001038                     
   961                           ;newmain.c: 694:     T2CONbits.T2CKPS1 = 1;
   962  001038  82CA               	bsf	202,1,c	;volatile
   963  00103A                     
   964                           ;newmain.c: 695:     PIR1bits.TMR2IF = 0;
   965  00103A  929E               	bcf	158,1,c	;volatile
   966  00103C                     
   967                           ;newmain.c: 696:     PIE1bits.TMR2IE = 1;
   968  00103C  829D               	bsf	157,1,c	;volatile
   969  00103E                     
   970                           ;newmain.c: 697:     IPR1bits.TMR2IP = 1;
   971  00103E  829F               	bsf	159,1,c	;volatile
   972  001040                     
   973                           ;newmain.c: 698:     RCONbits.IPEN = 0x01;
   974  001040  8ED0               	bsf	208,7,c	;volatile
   975  001042                     
   976                           ;newmain.c: 699:     INTCONbits.GIE = 1;
   977  001042  8EF2               	bsf	242,7,c	;volatile
   978  001044                     
   979                           ;newmain.c: 700:     PR2 = 255;
   980  001044  68CB               	setf	203,c	;volatile
   981  001046                     
   982                           ;newmain.c: 701:     int i = 0;
   983  001046  0E00               	movlw	0
   984  001048  0101               	movlb	1	; () banked
   985  00104A  6F93               	movwf	(main@i+1)& (0+255),b
   986  00104C  0E00               	movlw	0
   987  00104E  6F92               	movwf	main@i& (0+255),b
   988  001050                     
   989                           ; BSR set to: 1
   990                           ;newmain.c: 702:     int j;;newmain.c: 703:     for(j=0; j<6; j++){
   991  001050  0E00               	movlw	0
   992  001052  6F91               	movwf	(main@j+1)& (0+255),b
   993  001054  0E00               	movlw	0
   994  001056  6F90               	movwf	main@j& (0+255),b
   995  001058                     l3861:
   996                           
   997                           ; BSR set to: 1
   998                           ;newmain.c: 706:         original[j] = 0;
   999  001058  90D8               	bcf	status,0,c
  1000  00105A  3590               	rlcf	main@j& (0+255),w,b
  1001  00105C  6ED9               	movwf	fsr2l,c
  1002  00105E  3591               	rlcf	(main@j+1)& (0+255),w,b
  1003  001060  6EDA               	movwf	fsr2h,c
  1004  001062  0ED1               	movlw	low _original
  1005  001064  26D9               	addwf	fsr2l,f,c
  1006  001066  0E00               	movlw	high _original
  1007  001068  22DA               	addwfc	fsr2h,f,c
  1008  00106A  0E00               	movlw	0
  1009  00106C  6EDE               	movwf	postinc2,c
  1010  00106E  0E00               	movlw	0
  1011  001070  6EDD               	movwf	postdec2,c
  1012  001072                     
  1013                           ; BSR set to: 1
  1014                           ;newmain.c: 707:     }
  1015  001072  4B90               	infsnz	main@j& (0+255),f,b
  1016  001074  2B91               	incf	(main@j+1)& (0+255),f,b
  1017  001076                     
  1018                           ; BSR set to: 1
  1019  001076  BF91               	btfsc	(main@j+1)& (0+255),7,b
  1020  001078  EF47  F008         	goto	u18871
  1021  00107C  5191               	movf	(main@j+1)& (0+255),w,b
  1022  00107E  E109               	bnz	u18870
  1023  001080  0E06               	movlw	6
  1024  001082  5D90               	subwf	main@j& (0+255),w,b
  1025  001084  A0D8               	btfss	status,0,c
  1026  001086  EF47  F008         	goto	u18871
  1027  00108A  EF49  F008         	goto	u18870
  1028  00108E                     u18871:
  1029  00108E  EF2C  F008         	goto	l3861
  1030  001092                     u18870:
  1031  001092                     l3867:
  1032                           
  1033                           ; BSR set to: 1
  1034                           ;newmain.c: 708:     int turn = 0;
  1035  001092  0E00               	movlw	0
  1036  001094  6F95               	movwf	(main@turn+1)& (0+255),b
  1037  001096  0E00               	movlw	0
  1038  001098  6F94               	movwf	main@turn& (0+255),b
  1039  00109A                     l3869:
  1040                           
  1041                           ; BSR set to: 1
  1042                           ;newmain.c: 710:         if(PORTAbits.RA6 == 0){
  1043  00109A  BC80               	btfsc	128,6,c	;volatile
  1044  00109C  EF52  F008         	goto	u18881
  1045  0010A0  EF54  F008         	goto	u18880
  1046  0010A4                     u18881:
  1047  0010A4  EF57  F008         	goto	l3875
  1048  0010A8                     u18880:
  1049  0010A8                     
  1050                           ; BSR set to: 1
  1051                           ;newmain.c: 711:             initial();
  1052  0010A8  EC07  F00C         	call	_initial	;wreg free
  1053  0010AC                     
  1054                           ;newmain.c: 712:             PORTAbits.RA6 = 1;
  1055  0010AC  8C80               	bsf	128,6,c	;volatile
  1056  0010AE                     l3875:
  1057                           
  1058                           ;newmain.c: 714:         if(PORTAbits.RA7 == 0){
  1059  0010AE  BE80               	btfsc	128,7,c	;volatile
  1060  0010B0  EF5C  F008         	goto	u18891
  1061  0010B4  EF5E  F008         	goto	u18890
  1062  0010B8                     u18891:
  1063  0010B8  EF61  F008         	goto	l3881
  1064  0010BC                     u18890:
  1065  0010BC                     
  1066                           ;newmain.c: 715:             random_cube();
  1067  0010BC  EC44  F01D         	call	_random_cube	;wreg free
  1068  0010C0                     
  1069                           ;newmain.c: 716:             PORTAbits.RA7 = 1;
  1070  0010C0  8E80               	bsf	128,7,c	;volatile
  1071  0010C2                     l3881:
  1072                           
  1073                           ;newmain.c: 719:             if(turn == 0) {
  1074  0010C2  0101               	movlb	1	; () banked
  1075  0010C4  5194               	movf	main@turn& (0+255),w,b
  1076  0010C6  1195               	iorwf	(main@turn+1)& (0+255),w,b
  1077  0010C8  A4D8               	btfss	status,2,c
  1078  0010CA  EF69  F008         	goto	u18901
  1079  0010CE  EF6B  F008         	goto	u18900
  1080  0010D2                     u18901:
  1081  0010D2  EF97  F008         	goto	l3885
  1082  0010D6                     u18900:
  1083  0010D6                     
  1084                           ; BSR set to: 1
  1085                           ;newmain.c: 720:                 int val = ADC_Read(0);
  1086  0010D6  0E00               	movlw	0
  1087  0010D8  6F53               	movwf	(ADC_Read@channle+1)& (0+255),b
  1088  0010DA  0E00               	movlw	0
  1089  0010DC  6F52               	movwf	ADC_Read@channle& (0+255),b
  1090  0010DE  EC7D  F01F         	call	_ADC_Read	;wreg free
  1091  0010E2  C152  F184         	movff	?_ADC_Read,main@val
  1092  0010E6  C153  F185         	movff	?_ADC_Read+1,main@val+1
  1093                           
  1094                           ;newmain.c: 721:                 rotate_top(val/300);
  1095  0010EA  C184  F152         	movff	main@val,___awdiv@dividend
  1096  0010EE  C185  F153         	movff	main@val+1,___awdiv@dividend+1
  1097  0010F2  0E01               	movlw	1
  1098  0010F4  0101               	movlb	1	; () banked
  1099  0010F6  6F55               	movwf	(___awdiv@divisor+1)& (0+255),b
  1100  0010F8  0E2C               	movlw	44
  1101  0010FA  6F54               	movwf	___awdiv@divisor& (0+255),b
  1102  0010FC  EC19  F01E         	call	___awdiv	;wreg free
  1103  001100  C152  F15A         	movff	?___awdiv,rotate_top@val
  1104  001104  C153  F15B         	movff	?___awdiv+1,rotate_top@val+1
  1105  001108  EC74  F01A         	call	_rotate_top	;wreg free
  1106                           
  1107                           ;newmain.c: 722:                 original[0] = val/300;
  1108  00110C  C184  F152         	movff	main@val,___awdiv@dividend
  1109  001110  C185  F153         	movff	main@val+1,___awdiv@dividend+1
  1110  001114  0E01               	movlw	1
  1111  001116  0101               	movlb	1	; () banked
  1112  001118  6F55               	movwf	(___awdiv@divisor+1)& (0+255),b
  1113  00111A  0E2C               	movlw	44
  1114  00111C  6F54               	movwf	___awdiv@divisor& (0+255),b
  1115  00111E  EC19  F01E         	call	___awdiv	;wreg free
  1116  001122  C152  F0D1         	movff	?___awdiv,_original	;volatile
  1117  001126  C153  F0D2         	movff	?___awdiv+1,_original+1	;volatile
  1118                           
  1119                           ;newmain.c: 723:             }
  1120  00112A  EF71  F00B         	goto	l3955
  1121  00112E                     l3885:
  1122                           
  1123                           ; BSR set to: 1
  1124  00112E  0594               	decf	main@turn& (0+255),w,b
  1125  001130  1195               	iorwf	(main@turn+1)& (0+255),w,b
  1126  001132  A4D8               	btfss	status,2,c
  1127  001134  EF9E  F008         	goto	u18911
  1128  001138  EFA0  F008         	goto	u18910
  1129  00113C                     u18911:
  1130  00113C  EFCC  F008         	goto	l3889
  1131  001140                     u18910:
  1132  001140                     
  1133                           ; BSR set to: 1
  1134                           ;newmain.c: 725:                 int val = ADC_Read(1);
  1135  001140  0E00               	movlw	0
  1136  001142  6F53               	movwf	(ADC_Read@channle+1)& (0+255),b
  1137  001144  0E01               	movlw	1
  1138  001146  6F52               	movwf	ADC_Read@channle& (0+255),b
  1139  001148  EC7D  F01F         	call	_ADC_Read	;wreg free
  1140  00114C  C152  F186         	movff	?_ADC_Read,main@val_1743
  1141  001150  C153  F187         	movff	?_ADC_Read+1,main@val_1743+1
  1142                           
  1143                           ;newmain.c: 726:                 rotate_bot(val/300);
  1144  001154  C186  F152         	movff	main@val_1743,___awdiv@dividend
  1145  001158  C187  F153         	movff	main@val_1743+1,___awdiv@dividend+1
  1146  00115C  0E01               	movlw	1
  1147  00115E  0101               	movlb	1	; () banked
  1148  001160  6F55               	movwf	(___awdiv@divisor+1)& (0+255),b
  1149  001162  0E2C               	movlw	44
  1150  001164  6F54               	movwf	___awdiv@divisor& (0+255),b
  1151  001166  EC19  F01E         	call	___awdiv	;wreg free
  1152  00116A  C152  F15A         	movff	?___awdiv,rotate_bot@val
  1153  00116E  C153  F15B         	movff	?___awdiv+1,rotate_bot@val+1
  1154  001172  ECCC  F01C         	call	_rotate_bot	;wreg free
  1155                           
  1156                           ;newmain.c: 727:                 original[1] = val/300;
  1157  001176  C186  F152         	movff	main@val_1743,___awdiv@dividend
  1158  00117A  C187  F153         	movff	main@val_1743+1,___awdiv@dividend+1
  1159  00117E  0E01               	movlw	1
  1160  001180  0101               	movlb	1	; () banked
  1161  001182  6F55               	movwf	(___awdiv@divisor+1)& (0+255),b
  1162  001184  0E2C               	movlw	44
  1163  001186  6F54               	movwf	___awdiv@divisor& (0+255),b
  1164  001188  EC19  F01E         	call	___awdiv	;wreg free
  1165  00118C  C152  F0D3         	movff	?___awdiv,_original+2	;volatile
  1166  001190  C153  F0D4         	movff	?___awdiv+1,_original+3	;volatile
  1167                           
  1168                           ;newmain.c: 728:             }
  1169  001194  EF71  F00B         	goto	l3955
  1170  001198                     l3889:
  1171                           
  1172                           ; BSR set to: 1
  1173  001198  0E02               	movlw	2
  1174  00119A  1994               	xorwf	main@turn& (0+255),w,b
  1175  00119C  1195               	iorwf	(main@turn+1)& (0+255),w,b
  1176  00119E  A4D8               	btfss	status,2,c
  1177  0011A0  EFD4  F008         	goto	u18921
  1178  0011A4  EFD6  F008         	goto	u18920
  1179  0011A8                     u18921:
  1180  0011A8  EF02  F009         	goto	l3893
  1181  0011AC                     u18920:
  1182  0011AC                     
  1183                           ; BSR set to: 1
  1184                           ;newmain.c: 730:                 int val = ADC_Read(6);
  1185  0011AC  0E00               	movlw	0
  1186  0011AE  6F53               	movwf	(ADC_Read@channle+1)& (0+255),b
  1187  0011B0  0E06               	movlw	6
  1188  0011B2  6F52               	movwf	ADC_Read@channle& (0+255),b
  1189  0011B4  EC7D  F01F         	call	_ADC_Read	;wreg free
  1190  0011B8  C152  F188         	movff	?_ADC_Read,main@val_1745
  1191  0011BC  C153  F189         	movff	?_ADC_Read+1,main@val_1745+1
  1192                           
  1193                           ;newmain.c: 731:                 rotate_r(val/300);
  1194  0011C0  C188  F152         	movff	main@val_1745,___awdiv@dividend
  1195  0011C4  C189  F153         	movff	main@val_1745+1,___awdiv@dividend+1
  1196  0011C8  0E01               	movlw	1
  1197  0011CA  0101               	movlb	1	; () banked
  1198  0011CC  6F55               	movwf	(___awdiv@divisor+1)& (0+255),b
  1199  0011CE  0E2C               	movlw	44
  1200  0011D0  6F54               	movwf	___awdiv@divisor& (0+255),b
  1201  0011D2  EC19  F01E         	call	___awdiv	;wreg free
  1202  0011D6  C152  F15A         	movff	?___awdiv,rotate_r@val
  1203  0011DA  C153  F15B         	movff	?___awdiv+1,rotate_r@val+1
  1204  0011DE  ECDC  F01B         	call	_rotate_r	;wreg free
  1205                           
  1206                           ;newmain.c: 732:                 original[2] = val/300;
  1207  0011E2  C188  F152         	movff	main@val_1745,___awdiv@dividend
  1208  0011E6  C189  F153         	movff	main@val_1745+1,___awdiv@dividend+1
  1209  0011EA  0E01               	movlw	1
  1210  0011EC  0101               	movlb	1	; () banked
  1211  0011EE  6F55               	movwf	(___awdiv@divisor+1)& (0+255),b
  1212  0011F0  0E2C               	movlw	44
  1213  0011F2  6F54               	movwf	___awdiv@divisor& (0+255),b
  1214  0011F4  EC19  F01E         	call	___awdiv	;wreg free
  1215  0011F8  C152  F0D5         	movff	?___awdiv,_original+4	;volatile
  1216  0011FC  C153  F0D6         	movff	?___awdiv+1,_original+5	;volatile
  1217                           
  1218                           ;newmain.c: 733:             }
  1219  001200  EF71  F00B         	goto	l3955
  1220  001204                     l3893:
  1221                           
  1222                           ; BSR set to: 1
  1223  001204  0E03               	movlw	3
  1224  001206  1994               	xorwf	main@turn& (0+255),w,b
  1225  001208  1195               	iorwf	(main@turn+1)& (0+255),w,b
  1226  00120A  A4D8               	btfss	status,2,c
  1227  00120C  EF0A  F009         	goto	u18931
  1228  001210  EF0C  F009         	goto	u18930
  1229  001214                     u18931:
  1230  001214  EF38  F009         	goto	l3897
  1231  001218                     u18930:
  1232  001218                     
  1233                           ; BSR set to: 1
  1234                           ;newmain.c: 735:                 int val = ADC_Read(7);
  1235  001218  0E00               	movlw	0
  1236  00121A  6F53               	movwf	(ADC_Read@channle+1)& (0+255),b
  1237  00121C  0E07               	movlw	7
  1238  00121E  6F52               	movwf	ADC_Read@channle& (0+255),b
  1239  001220  EC7D  F01F         	call	_ADC_Read	;wreg free
  1240  001224  C152  F18A         	movff	?_ADC_Read,main@val_1747
  1241  001228  C153  F18B         	movff	?_ADC_Read+1,main@val_1747+1
  1242                           
  1243                           ;newmain.c: 736:                 rotate_l(val/300);
  1244  00122C  C18A  F152         	movff	main@val_1747,___awdiv@dividend
  1245  001230  C18B  F153         	movff	main@val_1747+1,___awdiv@dividend+1
  1246  001234  0E01               	movlw	1
  1247  001236  0101               	movlb	1	; () banked
  1248  001238  6F55               	movwf	(___awdiv@divisor+1)& (0+255),b
  1249  00123A  0E2C               	movlw	44
  1250  00123C  6F54               	movwf	___awdiv@divisor& (0+255),b
  1251  00123E  EC19  F01E         	call	___awdiv	;wreg free
  1252  001242  C152  F15A         	movff	?___awdiv,rotate_l@val
  1253  001246  C153  F15B         	movff	?___awdiv+1,rotate_l@val+1
  1254  00124A  EC54  F01C         	call	_rotate_l	;wreg free
  1255                           
  1256                           ;newmain.c: 737:                 original[3] = val/300;
  1257  00124E  C18A  F152         	movff	main@val_1747,___awdiv@dividend
  1258  001252  C18B  F153         	movff	main@val_1747+1,___awdiv@dividend+1
  1259  001256  0E01               	movlw	1
  1260  001258  0101               	movlb	1	; () banked
  1261  00125A  6F55               	movwf	(___awdiv@divisor+1)& (0+255),b
  1262  00125C  0E2C               	movlw	44
  1263  00125E  6F54               	movwf	___awdiv@divisor& (0+255),b
  1264  001260  EC19  F01E         	call	___awdiv	;wreg free
  1265  001264  C152  F0D7         	movff	?___awdiv,_original+6	;volatile
  1266  001268  C153  F0D8         	movff	?___awdiv+1,_original+7	;volatile
  1267                           
  1268                           ;newmain.c: 738:             }
  1269  00126C  EF71  F00B         	goto	l3955
  1270  001270                     l3897:
  1271                           
  1272                           ; BSR set to: 1
  1273  001270  0E04               	movlw	4
  1274  001272  1994               	xorwf	main@turn& (0+255),w,b
  1275  001274  1195               	iorwf	(main@turn+1)& (0+255),w,b
  1276  001276  A4D8               	btfss	status,2,c
  1277  001278  EF40  F009         	goto	u18941
  1278  00127C  EF42  F009         	goto	u18940
  1279  001280                     u18941:
  1280  001280  EF6E  F009         	goto	l3901
  1281  001284                     u18940:
  1282  001284                     
  1283                           ; BSR set to: 1
  1284                           ;newmain.c: 740:                 int val = ADC_Read(4);
  1285  001284  0E00               	movlw	0
  1286  001286  6F53               	movwf	(ADC_Read@channle+1)& (0+255),b
  1287  001288  0E04               	movlw	4
  1288  00128A  6F52               	movwf	ADC_Read@channle& (0+255),b
  1289  00128C  EC7D  F01F         	call	_ADC_Read	;wreg free
  1290  001290  C152  F18C         	movff	?_ADC_Read,main@val_1749
  1291  001294  C153  F18D         	movff	?_ADC_Read+1,main@val_1749+1
  1292                           
  1293                           ;newmain.c: 741:                 rotate_sidetop(val/300);
  1294  001298  C18C  F152         	movff	main@val_1749,___awdiv@dividend
  1295  00129C  C18D  F153         	movff	main@val_1749+1,___awdiv@dividend+1
  1296  0012A0  0E01               	movlw	1
  1297  0012A2  0101               	movlb	1	; () banked
  1298  0012A4  6F55               	movwf	(___awdiv@divisor+1)& (0+255),b
  1299  0012A6  0E2C               	movlw	44
  1300  0012A8  6F54               	movwf	___awdiv@divisor& (0+255),b
  1301  0012AA  EC19  F01E         	call	___awdiv	;wreg free
  1302  0012AE  C152  F15A         	movff	?___awdiv,rotate_sidetop@val
  1303  0012B2  C153  F15B         	movff	?___awdiv+1,rotate_sidetop@val+1
  1304  0012B6  ECEC  F01A         	call	_rotate_sidetop	;wreg free
  1305                           
  1306                           ;newmain.c: 742:                 original[4] = val/300;
  1307  0012BA  C18C  F152         	movff	main@val_1749,___awdiv@dividend
  1308  0012BE  C18D  F153         	movff	main@val_1749+1,___awdiv@dividend+1
  1309  0012C2  0E01               	movlw	1
  1310  0012C4  0101               	movlb	1	; () banked
  1311  0012C6  6F55               	movwf	(___awdiv@divisor+1)& (0+255),b
  1312  0012C8  0E2C               	movlw	44
  1313  0012CA  6F54               	movwf	___awdiv@divisor& (0+255),b
  1314  0012CC  EC19  F01E         	call	___awdiv	;wreg free
  1315  0012D0  C152  F0D9         	movff	?___awdiv,_original+8	;volatile
  1316  0012D4  C153  F0DA         	movff	?___awdiv+1,_original+9	;volatile
  1317                           
  1318                           ;newmain.c: 743:             }
  1319  0012D8  EF71  F00B         	goto	l3955
  1320  0012DC                     l3901:
  1321                           
  1322                           ; BSR set to: 1
  1323  0012DC  0E05               	movlw	5
  1324  0012DE  1994               	xorwf	main@turn& (0+255),w,b
  1325  0012E0  1195               	iorwf	(main@turn+1)& (0+255),w,b
  1326  0012E2  A4D8               	btfss	status,2,c
  1327  0012E4  EF76  F009         	goto	u18951
  1328  0012E8  EF78  F009         	goto	u18950
  1329  0012EC                     u18951:
  1330  0012EC  EFA4  F009         	goto	l319
  1331  0012F0                     u18950:
  1332  0012F0                     
  1333                           ; BSR set to: 1
  1334                           ;newmain.c: 745:                 int val = ADC_Read(5);
  1335  0012F0  0E00               	movlw	0
  1336  0012F2  6F53               	movwf	(ADC_Read@channle+1)& (0+255),b
  1337  0012F4  0E05               	movlw	5
  1338  0012F6  6F52               	movwf	ADC_Read@channle& (0+255),b
  1339  0012F8  EC7D  F01F         	call	_ADC_Read	;wreg free
  1340  0012FC  C152  F18E         	movff	?_ADC_Read,main@val_1751
  1341  001300  C153  F18F         	movff	?_ADC_Read+1,main@val_1751+1
  1342                           
  1343                           ;newmain.c: 746:                 rotate_sidebot(val/300);
  1344  001304  C18E  F152         	movff	main@val_1751,___awdiv@dividend
  1345  001308  C18F  F153         	movff	main@val_1751+1,___awdiv@dividend+1
  1346  00130C  0E01               	movlw	1
  1347  00130E  0101               	movlb	1	; () banked
  1348  001310  6F55               	movwf	(___awdiv@divisor+1)& (0+255),b
  1349  001312  0E2C               	movlw	44
  1350  001314  6F54               	movwf	___awdiv@divisor& (0+255),b
  1351  001316  EC19  F01E         	call	___awdiv	;wreg free
  1352  00131A  C152  F15A         	movff	?___awdiv,rotate_sidebot@val
  1353  00131E  C153  F15B         	movff	?___awdiv+1,rotate_sidebot@val+1
  1354  001322  EC64  F01B         	call	_rotate_sidebot	;wreg free
  1355                           
  1356                           ;newmain.c: 747:                 original[5] = val/300;
  1357  001326  C18E  F152         	movff	main@val_1751,___awdiv@dividend
  1358  00132A  C18F  F153         	movff	main@val_1751+1,___awdiv@dividend+1
  1359  00132E  0E01               	movlw	1
  1360  001330  0101               	movlb	1	; () banked
  1361  001332  6F55               	movwf	(___awdiv@divisor+1)& (0+255),b
  1362  001334  0E2C               	movlw	44
  1363  001336  6F54               	movwf	___awdiv@divisor& (0+255),b
  1364  001338  EC19  F01E         	call	___awdiv	;wreg free
  1365  00133C  C152  F0DB         	movff	?___awdiv,_original+10	;volatile
  1366  001340  C153  F0DC         	movff	?___awdiv+1,_original+11	;volatile
  1367  001344  EF71  F00B         	goto	l3955
  1368  001348                     l319:
  1369                           
  1370                           ; BSR set to: 1
  1371  001348  EF71  F00B         	goto	l3955
  1372  00134C                     l326:
  1373                           
  1374                           ; BSR set to: 1
  1375                           ;newmain.c: 751:                 LATBbits.LATB0 = rgb[4].r;
  1376  00134C  0100               	movlb	0	; () banked
  1377  00134E  A1BD               	btfss	(_rgb+4)& (0+255),0,b	;volatile
  1378  001350  D002               	bra	u18965
  1379  001352  808A               	bsf	138,0,c	;volatile
  1380  001354  D001               	bra	u18967
  1381  001356                     u18965:
  1382  001356  908A               	bcf	138,0,c	;volatile
  1383  001358                     u18967:
  1384                           
  1385                           ;newmain.c: 752:                 LATBbits.LATB1 = rgb[4].g;
  1386  001358  0100               	movlb	0	; () banked
  1387  00135A  A3BD               	btfss	(_rgb+4)& (0+255),1,b	;volatile
  1388  00135C  D002               	bra	u18975
  1389  00135E  828A               	bsf	138,1,c	;volatile
  1390  001360  D001               	bra	u18977
  1391  001362                     u18975:
  1392  001362  928A               	bcf	138,1,c	;volatile
  1393  001364                     u18977:
  1394                           
  1395                           ;newmain.c: 753:                 LATBbits.LATB2 = rgb[4].b;
  1396  001364  0100               	movlb	0	; () banked
  1397  001366  A5BD               	btfss	(_rgb+4)& (0+255),2,b	;volatile
  1398  001368  D002               	bra	u18985
  1399  00136A  848A               	bsf	138,2,c	;volatile
  1400  00136C  D001               	bra	u18987
  1401  00136E                     u18985:
  1402  00136E  948A               	bcf	138,2,c	;volatile
  1403  001370                     u18987:
  1404                           
  1405                           ;newmain.c: 754:                 LATBbits.LATB3 = rgb[7].r;
  1406  001370  0100               	movlb	0	; () banked
  1407  001372  A1C0               	btfss	(_rgb+7)& (0+255),0,b	;volatile
  1408  001374  D002               	bra	u18995
  1409  001376  868A               	bsf	138,3,c	;volatile
  1410  001378  D001               	bra	u18997
  1411  00137A                     u18995:
  1412  00137A  968A               	bcf	138,3,c	;volatile
  1413  00137C                     u18997:
  1414                           
  1415                           ;newmain.c: 755:                 LATBbits.LATB4 = rgb[7].g;
  1416  00137C  0100               	movlb	0	; () banked
  1417  00137E  A3C0               	btfss	(_rgb+7)& (0+255),1,b	;volatile
  1418  001380  D002               	bra	u19005
  1419  001382  888A               	bsf	138,4,c	;volatile
  1420  001384  D001               	bra	u19007
  1421  001386                     u19005:
  1422  001386  988A               	bcf	138,4,c	;volatile
  1423  001388                     u19007:
  1424                           
  1425                           ;newmain.c: 756:                 LATBbits.LATB5 = rgb[7].b;
  1426  001388  0100               	movlb	0	; () banked
  1427  00138A  A5C0               	btfss	(_rgb+7)& (0+255),2,b	;volatile
  1428  00138C  D002               	bra	u19015
  1429  00138E  8A8A               	bsf	138,5,c	;volatile
  1430  001390  D001               	bra	u19017
  1431  001392                     u19015:
  1432  001392  9A8A               	bcf	138,5,c	;volatile
  1433  001394                     u19017:
  1434  001394                     l3905:
  1435                           
  1436                           ;newmain.c: 757:                 _delay((unsigned long)((200)*(35000000/4000000.0)));
  1437  001394  0EFA               	movlw	250
  1438  001396                     u19807:
  1439  001396  D000               	nop2	
  1440  001398  D000               	nop2	
  1441  00139A  2EE8               	decfsz	wreg,f,c
  1442  00139C  D7FC               	bra	u19807
  1443  00139E                     l3907:
  1444                           
  1445                           ;newmain.c: 758:                 LATB = 255;
  1446  00139E  688A               	setf	138,c	;volatile
  1447  0013A0                     
  1448                           ;newmain.c: 759:                 LATC = 255;
  1449  0013A0  688B               	setf	139,c	;volatile
  1450                           
  1451                           ;newmain.c: 760:                 break;
  1452  0013A2  EFA0  F00B         	goto	l3957
  1453  0013A6                     l328:
  1454                           
  1455                           ; BSR set to: 1
  1456                           ;newmain.c: 762:                 LATBbits.LATB0 = rgb[5].r;
  1457  0013A6  0100               	movlb	0	; () banked
  1458  0013A8  A1BE               	btfss	(_rgb+5)& (0+255),0,b	;volatile
  1459  0013AA  D002               	bra	u19025
  1460  0013AC  808A               	bsf	138,0,c	;volatile
  1461  0013AE  D001               	bra	u19027
  1462  0013B0                     u19025:
  1463  0013B0  908A               	bcf	138,0,c	;volatile
  1464  0013B2                     u19027:
  1465                           
  1466                           ;newmain.c: 763:                 LATBbits.LATB1 = rgb[5].g;
  1467  0013B2  0100               	movlb	0	; () banked
  1468  0013B4  A3BE               	btfss	(_rgb+5)& (0+255),1,b	;volatile
  1469  0013B6  D002               	bra	u19035
  1470  0013B8  828A               	bsf	138,1,c	;volatile
  1471  0013BA  D001               	bra	u19037
  1472  0013BC                     u19035:
  1473  0013BC  928A               	bcf	138,1,c	;volatile
  1474  0013BE                     u19037:
  1475                           
  1476                           ;newmain.c: 764:                 LATBbits.LATB2 = rgb[5].b;
  1477  0013BE  0100               	movlb	0	; () banked
  1478  0013C0  A5BE               	btfss	(_rgb+5)& (0+255),2,b	;volatile
  1479  0013C2  D002               	bra	u19045
  1480  0013C4  848A               	bsf	138,2,c	;volatile
  1481  0013C6  D001               	bra	u19047
  1482  0013C8                     u19045:
  1483  0013C8  948A               	bcf	138,2,c	;volatile
  1484  0013CA                     u19047:
  1485                           
  1486                           ;newmain.c: 765:                 LATBbits.LATB3 = rgb[6].r;
  1487  0013CA  0100               	movlb	0	; () banked
  1488  0013CC  A1BF               	btfss	(_rgb+6)& (0+255),0,b	;volatile
  1489  0013CE  D002               	bra	u19055
  1490  0013D0  868A               	bsf	138,3,c	;volatile
  1491  0013D2  D001               	bra	u19057
  1492  0013D4                     u19055:
  1493  0013D4  968A               	bcf	138,3,c	;volatile
  1494  0013D6                     u19057:
  1495                           
  1496                           ;newmain.c: 766:                 LATBbits.LATB4 = rgb[6].g;
  1497  0013D6  0100               	movlb	0	; () banked
  1498  0013D8  A3BF               	btfss	(_rgb+6)& (0+255),1,b	;volatile
  1499  0013DA  D002               	bra	u19065
  1500  0013DC  888A               	bsf	138,4,c	;volatile
  1501  0013DE  D001               	bra	u19067
  1502  0013E0                     u19065:
  1503  0013E0  988A               	bcf	138,4,c	;volatile
  1504  0013E2                     u19067:
  1505                           
  1506                           ;newmain.c: 767:                 LATBbits.LATB5 = rgb[6].b;
  1507  0013E2  0100               	movlb	0	; () banked
  1508  0013E4  A5BF               	btfss	(_rgb+6)& (0+255),2,b	;volatile
  1509  0013E6  D002               	bra	u19075
  1510  0013E8  8A8A               	bsf	138,5,c	;volatile
  1511  0013EA  D001               	bra	u19077
  1512  0013EC                     u19075:
  1513  0013EC  9A8A               	bcf	138,5,c	;volatile
  1514  0013EE                     u19077:
  1515  0013EE  EFCA  F009         	goto	l3905
  1516  0013F2                     l329:
  1517                           
  1518                           ; BSR set to: 1
  1519                           ;newmain.c: 773:                 LATCbits.LATC0 = rgb[20].r;
  1520  0013F2  0100               	movlb	0	; () banked
  1521  0013F4  A1CD               	btfss	(_rgb+20)& (0+255),0,b	;volatile
  1522  0013F6  D002               	bra	u19085
  1523  0013F8  808B               	bsf	139,0,c	;volatile
  1524  0013FA  D001               	bra	u19087
  1525  0013FC                     u19085:
  1526  0013FC  908B               	bcf	139,0,c	;volatile
  1527  0013FE                     u19087:
  1528                           
  1529                           ;newmain.c: 774:                 LATCbits.LATC1 = rgb[20].g;
  1530  0013FE  0100               	movlb	0	; () banked
  1531  001400  A3CD               	btfss	(_rgb+20)& (0+255),1,b	;volatile
  1532  001402  D002               	bra	u19095
  1533  001404  828B               	bsf	139,1,c	;volatile
  1534  001406  D001               	bra	u19097
  1535  001408                     u19095:
  1536  001408  928B               	bcf	139,1,c	;volatile
  1537  00140A                     u19097:
  1538                           
  1539                           ;newmain.c: 775:                 LATCbits.LATC2 = rgb[20].b;
  1540  00140A  0100               	movlb	0	; () banked
  1541  00140C  A5CD               	btfss	(_rgb+20)& (0+255),2,b	;volatile
  1542  00140E  D002               	bra	u19105
  1543  001410  848B               	bsf	139,2,c	;volatile
  1544  001412  D001               	bra	u19107
  1545  001414                     u19105:
  1546  001414  948B               	bcf	139,2,c	;volatile
  1547  001416                     u19107:
  1548                           
  1549                           ;newmain.c: 776:                 LATCbits.LATC3 = rgb[19].r;
  1550  001416  0100               	movlb	0	; () banked
  1551  001418  A1CC               	btfss	(_rgb+19)& (0+255),0,b	;volatile
  1552  00141A  D002               	bra	u19115
  1553  00141C  868B               	bsf	139,3,c	;volatile
  1554  00141E  D001               	bra	u19117
  1555  001420                     u19115:
  1556  001420  968B               	bcf	139,3,c	;volatile
  1557  001422                     u19117:
  1558                           
  1559                           ;newmain.c: 777:                 LATCbits.LATC4 = rgb[19].g;
  1560  001422  0100               	movlb	0	; () banked
  1561  001424  A3CC               	btfss	(_rgb+19)& (0+255),1,b	;volatile
  1562  001426  D002               	bra	u19125
  1563  001428  888B               	bsf	139,4,c	;volatile
  1564  00142A  D001               	bra	u19127
  1565  00142C                     u19125:
  1566  00142C  988B               	bcf	139,4,c	;volatile
  1567  00142E                     u19127:
  1568                           
  1569                           ;newmain.c: 778:                 LATCbits.LATC5 = rgb[19].b;
  1570  00142E  0100               	movlb	0	; () banked
  1571  001430  A5CC               	btfss	(_rgb+19)& (0+255),2,b	;volatile
  1572  001432  D002               	bra	u19135
  1573  001434  8A8B               	bsf	139,5,c	;volatile
  1574  001436  D001               	bra	u19137
  1575  001438                     u19135:
  1576  001438  9A8B               	bcf	139,5,c	;volatile
  1577  00143A                     u19137:
  1578                           
  1579                           ;newmain.c: 779:                 LATBbits.LATB0 = rgb[1].r;
  1580  00143A  0100               	movlb	0	; () banked
  1581  00143C  A1BA               	btfss	(_rgb+1)& (0+255),0,b	;volatile
  1582  00143E  D002               	bra	u19145
  1583  001440  808A               	bsf	138,0,c	;volatile
  1584  001442  D001               	bra	u19147
  1585  001444                     u19145:
  1586  001444  908A               	bcf	138,0,c	;volatile
  1587  001446                     u19147:
  1588                           
  1589                           ;newmain.c: 780:                 LATBbits.LATB1 = rgb[1].g;
  1590  001446  0100               	movlb	0	; () banked
  1591  001448  A3BA               	btfss	(_rgb+1)& (0+255),1,b	;volatile
  1592  00144A  D002               	bra	u19155
  1593  00144C  828A               	bsf	138,1,c	;volatile
  1594  00144E  D001               	bra	u19157
  1595  001450                     u19155:
  1596  001450  928A               	bcf	138,1,c	;volatile
  1597  001452                     u19157:
  1598                           
  1599                           ;newmain.c: 781:                 LATBbits.LATB2 = rgb[1].b;
  1600  001452  0100               	movlb	0	; () banked
  1601  001454  A5BA               	btfss	(_rgb+1)& (0+255),2,b	;volatile
  1602  001456  D002               	bra	u19165
  1603  001458  848A               	bsf	138,2,c	;volatile
  1604  00145A  D001               	bra	u19167
  1605  00145C                     u19165:
  1606  00145C  948A               	bcf	138,2,c	;volatile
  1607  00145E                     u19167:
  1608                           
  1609                           ;newmain.c: 782:                 LATBbits.LATB3 = rgb[2].r;
  1610  00145E  0100               	movlb	0	; () banked
  1611  001460  A1BB               	btfss	(_rgb+2)& (0+255),0,b	;volatile
  1612  001462  D002               	bra	u19175
  1613  001464  868A               	bsf	138,3,c	;volatile
  1614  001466  D001               	bra	u19177
  1615  001468                     u19175:
  1616  001468  968A               	bcf	138,3,c	;volatile
  1617  00146A                     u19177:
  1618                           
  1619                           ;newmain.c: 783:                 LATBbits.LATB4 = rgb[2].g;
  1620  00146A  0100               	movlb	0	; () banked
  1621  00146C  A3BB               	btfss	(_rgb+2)& (0+255),1,b	;volatile
  1622  00146E  D002               	bra	u19185
  1623  001470  888A               	bsf	138,4,c	;volatile
  1624  001472  D001               	bra	u19187
  1625  001474                     u19185:
  1626  001474  988A               	bcf	138,4,c	;volatile
  1627  001476                     u19187:
  1628                           
  1629                           ;newmain.c: 784:                 LATBbits.LATB5 = rgb[2].b;
  1630  001476  0100               	movlb	0	; () banked
  1631  001478  A5BB               	btfss	(_rgb+2)& (0+255),2,b	;volatile
  1632  00147A  D002               	bra	u19195
  1633  00147C  8A8A               	bsf	138,5,c	;volatile
  1634  00147E  D001               	bra	u19197
  1635  001480                     u19195:
  1636  001480  9A8A               	bcf	138,5,c	;volatile
  1637  001482                     u19197:
  1638  001482  EFCA  F009         	goto	l3905
  1639  001486                     l330:
  1640                           
  1641                           ; BSR set to: 1
  1642                           ;newmain.c: 790:                 LATCbits.LATC0 = rgb[23].r;
  1643  001486  0100               	movlb	0	; () banked
  1644  001488  A1D0               	btfss	(_rgb+23)& (0+255),0,b	;volatile
  1645  00148A  D002               	bra	u19205
  1646  00148C  808B               	bsf	139,0,c	;volatile
  1647  00148E  D001               	bra	u19207
  1648  001490                     u19205:
  1649  001490  908B               	bcf	139,0,c	;volatile
  1650  001492                     u19207:
  1651                           
  1652                           ;newmain.c: 791:                 LATCbits.LATC1 = rgb[23].g;
  1653  001492  0100               	movlb	0	; () banked
  1654  001494  A3D0               	btfss	(_rgb+23)& (0+255),1,b	;volatile
  1655  001496  D002               	bra	u19215
  1656  001498  828B               	bsf	139,1,c	;volatile
  1657  00149A  D001               	bra	u19217
  1658  00149C                     u19215:
  1659  00149C  928B               	bcf	139,1,c	;volatile
  1660  00149E                     u19217:
  1661                           
  1662                           ;newmain.c: 792:                 LATCbits.LATC2 = rgb[23].b;
  1663  00149E  0100               	movlb	0	; () banked
  1664  0014A0  A5D0               	btfss	(_rgb+23)& (0+255),2,b	;volatile
  1665  0014A2  D002               	bra	u19225
  1666  0014A4  848B               	bsf	139,2,c	;volatile
  1667  0014A6  D001               	bra	u19227
  1668  0014A8                     u19225:
  1669  0014A8  948B               	bcf	139,2,c	;volatile
  1670  0014AA                     u19227:
  1671                           
  1672                           ;newmain.c: 793:                 LATCbits.LATC3 = rgb[16].r;
  1673  0014AA  0100               	movlb	0	; () banked
  1674  0014AC  A1C9               	btfss	(_rgb+16)& (0+255),0,b	;volatile
  1675  0014AE  D002               	bra	u19235
  1676  0014B0  868B               	bsf	139,3,c	;volatile
  1677  0014B2  D001               	bra	u19237
  1678  0014B4                     u19235:
  1679  0014B4  968B               	bcf	139,3,c	;volatile
  1680  0014B6                     u19237:
  1681                           
  1682                           ;newmain.c: 794:                 LATCbits.LATC4 = rgb[16].g;
  1683  0014B6  0100               	movlb	0	; () banked
  1684  0014B8  A3C9               	btfss	(_rgb+16)& (0+255),1,b	;volatile
  1685  0014BA  D002               	bra	u19245
  1686  0014BC  888B               	bsf	139,4,c	;volatile
  1687  0014BE  D001               	bra	u19247
  1688  0014C0                     u19245:
  1689  0014C0  988B               	bcf	139,4,c	;volatile
  1690  0014C2                     u19247:
  1691                           
  1692                           ;newmain.c: 795:                 LATCbits.LATC5 = rgb[16].b;
  1693  0014C2  0100               	movlb	0	; () banked
  1694  0014C4  A5C9               	btfss	(_rgb+16)& (0+255),2,b	;volatile
  1695  0014C6  D002               	bra	u19255
  1696  0014C8  8A8B               	bsf	139,5,c	;volatile
  1697  0014CA  D001               	bra	u19257
  1698  0014CC                     u19255:
  1699  0014CC  9A8B               	bcf	139,5,c	;volatile
  1700  0014CE                     u19257:
  1701                           
  1702                           ;newmain.c: 796:                 LATBbits.LATB0 = rgb[0].r;
  1703  0014CE  0100               	movlb	0	; () banked
  1704  0014D0  A1B9               	btfss	_rgb& (0+255),0,b	;volatile
  1705  0014D2  D002               	bra	u19265
  1706  0014D4  808A               	bsf	138,0,c	;volatile
  1707  0014D6  D001               	bra	u19267
  1708  0014D8                     u19265:
  1709  0014D8  908A               	bcf	138,0,c	;volatile
  1710  0014DA                     u19267:
  1711                           
  1712                           ;newmain.c: 797:                 LATBbits.LATB1 = rgb[0].g;
  1713  0014DA  0100               	movlb	0	; () banked
  1714  0014DC  A3B9               	btfss	_rgb& (0+255),1,b	;volatile
  1715  0014DE  D002               	bra	u19275
  1716  0014E0  828A               	bsf	138,1,c	;volatile
  1717  0014E2  D001               	bra	u19277
  1718  0014E4                     u19275:
  1719  0014E4  928A               	bcf	138,1,c	;volatile
  1720  0014E6                     u19277:
  1721                           
  1722                           ;newmain.c: 798:                 LATBbits.LATB2 = rgb[0].b;
  1723  0014E6  0100               	movlb	0	; () banked
  1724  0014E8  A5B9               	btfss	_rgb& (0+255),2,b	;volatile
  1725  0014EA  D002               	bra	u19285
  1726  0014EC  848A               	bsf	138,2,c	;volatile
  1727  0014EE  D001               	bra	u19287
  1728  0014F0                     u19285:
  1729  0014F0  948A               	bcf	138,2,c	;volatile
  1730  0014F2                     u19287:
  1731                           
  1732                           ;newmain.c: 799:                 LATBbits.LATB3 = rgb[3].r;
  1733  0014F2  0100               	movlb	0	; () banked
  1734  0014F4  A1BC               	btfss	(_rgb+3)& (0+255),0,b	;volatile
  1735  0014F6  D002               	bra	u19295
  1736  0014F8  868A               	bsf	138,3,c	;volatile
  1737  0014FA  D001               	bra	u19297
  1738  0014FC                     u19295:
  1739  0014FC  968A               	bcf	138,3,c	;volatile
  1740  0014FE                     u19297:
  1741                           
  1742                           ;newmain.c: 800:                 LATBbits.LATB4 = rgb[3].g;
  1743  0014FE  0100               	movlb	0	; () banked
  1744  001500  A3BC               	btfss	(_rgb+3)& (0+255),1,b	;volatile
  1745  001502  D002               	bra	u19305
  1746  001504  888A               	bsf	138,4,c	;volatile
  1747  001506  D001               	bra	u19307
  1748  001508                     u19305:
  1749  001508  988A               	bcf	138,4,c	;volatile
  1750  00150A                     u19307:
  1751                           
  1752                           ;newmain.c: 801:                 LATBbits.LATB5 = rgb[3].b;
  1753  00150A  0100               	movlb	0	; () banked
  1754  00150C  A5BC               	btfss	(_rgb+3)& (0+255),2,b	;volatile
  1755  00150E  D002               	bra	u19315
  1756  001510  8A8A               	bsf	138,5,c	;volatile
  1757  001512  D001               	bra	u19317
  1758  001514                     u19315:
  1759  001514  9A8A               	bcf	138,5,c	;volatile
  1760  001516                     u19317:
  1761  001516  EFCA  F009         	goto	l3905
  1762  00151A                     l331:
  1763                           
  1764                           ; BSR set to: 1
  1765                           ;newmain.c: 807:                 LATCbits.LATC0 = rgb[21].r;
  1766  00151A  0100               	movlb	0	; () banked
  1767  00151C  A1CE               	btfss	(_rgb+21)& (0+255),0,b	;volatile
  1768  00151E  D002               	bra	u19325
  1769  001520  808B               	bsf	139,0,c	;volatile
  1770  001522  D001               	bra	u19327
  1771  001524                     u19325:
  1772  001524  908B               	bcf	139,0,c	;volatile
  1773  001526                     u19327:
  1774                           
  1775                           ;newmain.c: 808:                 LATCbits.LATC1 = rgb[21].g;
  1776  001526  0100               	movlb	0	; () banked
  1777  001528  A3CE               	btfss	(_rgb+21)& (0+255),1,b	;volatile
  1778  00152A  D002               	bra	u19335
  1779  00152C  828B               	bsf	139,1,c	;volatile
  1780  00152E  D001               	bra	u19337
  1781  001530                     u19335:
  1782  001530  928B               	bcf	139,1,c	;volatile
  1783  001532                     u19337:
  1784                           
  1785                           ;newmain.c: 809:                 LATCbits.LATC2 = rgb[21].b;
  1786  001532  0100               	movlb	0	; () banked
  1787  001534  A5CE               	btfss	(_rgb+21)& (0+255),2,b	;volatile
  1788  001536  D002               	bra	u19345
  1789  001538  848B               	bsf	139,2,c	;volatile
  1790  00153A  D001               	bra	u19347
  1791  00153C                     u19345:
  1792  00153C  948B               	bcf	139,2,c	;volatile
  1793  00153E                     u19347:
  1794                           
  1795                           ;newmain.c: 810:                 LATCbits.LATC3 = rgb[18].r;
  1796  00153E  0100               	movlb	0	; () banked
  1797  001540  A1CB               	btfss	(_rgb+18)& (0+255),0,b	;volatile
  1798  001542  D002               	bra	u19355
  1799  001544  868B               	bsf	139,3,c	;volatile
  1800  001546  D001               	bra	u19357
  1801  001548                     u19355:
  1802  001548  968B               	bcf	139,3,c	;volatile
  1803  00154A                     u19357:
  1804                           
  1805                           ;newmain.c: 811:                 LATCbits.LATC4 = rgb[18].g;
  1806  00154A  0100               	movlb	0	; () banked
  1807  00154C  A3CB               	btfss	(_rgb+18)& (0+255),1,b	;volatile
  1808  00154E  D002               	bra	u19365
  1809  001550  888B               	bsf	139,4,c	;volatile
  1810  001552  D001               	bra	u19367
  1811  001554                     u19365:
  1812  001554  988B               	bcf	139,4,c	;volatile
  1813  001556                     u19367:
  1814                           
  1815                           ;newmain.c: 812:                 LATCbits.LATC5 = rgb[18].b;
  1816  001556  0100               	movlb	0	; () banked
  1817  001558  A5CB               	btfss	(_rgb+18)& (0+255),2,b	;volatile
  1818  00155A  D002               	bra	u19375
  1819  00155C  8A8B               	bsf	139,5,c	;volatile
  1820  00155E  D001               	bra	u19377
  1821  001560                     u19375:
  1822  001560  9A8B               	bcf	139,5,c	;volatile
  1823  001562                     u19377:
  1824                           
  1825                           ;newmain.c: 813:                 LATBbits.LATB0 = rgb[8].r;
  1826  001562  0100               	movlb	0	; () banked
  1827  001564  A1C1               	btfss	(_rgb+8)& (0+255),0,b	;volatile
  1828  001566  D002               	bra	u19385
  1829  001568  808A               	bsf	138,0,c	;volatile
  1830  00156A  D001               	bra	u19387
  1831  00156C                     u19385:
  1832  00156C  908A               	bcf	138,0,c	;volatile
  1833  00156E                     u19387:
  1834                           
  1835                           ;newmain.c: 814:                 LATBbits.LATB1 = rgb[8].g;
  1836  00156E  0100               	movlb	0	; () banked
  1837  001570  A3C1               	btfss	(_rgb+8)& (0+255),1,b	;volatile
  1838  001572  D002               	bra	u19395
  1839  001574  828A               	bsf	138,1,c	;volatile
  1840  001576  D001               	bra	u19397
  1841  001578                     u19395:
  1842  001578  928A               	bcf	138,1,c	;volatile
  1843  00157A                     u19397:
  1844                           
  1845                           ;newmain.c: 815:                 LATBbits.LATB2 = rgb[8].b;
  1846  00157A  0100               	movlb	0	; () banked
  1847  00157C  A5C1               	btfss	(_rgb+8)& (0+255),2,b	;volatile
  1848  00157E  D002               	bra	u19405
  1849  001580  848A               	bsf	138,2,c	;volatile
  1850  001582  D001               	bra	u19407
  1851  001584                     u19405:
  1852  001584  948A               	bcf	138,2,c	;volatile
  1853  001586                     u19407:
  1854                           
  1855                           ;newmain.c: 816:                 LATBbits.LATB3 = rgb[11].r;
  1856  001586  0100               	movlb	0	; () banked
  1857  001588  A1C4               	btfss	(_rgb+11)& (0+255),0,b	;volatile
  1858  00158A  D002               	bra	u19415
  1859  00158C  868A               	bsf	138,3,c	;volatile
  1860  00158E  D001               	bra	u19417
  1861  001590                     u19415:
  1862  001590  968A               	bcf	138,3,c	;volatile
  1863  001592                     u19417:
  1864                           
  1865                           ;newmain.c: 817:                 LATBbits.LATB4 = rgb[11].g;
  1866  001592  0100               	movlb	0	; () banked
  1867  001594  A3C4               	btfss	(_rgb+11)& (0+255),1,b	;volatile
  1868  001596  D002               	bra	u19425
  1869  001598  888A               	bsf	138,4,c	;volatile
  1870  00159A  D001               	bra	u19427
  1871  00159C                     u19425:
  1872  00159C  988A               	bcf	138,4,c	;volatile
  1873  00159E                     u19427:
  1874                           
  1875                           ;newmain.c: 818:                 LATBbits.LATB5 = rgb[11].b;
  1876  00159E  0100               	movlb	0	; () banked
  1877  0015A0  A5C4               	btfss	(_rgb+11)& (0+255),2,b	;volatile
  1878  0015A2  D002               	bra	u19435
  1879  0015A4  8A8A               	bsf	138,5,c	;volatile
  1880  0015A6  D001               	bra	u19437
  1881  0015A8                     u19435:
  1882  0015A8  9A8A               	bcf	138,5,c	;volatile
  1883  0015AA                     u19437:
  1884  0015AA  EFCA  F009         	goto	l3905
  1885  0015AE                     l332:
  1886                           
  1887                           ; BSR set to: 1
  1888                           ;newmain.c: 824:                 LATCbits.LATC0 = rgb[22].r;
  1889  0015AE  0100               	movlb	0	; () banked
  1890  0015B0  A1CF               	btfss	(_rgb+22)& (0+255),0,b	;volatile
  1891  0015B2  D002               	bra	u19445
  1892  0015B4  808B               	bsf	139,0,c	;volatile
  1893  0015B6  D001               	bra	u19447
  1894  0015B8                     u19445:
  1895  0015B8  908B               	bcf	139,0,c	;volatile
  1896  0015BA                     u19447:
  1897                           
  1898                           ;newmain.c: 825:                 LATCbits.LATC1 = rgb[22].g;
  1899  0015BA  0100               	movlb	0	; () banked
  1900  0015BC  A3CF               	btfss	(_rgb+22)& (0+255),1,b	;volatile
  1901  0015BE  D002               	bra	u19455
  1902  0015C0  828B               	bsf	139,1,c	;volatile
  1903  0015C2  D001               	bra	u19457
  1904  0015C4                     u19455:
  1905  0015C4  928B               	bcf	139,1,c	;volatile
  1906  0015C6                     u19457:
  1907                           
  1908                           ;newmain.c: 826:                 LATCbits.LATC2 = rgb[22].b;
  1909  0015C6  0100               	movlb	0	; () banked
  1910  0015C8  A5CF               	btfss	(_rgb+22)& (0+255),2,b	;volatile
  1911  0015CA  D002               	bra	u19465
  1912  0015CC  848B               	bsf	139,2,c	;volatile
  1913  0015CE  D001               	bra	u19467
  1914  0015D0                     u19465:
  1915  0015D0  948B               	bcf	139,2,c	;volatile
  1916  0015D2                     u19467:
  1917                           
  1918                           ;newmain.c: 827:                 LATCbits.LATC3 = rgb[17].r;
  1919  0015D2  0100               	movlb	0	; () banked
  1920  0015D4  A1CA               	btfss	(_rgb+17)& (0+255),0,b	;volatile
  1921  0015D6  D002               	bra	u19475
  1922  0015D8  868B               	bsf	139,3,c	;volatile
  1923  0015DA  D001               	bra	u19477
  1924  0015DC                     u19475:
  1925  0015DC  968B               	bcf	139,3,c	;volatile
  1926  0015DE                     u19477:
  1927                           
  1928                           ;newmain.c: 828:                 LATCbits.LATC4 = rgb[17].g;
  1929  0015DE  0100               	movlb	0	; () banked
  1930  0015E0  A3CA               	btfss	(_rgb+17)& (0+255),1,b	;volatile
  1931  0015E2  D002               	bra	u19485
  1932  0015E4  888B               	bsf	139,4,c	;volatile
  1933  0015E6  D001               	bra	u19487
  1934  0015E8                     u19485:
  1935  0015E8  988B               	bcf	139,4,c	;volatile
  1936  0015EA                     u19487:
  1937                           
  1938                           ;newmain.c: 829:                 LATCbits.LATC5 = rgb[17].b;
  1939  0015EA  0100               	movlb	0	; () banked
  1940  0015EC  A5CA               	btfss	(_rgb+17)& (0+255),2,b	;volatile
  1941  0015EE  D002               	bra	u19495
  1942  0015F0  8A8B               	bsf	139,5,c	;volatile
  1943  0015F2  D001               	bra	u19497
  1944  0015F4                     u19495:
  1945  0015F4  9A8B               	bcf	139,5,c	;volatile
  1946  0015F6                     u19497:
  1947                           
  1948                           ;newmain.c: 830:                 LATBbits.LATB0 = rgb[9].r;
  1949  0015F6  0100               	movlb	0	; () banked
  1950  0015F8  A1C2               	btfss	(_rgb+9)& (0+255),0,b	;volatile
  1951  0015FA  D002               	bra	u19505
  1952  0015FC  808A               	bsf	138,0,c	;volatile
  1953  0015FE  D001               	bra	u19507
  1954  001600                     u19505:
  1955  001600  908A               	bcf	138,0,c	;volatile
  1956  001602                     u19507:
  1957                           
  1958                           ;newmain.c: 831:                 LATBbits.LATB1 = rgb[9].g;
  1959  001602  0100               	movlb	0	; () banked
  1960  001604  A3C2               	btfss	(_rgb+9)& (0+255),1,b	;volatile
  1961  001606  D002               	bra	u19515
  1962  001608  828A               	bsf	138,1,c	;volatile
  1963  00160A  D001               	bra	u19517
  1964  00160C                     u19515:
  1965  00160C  928A               	bcf	138,1,c	;volatile
  1966  00160E                     u19517:
  1967                           
  1968                           ;newmain.c: 832:                 LATBbits.LATB2 = rgb[9].b;
  1969  00160E  0100               	movlb	0	; () banked
  1970  001610  A5C2               	btfss	(_rgb+9)& (0+255),2,b	;volatile
  1971  001612  D002               	bra	u19525
  1972  001614  848A               	bsf	138,2,c	;volatile
  1973  001616  D001               	bra	u19527
  1974  001618                     u19525:
  1975  001618  948A               	bcf	138,2,c	;volatile
  1976  00161A                     u19527:
  1977                           
  1978                           ;newmain.c: 833:                 LATBbits.LATB3 = rgb[10].r;
  1979  00161A  0100               	movlb	0	; () banked
  1980  00161C  A1C3               	btfss	(_rgb+10)& (0+255),0,b	;volatile
  1981  00161E  D002               	bra	u19535
  1982  001620  868A               	bsf	138,3,c	;volatile
  1983  001622  D001               	bra	u19537
  1984  001624                     u19535:
  1985  001624  968A               	bcf	138,3,c	;volatile
  1986  001626                     u19537:
  1987                           
  1988                           ;newmain.c: 834:                 LATBbits.LATB4 = rgb[10].g;
  1989  001626  0100               	movlb	0	; () banked
  1990  001628  A3C3               	btfss	(_rgb+10)& (0+255),1,b	;volatile
  1991  00162A  D002               	bra	u19545
  1992  00162C  888A               	bsf	138,4,c	;volatile
  1993  00162E  D001               	bra	u19547
  1994  001630                     u19545:
  1995  001630  988A               	bcf	138,4,c	;volatile
  1996  001632                     u19547:
  1997                           
  1998                           ;newmain.c: 835:                 LATBbits.LATB5 = rgb[10].b;
  1999  001632  0100               	movlb	0	; () banked
  2000  001634  A5C3               	btfss	(_rgb+10)& (0+255),2,b	;volatile
  2001  001636  D002               	bra	u19555
  2002  001638  8A8A               	bsf	138,5,c	;volatile
  2003  00163A  D001               	bra	u19557
  2004  00163C                     u19555:
  2005  00163C  9A8A               	bcf	138,5,c	;volatile
  2006  00163E                     u19557:
  2007  00163E  EFCA  F009         	goto	l3905
  2008  001642                     l333:
  2009                           
  2010                           ; BSR set to: 1
  2011                           ;newmain.c: 841:                 LATBbits.LATB0 = rgb[13].r;
  2012  001642  0100               	movlb	0	; () banked
  2013  001644  A1C6               	btfss	(_rgb+13)& (0+255),0,b	;volatile
  2014  001646  D002               	bra	u19565
  2015  001648  808A               	bsf	138,0,c	;volatile
  2016  00164A  D001               	bra	u19567
  2017  00164C                     u19565:
  2018  00164C  908A               	bcf	138,0,c	;volatile
  2019  00164E                     u19567:
  2020                           
  2021                           ;newmain.c: 842:                 LATBbits.LATB1 = rgb[13].g;
  2022  00164E  0100               	movlb	0	; () banked
  2023  001650  A3C6               	btfss	(_rgb+13)& (0+255),1,b	;volatile
  2024  001652  D002               	bra	u19575
  2025  001654  828A               	bsf	138,1,c	;volatile
  2026  001656  D001               	bra	u19577
  2027  001658                     u19575:
  2028  001658  928A               	bcf	138,1,c	;volatile
  2029  00165A                     u19577:
  2030                           
  2031                           ;newmain.c: 843:                 LATBbits.LATB2 = rgb[13].b;
  2032  00165A  0100               	movlb	0	; () banked
  2033  00165C  A5C6               	btfss	(_rgb+13)& (0+255),2,b	;volatile
  2034  00165E  D002               	bra	u19585
  2035  001660  848A               	bsf	138,2,c	;volatile
  2036  001662  D001               	bra	u19587
  2037  001664                     u19585:
  2038  001664  948A               	bcf	138,2,c	;volatile
  2039  001666                     u19587:
  2040                           
  2041                           ;newmain.c: 844:                 LATBbits.LATB3 = rgb[14].r;
  2042  001666  0100               	movlb	0	; () banked
  2043  001668  A1C7               	btfss	(_rgb+14)& (0+255),0,b	;volatile
  2044  00166A  D002               	bra	u19595
  2045  00166C  868A               	bsf	138,3,c	;volatile
  2046  00166E  D001               	bra	u19597
  2047  001670                     u19595:
  2048  001670  968A               	bcf	138,3,c	;volatile
  2049  001672                     u19597:
  2050                           
  2051                           ;newmain.c: 845:                 LATBbits.LATB4 = rgb[14].g;
  2052  001672  0100               	movlb	0	; () banked
  2053  001674  A3C7               	btfss	(_rgb+14)& (0+255),1,b	;volatile
  2054  001676  D002               	bra	u19605
  2055  001678  888A               	bsf	138,4,c	;volatile
  2056  00167A  D001               	bra	u19607
  2057  00167C                     u19605:
  2058  00167C  988A               	bcf	138,4,c	;volatile
  2059  00167E                     u19607:
  2060                           
  2061                           ;newmain.c: 846:                 LATBbits.LATB5 = rgb[14].b;
  2062  00167E  0100               	movlb	0	; () banked
  2063  001680  A5C7               	btfss	(_rgb+14)& (0+255),2,b	;volatile
  2064  001682  D002               	bra	u19615
  2065  001684  8A8A               	bsf	138,5,c	;volatile
  2066  001686  D001               	bra	u19617
  2067  001688                     u19615:
  2068  001688  9A8A               	bcf	138,5,c	;volatile
  2069  00168A                     u19617:
  2070  00168A  EFCA  F009         	goto	l3905
  2071  00168E                     l334:
  2072                           
  2073                           ; BSR set to: 1
  2074                           ;newmain.c: 853:                 LATBbits.LATB0 = rgb[12].r;
  2075  00168E  0100               	movlb	0	; () banked
  2076  001690  A1C5               	btfss	(_rgb+12)& (0+255),0,b	;volatile
  2077  001692  D002               	bra	u19625
  2078  001694  808A               	bsf	138,0,c	;volatile
  2079  001696  D001               	bra	u19627
  2080  001698                     u19625:
  2081  001698  908A               	bcf	138,0,c	;volatile
  2082  00169A                     u19627:
  2083                           
  2084                           ;newmain.c: 854:                 LATBbits.LATB1 = rgb[12].g;
  2085  00169A  0100               	movlb	0	; () banked
  2086  00169C  A3C5               	btfss	(_rgb+12)& (0+255),1,b	;volatile
  2087  00169E  D002               	bra	u19635
  2088  0016A0  828A               	bsf	138,1,c	;volatile
  2089  0016A2  D001               	bra	u19637
  2090  0016A4                     u19635:
  2091  0016A4  928A               	bcf	138,1,c	;volatile
  2092  0016A6                     u19637:
  2093                           
  2094                           ;newmain.c: 855:                 LATBbits.LATB2 = rgb[12].b;
  2095  0016A6  0100               	movlb	0	; () banked
  2096  0016A8  A5C5               	btfss	(_rgb+12)& (0+255),2,b	;volatile
  2097  0016AA  D002               	bra	u19645
  2098  0016AC  848A               	bsf	138,2,c	;volatile
  2099  0016AE  D001               	bra	u19647
  2100  0016B0                     u19645:
  2101  0016B0  948A               	bcf	138,2,c	;volatile
  2102  0016B2                     u19647:
  2103                           
  2104                           ;newmain.c: 856:                 LATBbits.LATB3 = rgb[15].r;
  2105  0016B2  0100               	movlb	0	; () banked
  2106  0016B4  A1C8               	btfss	(_rgb+15)& (0+255),0,b	;volatile
  2107  0016B6  D002               	bra	u19655
  2108  0016B8  868A               	bsf	138,3,c	;volatile
  2109  0016BA  D001               	bra	u19657
  2110  0016BC                     u19655:
  2111  0016BC  968A               	bcf	138,3,c	;volatile
  2112  0016BE                     u19657:
  2113                           
  2114                           ;newmain.c: 857:                 LATBbits.LATB4 = rgb[15].g;
  2115  0016BE  0100               	movlb	0	; () banked
  2116  0016C0  A3C8               	btfss	(_rgb+15)& (0+255),1,b	;volatile
  2117  0016C2  D002               	bra	u19665
  2118  0016C4  888A               	bsf	138,4,c	;volatile
  2119  0016C6  D001               	bra	u19667
  2120  0016C8                     u19665:
  2121  0016C8  988A               	bcf	138,4,c	;volatile
  2122  0016CA                     u19667:
  2123                           
  2124                           ;newmain.c: 858:                 LATBbits.LATB5 = rgb[15].b;
  2125  0016CA  0100               	movlb	0	; () banked
  2126  0016CC  A5C8               	btfss	(_rgb+15)& (0+255),2,b	;volatile
  2127  0016CE  D002               	bra	u19675
  2128  0016D0  8A8A               	bsf	138,5,c	;volatile
  2129  0016D2  D001               	bra	u19677
  2130  0016D4                     u19675:
  2131  0016D4  9A8A               	bcf	138,5,c	;volatile
  2132  0016D6                     u19677:
  2133  0016D6                     
  2134                           ;newmain.c: 859:                 _delay((unsigned long)((100)*(35000000/4000000.0)));
  2135  0016D6  0EAF               	movlw	175
  2136  0016D8                     u19817:
  2137  0016D8  D000               	nop2	
  2138  0016DA  2EE8               	decfsz	wreg,f,c
  2139  0016DC  D7FD               	bra	u19817
  2140  0016DE  EFCF  F009         	goto	l3907
  2141  0016E2                     l3955:
  2142  0016E2  C192  F180         	movff	main@i,??_main
  2143  0016E6  C193  F181         	movff	main@i+1,??_main+1
  2144                           
  2145                           ; Switch on 2 bytes has been partitioned into a top level switch of size 1, and 1 sub-sw
      +                          itches
  2146                           ; Switch size 1, requested type "simple"
  2147                           ; Number of cases is 1, Range of values is 0 to 0
  2148                           ; switch strategies available:
  2149                           ; Name         Instructions Cycles
  2150                           ; simple_byte            4     3 (average)
  2151                           ;	Chosen strategy is simple_byte
  2152  0016EA  0101               	movlb	1	; () banked
  2153  0016EC  5181               	movf	(??_main+1)& (0+255),w,b
  2154  0016EE  0A00               	xorlw	0	; case 0
  2155  0016F0  B4D8               	btfsc	status,2,c
  2156  0016F2  EF7D  F00B         	goto	l4055
  2157  0016F6  EFA0  F00B         	goto	l3957
  2158  0016FA                     l4055:
  2159                           
  2160                           ; BSR set to: 1
  2161                           ; Switch size 1, requested type "simple"
  2162                           ; Number of cases is 8, Range of values is 0 to 7
  2163                           ; switch strategies available:
  2164                           ; Name         Instructions Cycles
  2165                           ; simple_byte           25    13 (average)
  2166                           ;	Chosen strategy is simple_byte
  2167  0016FA  5180               	movf	??_main& (0+255),w,b
  2168  0016FC  0A00               	xorlw	0	; case 0
  2169  0016FE  B4D8               	btfsc	status,2,c
  2170  001700  EFA6  F009         	goto	l326
  2171  001704  0A01               	xorlw	1	; case 1
  2172  001706  B4D8               	btfsc	status,2,c
  2173  001708  EFD3  F009         	goto	l328
  2174  00170C  0A03               	xorlw	3	; case 2
  2175  00170E  B4D8               	btfsc	status,2,c
  2176  001710  EFF9  F009         	goto	l329
  2177  001714  0A01               	xorlw	1	; case 3
  2178  001716  B4D8               	btfsc	status,2,c
  2179  001718  EF43  F00A         	goto	l330
  2180  00171C  0A07               	xorlw	7	; case 4
  2181  00171E  B4D8               	btfsc	status,2,c
  2182  001720  EF8D  F00A         	goto	l331
  2183  001724  0A01               	xorlw	1	; case 5
  2184  001726  B4D8               	btfsc	status,2,c
  2185  001728  EFD7  F00A         	goto	l332
  2186  00172C  0A03               	xorlw	3	; case 6
  2187  00172E  B4D8               	btfsc	status,2,c
  2188  001730  EF21  F00B         	goto	l333
  2189  001734  0A01               	xorlw	1	; case 7
  2190  001736  B4D8               	btfsc	status,2,c
  2191  001738  EF47  F00B         	goto	l334
  2192  00173C  EFA0  F00B         	goto	l3957
  2193  001740                     l3957:
  2194                           
  2195                           ;newmain.c: 864:         if(i < 8){
  2196  001740  0101               	movlb	1	; () banked
  2197  001742  BF93               	btfsc	(main@i+1)& (0+255),7,b
  2198  001744  EFAF  F00B         	goto	u19680
  2199  001748  5193               	movf	(main@i+1)& (0+255),w,b
  2200  00174A  E107               	bnz	u19681
  2201  00174C  0E08               	movlw	8
  2202  00174E  5D92               	subwf	main@i& (0+255),w,b
  2203  001750  B0D8               	btfsc	status,0,c
  2204  001752  EFAD  F00B         	goto	u19681
  2205  001756  EFAF  F00B         	goto	u19680
  2206  00175A                     u19681:
  2207  00175A  EFE6  F00B         	goto	l3977
  2208  00175E                     u19680:
  2209  00175E                     
  2210                           ; BSR set to: 1
  2211                           ;newmain.c: 866:             int temp = LATDbits.LATD7;
  2212  00175E  BE8C               	btfsc	140,7,c	;volatile
  2213  001760  EFB4  F00B         	goto	u19691
  2214  001764  EFB8  F00B         	goto	u19690
  2215  001768                     u19691:
  2216  001768  6B80               	clrf	??_main& (0+255),b
  2217  00176A  2B80               	incf	??_main& (0+255),f,b
  2218  00176C  EFBA  F00B         	goto	u19698
  2219  001770                     u19690:
  2220  001770  0101               	movlb	1	; () banked
  2221  001772  6B80               	clrf	??_main& (0+255),b
  2222  001774                     u19698:
  2223  001774  5180               	movf	??_main& (0+255),w,b
  2224  001776  6F82               	movwf	main@temp& (0+255),b
  2225  001778  6B83               	clrf	(main@temp+1)& (0+255),b
  2226  00177A                     
  2227                           ; BSR set to: 1
  2228                           ;newmain.c: 867:             LATDbits.LATD7 = LATDbits.LATD6;
  2229  00177A  AC8C               	btfss	140,6,c	;volatile
  2230  00177C  D002               	bra	u19705
  2231  00177E  8E8C               	bsf	140,7,c	;volatile
  2232  001780  D001               	bra	u19707
  2233  001782                     u19705:
  2234  001782  9E8C               	bcf	140,7,c	;volatile
  2235  001784                     u19707:
  2236  001784                     
  2237                           ;newmain.c: 868:             LATDbits.LATD6 = LATDbits.LATD5;
  2238  001784  AA8C               	btfss	140,5,c	;volatile
  2239  001786  D002               	bra	u19715
  2240  001788  8C8C               	bsf	140,6,c	;volatile
  2241  00178A  D001               	bra	u19717
  2242  00178C                     u19715:
  2243  00178C  9C8C               	bcf	140,6,c	;volatile
  2244  00178E                     u19717:
  2245  00178E                     
  2246                           ;newmain.c: 869:             LATDbits.LATD5 = LATDbits.LATD4;
  2247  00178E  A88C               	btfss	140,4,c	;volatile
  2248  001790  D002               	bra	u19725
  2249  001792  8A8C               	bsf	140,5,c	;volatile
  2250  001794  D001               	bra	u19727
  2251  001796                     u19725:
  2252  001796  9A8C               	bcf	140,5,c	;volatile
  2253  001798                     u19727:
  2254  001798                     
  2255                           ;newmain.c: 870:             LATDbits.LATD4 = LATDbits.LATD3;
  2256  001798  A68C               	btfss	140,3,c	;volatile
  2257  00179A  D002               	bra	u19735
  2258  00179C  888C               	bsf	140,4,c	;volatile
  2259  00179E  D001               	bra	u19737
  2260  0017A0                     u19735:
  2261  0017A0  988C               	bcf	140,4,c	;volatile
  2262  0017A2                     u19737:
  2263  0017A2                     
  2264                           ;newmain.c: 871:             LATDbits.LATD3 = LATDbits.LATD2;
  2265  0017A2  A48C               	btfss	140,2,c	;volatile
  2266  0017A4  D002               	bra	u19745
  2267  0017A6  868C               	bsf	140,3,c	;volatile
  2268  0017A8  D001               	bra	u19747
  2269  0017AA                     u19745:
  2270  0017AA  968C               	bcf	140,3,c	;volatile
  2271  0017AC                     u19747:
  2272  0017AC                     
  2273                           ;newmain.c: 872:             LATDbits.LATD2 = LATDbits.LATD1;
  2274  0017AC  A28C               	btfss	140,1,c	;volatile
  2275  0017AE  D002               	bra	u19755
  2276  0017B0  848C               	bsf	140,2,c	;volatile
  2277  0017B2  D001               	bra	u19757
  2278  0017B4                     u19755:
  2279  0017B4  948C               	bcf	140,2,c	;volatile
  2280  0017B6                     u19757:
  2281  0017B6                     
  2282                           ;newmain.c: 873:             LATDbits.LATD1 = LATDbits.LATD0;
  2283  0017B6  A08C               	btfss	140,0,c	;volatile
  2284  0017B8  D002               	bra	u19765
  2285  0017BA  828C               	bsf	140,1,c	;volatile
  2286  0017BC  D001               	bra	u19767
  2287  0017BE                     u19765:
  2288  0017BE  928C               	bcf	140,1,c	;volatile
  2289  0017C0                     u19767:
  2290  0017C0                     
  2291                           ;newmain.c: 874:             LATDbits.LATD0 = temp;
  2292  0017C0  0101               	movlb	1	; () banked
  2293  0017C2  B182               	btfsc	main@temp& (0+255),0,b
  2294  0017C4  D002               	bra	u19775
  2295  0017C6  908C               	bcf	140,0,c	;volatile
  2296  0017C8  D001               	bra	u19776
  2297  0017CA                     u19775:
  2298  0017CA  808C               	bsf	140,0,c	;volatile
  2299  0017CC                     u19776:
  2300  0017CC                     l3977:
  2301                           
  2302                           ;newmain.c: 877:         i++;
  2303  0017CC  0101               	movlb	1	; () banked
  2304  0017CE  4B92               	infsnz	main@i& (0+255),f,b
  2305  0017D0  2B93               	incf	(main@i+1)& (0+255),f,b
  2306  0017D2                     
  2307                           ; BSR set to: 1
  2308                           ;newmain.c: 878:         if(i == 8){
  2309  0017D2  0E08               	movlw	8
  2310  0017D4  1992               	xorwf	main@i& (0+255),w,b
  2311  0017D6  1193               	iorwf	(main@i+1)& (0+255),w,b
  2312  0017D8  A4D8               	btfss	status,2,c
  2313  0017DA  EFF1  F00B         	goto	u19781
  2314  0017DE  EFF3  F00B         	goto	u19780
  2315  0017E2                     u19781:
  2316  0017E2  EFF7  F00B         	goto	l3983
  2317  0017E6                     u19780:
  2318  0017E6                     
  2319                           ; BSR set to: 1
  2320                           ;newmain.c: 879:             i = 0;
  2321  0017E6  0E00               	movlw	0
  2322  0017E8  6F93               	movwf	(main@i+1)& (0+255),b
  2323  0017EA  0E00               	movlw	0
  2324  0017EC  6F92               	movwf	main@i& (0+255),b
  2325  0017EE                     l3983:
  2326                           
  2327                           ; BSR set to: 1
  2328                           ;newmain.c: 881:         turn++;
  2329  0017EE  4B94               	infsnz	main@turn& (0+255),f,b
  2330  0017F0  2B95               	incf	(main@turn+1)& (0+255),f,b
  2331  0017F2                     
  2332                           ; BSR set to: 1
  2333                           ;newmain.c: 882:         if(turn == 6) turn = 0;
  2334  0017F2  0E06               	movlw	6
  2335  0017F4  1994               	xorwf	main@turn& (0+255),w,b
  2336  0017F6  1195               	iorwf	(main@turn+1)& (0+255),w,b
  2337  0017F8  A4D8               	btfss	status,2,c
  2338  0017FA  EF01  F00C         	goto	u19791
  2339  0017FE  EF03  F00C         	goto	u19790
  2340  001802                     u19791:
  2341  001802  EF4D  F008         	goto	l3869
  2342  001806                     u19790:
  2343  001806  EF49  F008         	goto	l3867
  2344  00180A  EF07  F000         	goto	start
  2345  00180E                     __end_of_main:
  2346                           	opt callstack 0
  2347                           
  2348 ;; *************** function _rotate_top *****************
  2349 ;; Defined at:
  2350 ;;		line 424 in file "newmain.c"
  2351 ;; Parameters:    Size  Location     Type
  2352 ;;  val             2    8[BANK1 ] int 
  2353 ;; Auto vars:     Size  Location     Type
  2354 ;;  buf             2   13[BANK1 ] int 
  2355 ;;  buf             2   11[BANK1 ] int 
  2356 ;; Return value:  Size  Location     Type
  2357 ;;                  1    wreg      void 
  2358 ;; Registers used:
  2359 ;;		wreg, status,2, status,0, cstack
  2360 ;; Tracked objects:
  2361 ;;		On entry : 0/0
  2362 ;;		On exit  : 0/0
  2363 ;;		Unchanged: 0/0
  2364 ;; Data sizes:     COMRAM   BANK0   BANK1   BANK2   BANK3   BANK4   BANK5
  2365 ;;      Params:         0       0       2       0       0       0       0
  2366 ;;      Locals:         0       0       4       0       0       0       0
  2367 ;;      Temps:          0       0       1       0       0       0       0
  2368 ;;      Totals:         0       0       7       0       0       0       0
  2369 ;;Total ram usage:        7 bytes
  2370 ;; Hardware stack levels used:    1
  2371 ;; Hardware stack levels required when called:    8
  2372 ;; This function calls:
  2373 ;;		_rt
  2374 ;;		_rt_u
  2375 ;; This function is called by:
  2376 ;;		_main
  2377 ;; This function uses a non-reentrant model
  2378 ;;
  2379                           
  2380                           	psect	text1
  2381  0034E8                     __ptext1:
  2382                           	opt callstack 0
  2383  0034E8                     _rotate_top:
  2384                           	opt callstack 22
  2385  0034E8                     
  2386                           ;newmain.c: 426:     if(val > 3){
  2387  0034E8  0101               	movlb	1	; () banked
  2388  0034EA  BF5B               	btfsc	(rotate_top@val+1)& (0+255),7,b
  2389  0034EC  EF81  F01A         	goto	u18601
  2390  0034F0  515B               	movf	(rotate_top@val+1)& (0+255),w,b
  2391  0034F2  E109               	bnz	u18600
  2392  0034F4  0E04               	movlw	4
  2393  0034F6  5D5A               	subwf	rotate_top@val& (0+255),w,b
  2394  0034F8  A0D8               	btfss	status,0,c
  2395  0034FA  EF81  F01A         	goto	u18601
  2396  0034FE  EF83  F01A         	goto	u18600
  2397  003502                     u18601:
  2398  003502  EF87  F01A         	goto	l3599
  2399  003506                     u18600:
  2400  003506                     
  2401                           ; BSR set to: 1
  2402                           ;newmain.c: 427:         val = 3;
  2403  003506  0E00               	movlw	0
  2404  003508  6F5B               	movwf	(rotate_top@val+1)& (0+255),b
  2405  00350A  0E03               	movlw	3
  2406  00350C  6F5A               	movwf	rotate_top@val& (0+255),b
  2407  00350E                     l3599:
  2408                           
  2409                           ; BSR set to: 1
  2410                           ;newmain.c: 429:     if(val>original[0]){
  2411  00350E  515A               	movf	rotate_top@val& (0+255),w,b
  2412  003510  0100               	movlb	0	; () banked
  2413  003512  5DD1               	subwf	_original& (0+255),w,b	;volatile
  2414  003514  51D2               	movf	(_original+1)& (0+255),w,b	;volatile
  2415  003516  0A80               	xorlw	128
  2416  003518  0101               	movlb	1	; () banked
  2417  00351A  6F5C               	movwf	??_rotate_top& (0+255),b
  2418  00351C  515B               	movf	(rotate_top@val+1)& (0+255),w,b
  2419  00351E  0A80               	xorlw	128
  2420  003520  595C               	subwfb	??_rotate_top& (0+255),w,b
  2421  003522  B0D8               	btfsc	status,0,c
  2422  003524  EF96  F01A         	goto	u18611
  2423  003528  EF98  F01A         	goto	u18610
  2424  00352C                     u18611:
  2425  00352C  EFB9  F01A         	goto	l3609
  2426  003530                     u18610:
  2427  003530                     
  2428                           ; BSR set to: 1
  2429                           ;newmain.c: 430:         int buf = val-original[0];
  2430  003530  0100               	movlb	0	; () banked
  2431  003532  51D1               	movf	_original& (0+255),w,b	;volatile
  2432  003534  0101               	movlb	1	; () banked
  2433  003536  5D5A               	subwf	rotate_top@val& (0+255),w,b
  2434  003538  6F5D               	movwf	rotate_top@buf& (0+255),b
  2435  00353A  0100               	movlb	0	; () banked
  2436  00353C  51D2               	movf	(_original+1)& (0+255),w,b	;volatile
  2437  00353E  0101               	movlb	1	; () banked
  2438  003540  595B               	subwfb	(rotate_top@val+1)& (0+255),w,b
  2439  003542  6F5E               	movwf	(rotate_top@buf+1)& (0+255),b
  2440                           
  2441                           ;newmain.c: 431:         while(buf>0){
  2442  003544  EFAA  F01A         	goto	l3607
  2443  003548                     l3603:
  2444                           
  2445                           ; BSR set to: 1
  2446                           ;newmain.c: 432:             rt();
  2447  003548  ECD5  F012         	call	_rt	;wreg free
  2448  00354C                     
  2449                           ;newmain.c: 433:             buf--;
  2450  00354C  0101               	movlb	1	; () banked
  2451  00354E  075D               	decf	rotate_top@buf& (0+255),f,b
  2452  003550  A0D8               	btfss	status,0,c
  2453  003552  075E               	decf	(rotate_top@buf+1)& (0+255),f,b
  2454  003554                     l3607:
  2455                           
  2456                           ; BSR set to: 1
  2457                           ;newmain.c: 431:         while(buf>0){
  2458  003554  BF5E               	btfsc	(rotate_top@buf+1)& (0+255),7,b
  2459  003556  EFB7  F01A         	goto	u18620
  2460  00355A  515E               	movf	(rotate_top@buf+1)& (0+255),w,b
  2461  00355C  E106               	bnz	u18621
  2462  00355E  055D               	decf	rotate_top@buf& (0+255),w,b
  2463  003560  B0D8               	btfsc	status,0,c
  2464  003562  EFB5  F01A         	goto	u18621
  2465  003566  EFB7  F01A         	goto	u18620
  2466  00356A                     u18621:
  2467  00356A  EFA4  F01A         	goto	l3603
  2468  00356E                     u18620:
  2469  00356E  EFEB  F01A         	goto	l234
  2470  003572                     l3609:
  2471                           
  2472                           ; BSR set to: 1
  2473  003572  0100               	movlb	0	; () banked
  2474  003574  51D1               	movf	_original& (0+255),w,b	;volatile
  2475  003576  0101               	movlb	1	; () banked
  2476  003578  5D5A               	subwf	rotate_top@val& (0+255),w,b
  2477  00357A  515B               	movf	(rotate_top@val+1)& (0+255),w,b
  2478  00357C  0A80               	xorlw	128
  2479  00357E  6F5C               	movwf	??_rotate_top& (0+255),b
  2480  003580  0100               	movlb	0	; () banked
  2481  003582  51D2               	movf	(_original+1)& (0+255),w,b	;volatile
  2482  003584  0A80               	xorlw	128
  2483  003586  0101               	movlb	1	; () banked
  2484  003588  595C               	subwfb	??_rotate_top& (0+255),w,b
  2485  00358A  B0D8               	btfsc	status,0,c
  2486  00358C  EFCA  F01A         	goto	u18631
  2487  003590  EFCC  F01A         	goto	u18630
  2488  003594                     u18631:
  2489  003594  EFEB  F01A         	goto	l234
  2490  003598                     u18630:
  2491  003598                     
  2492                           ; BSR set to: 1
  2493                           ;newmain.c: 437:         int buf = original[0]-val;
  2494  003598  515A               	movf	rotate_top@val& (0+255),w,b
  2495  00359A  0100               	movlb	0	; () banked
  2496  00359C  5DD1               	subwf	_original& (0+255),w,b	;volatile
  2497  00359E  0101               	movlb	1	; () banked
  2498  0035A0  6F5F               	movwf	rotate_top@buf_1287& (0+255),b
  2499  0035A2  515B               	movf	(rotate_top@val+1)& (0+255),w,b
  2500  0035A4  0100               	movlb	0	; () banked
  2501  0035A6  59D2               	subwfb	(_original+1)& (0+255),w,b	;volatile
  2502  0035A8  0101               	movlb	1	; () banked
  2503  0035AA  6F60               	movwf	(rotate_top@buf_1287+1)& (0+255),b
  2504                           
  2505                           ;newmain.c: 438:         while(buf>0){
  2506  0035AC  EFDE  F01A         	goto	l3617
  2507  0035B0                     l3613:
  2508                           
  2509                           ; BSR set to: 1
  2510                           ;newmain.c: 439:             rt_u();
  2511  0035B0  EC29  F00D         	call	_rt_u	;wreg free
  2512  0035B4                     
  2513                           ;newmain.c: 440:             buf--;
  2514  0035B4  0101               	movlb	1	; () banked
  2515  0035B6  075F               	decf	rotate_top@buf_1287& (0+255),f,b
  2516  0035B8  A0D8               	btfss	status,0,c
  2517  0035BA  0760               	decf	(rotate_top@buf_1287+1)& (0+255),f,b
  2518  0035BC                     l3617:
  2519                           
  2520                           ; BSR set to: 1
  2521                           ;newmain.c: 438:         while(buf>0){
  2522  0035BC  BF60               	btfsc	(rotate_top@buf_1287+1)& (0+255),7,b
  2523  0035BE  EFEB  F01A         	goto	u18640
  2524  0035C2  5160               	movf	(rotate_top@buf_1287+1)& (0+255),w,b
  2525  0035C4  E106               	bnz	u18641
  2526  0035C6  055F               	decf	rotate_top@buf_1287& (0+255),w,b
  2527  0035C8  B0D8               	btfsc	status,0,c
  2528  0035CA  EFE9  F01A         	goto	u18641
  2529  0035CE  EFEB  F01A         	goto	u18640
  2530  0035D2                     u18641:
  2531  0035D2  EFD8  F01A         	goto	l3613
  2532  0035D6                     u18640:
  2533  0035D6                     l234:
  2534                           
  2535                           ; BSR set to: 1
  2536  0035D6  0012               	return		;funcret
  2537  0035D8                     __end_of_rotate_top:
  2538                           	opt callstack 0
  2539                           
  2540 ;; *************** function _rt_u *****************
  2541 ;; Defined at:
  2542 ;;		line 401 in file "newmain.c"
  2543 ;; Parameters:    Size  Location     Type
  2544 ;;		None
  2545 ;; Auto vars:     Size  Location     Type
  2546 ;;  tempa           1    2[BANK1 ] struct RGB
  2547 ;;  tempd           1    1[BANK1 ] struct RGB
  2548 ;;  tempc           1    0[BANK1 ] struct RGB
  2549 ;; Return value:  Size  Location     Type
  2550 ;;                  1    wreg      void 
  2551 ;; Registers used:
  2552 ;;		None
  2553 ;; Tracked objects:
  2554 ;;		On entry : 0/0
  2555 ;;		On exit  : 0/0
  2556 ;;		Unchanged: 0/0
  2557 ;; Data sizes:     COMRAM   BANK0   BANK1   BANK2   BANK3   BANK4   BANK5
  2558 ;;      Params:         0       0       0       0       0       0       0
  2559 ;;      Locals:         0       0       3       0       0       0       0
  2560 ;;      Temps:          0       0       0       0       0       0       0
  2561 ;;      Totals:         0       0       3       0       0       0       0
  2562 ;;Total ram usage:        3 bytes
  2563 ;; Hardware stack levels used:    1
  2564 ;; Hardware stack levels required when called:    7
  2565 ;; This function calls:
  2566 ;;		Nothing
  2567 ;; This function is called by:
  2568 ;;		_rotate_top
  2569 ;; This function uses a non-reentrant model
  2570 ;;
  2571                           
  2572                           	psect	text2
  2573  001A52                     __ptext2:
  2574                           	opt callstack 0
  2575  001A52                     _rt_u:
  2576                           	opt callstack 22
  2577  001A52                     
  2578                           ;newmain.c: 402:     rgbarray tempc = rgb[0];
  2579  001A52  C0B9  F152         	movff	_rgb,rt_u@tempc	;volatile
  2580                           
  2581                           ;newmain.c: 403:     rgbarray tempd = rgb[3];
  2582  001A56  C0BC  F153         	movff	_rgb+3,rt_u@tempd	;volatile
  2583                           
  2584                           ;newmain.c: 404:     rgb[0].r = rgb[23].r;rgb[3].r = rgb[22].r;
  2585  001A5A  0100               	movlb	0	; () banked
  2586  001A5C  A1D0               	btfss	(_rgb+23)& (0+255),0,b	;volatile
  2587  001A5E  D002               	bra	u15885
  2588  001A60  81B9               	bsf	_rgb& (0+255),0,b	;volatile
  2589  001A62  D002               	bra	u15887
  2590  001A64                     u15885:
  2591  001A64  0100               	movlb	0	; () banked
  2592  001A66  91B9               	bcf	_rgb& (0+255),0,b	;volatile
  2593  001A68                     u15887:
  2594  001A68  A1CF               	btfss	(_rgb+22)& (0+255),0,b	;volatile
  2595  001A6A  D002               	bra	u15895
  2596  001A6C  81BC               	bsf	(_rgb+3)& (0+255),0,b	;volatile
  2597  001A6E  D002               	bra	u15897
  2598  001A70                     u15895:
  2599  001A70  0100               	movlb	0	; () banked
  2600  001A72  91BC               	bcf	(_rgb+3)& (0+255),0,b	;volatile
  2601  001A74                     u15897:
  2602                           
  2603                           ;newmain.c: 405:     rgb[0].g = rgb[23].g;rgb[3].g = rgb[22].g;
  2604  001A74  A3D0               	btfss	(_rgb+23)& (0+255),1,b	;volatile
  2605  001A76  D002               	bra	u15905
  2606  001A78  83B9               	bsf	_rgb& (0+255),1,b	;volatile
  2607  001A7A  D002               	bra	u15907
  2608  001A7C                     u15905:
  2609  001A7C  0100               	movlb	0	; () banked
  2610  001A7E  93B9               	bcf	_rgb& (0+255),1,b	;volatile
  2611  001A80                     u15907:
  2612  001A80  A3CF               	btfss	(_rgb+22)& (0+255),1,b	;volatile
  2613  001A82  D002               	bra	u15915
  2614  001A84  83BC               	bsf	(_rgb+3)& (0+255),1,b	;volatile
  2615  001A86  D002               	bra	u15917
  2616  001A88                     u15915:
  2617  001A88  0100               	movlb	0	; () banked
  2618  001A8A  93BC               	bcf	(_rgb+3)& (0+255),1,b	;volatile
  2619  001A8C                     u15917:
  2620                           
  2621                           ;newmain.c: 406:     rgb[0].b = rgb[23].b;rgb[3].b = rgb[22].b;
  2622  001A8C  A5D0               	btfss	(_rgb+23)& (0+255),2,b	;volatile
  2623  001A8E  D002               	bra	u15925
  2624  001A90  85B9               	bsf	_rgb& (0+255),2,b	;volatile
  2625  001A92  D002               	bra	u15927
  2626  001A94                     u15925:
  2627  001A94  0100               	movlb	0	; () banked
  2628  001A96  95B9               	bcf	_rgb& (0+255),2,b	;volatile
  2629  001A98                     u15927:
  2630  001A98  A5CF               	btfss	(_rgb+22)& (0+255),2,b	;volatile
  2631  001A9A  D002               	bra	u15935
  2632  001A9C  85BC               	bsf	(_rgb+3)& (0+255),2,b	;volatile
  2633  001A9E  D002               	bra	u15937
  2634  001AA0                     u15935:
  2635  001AA0  0100               	movlb	0	; () banked
  2636  001AA2  95BC               	bcf	(_rgb+3)& (0+255),2,b	;volatile
  2637  001AA4                     u15937:
  2638                           
  2639                           ;newmain.c: 407:     rgb[23].r = rgb[10].r;rgb[22].r = rgb[9].r;
  2640  001AA4  A1C3               	btfss	(_rgb+10)& (0+255),0,b	;volatile
  2641  001AA6  D002               	bra	u15945
  2642  001AA8  81D0               	bsf	(_rgb+23)& (0+255),0,b	;volatile
  2643  001AAA  D002               	bra	u15947
  2644  001AAC                     u15945:
  2645  001AAC  0100               	movlb	0	; () banked
  2646  001AAE  91D0               	bcf	(_rgb+23)& (0+255),0,b	;volatile
  2647  001AB0                     u15947:
  2648  001AB0  A1C2               	btfss	(_rgb+9)& (0+255),0,b	;volatile
  2649  001AB2  D002               	bra	u15955
  2650  001AB4  81CF               	bsf	(_rgb+22)& (0+255),0,b	;volatile
  2651  001AB6  D002               	bra	u15957
  2652  001AB8                     u15955:
  2653  001AB8  0100               	movlb	0	; () banked
  2654  001ABA  91CF               	bcf	(_rgb+22)& (0+255),0,b	;volatile
  2655  001ABC                     u15957:
  2656                           
  2657                           ;newmain.c: 408:     rgb[23].g = rgb[10].g;rgb[22].g = rgb[9].g;
  2658  001ABC  A3C3               	btfss	(_rgb+10)& (0+255),1,b	;volatile
  2659  001ABE  D002               	bra	u15965
  2660  001AC0  83D0               	bsf	(_rgb+23)& (0+255),1,b	;volatile
  2661  001AC2  D002               	bra	u15967
  2662  001AC4                     u15965:
  2663  001AC4  0100               	movlb	0	; () banked
  2664  001AC6  93D0               	bcf	(_rgb+23)& (0+255),1,b	;volatile
  2665  001AC8                     u15967:
  2666  001AC8  A3C2               	btfss	(_rgb+9)& (0+255),1,b	;volatile
  2667  001ACA  D002               	bra	u15975
  2668  001ACC  83CF               	bsf	(_rgb+22)& (0+255),1,b	;volatile
  2669  001ACE  D002               	bra	u15977
  2670  001AD0                     u15975:
  2671  001AD0  0100               	movlb	0	; () banked
  2672  001AD2  93CF               	bcf	(_rgb+22)& (0+255),1,b	;volatile
  2673  001AD4                     u15977:
  2674                           
  2675                           ;newmain.c: 409:     rgb[23].b = rgb[10].b;rgb[22].b = rgb[9].b;
  2676  001AD4  A5C3               	btfss	(_rgb+10)& (0+255),2,b	;volatile
  2677  001AD6  D002               	bra	u15985
  2678  001AD8  85D0               	bsf	(_rgb+23)& (0+255),2,b	;volatile
  2679  001ADA  D002               	bra	u15987
  2680  001ADC                     u15985:
  2681  001ADC  0100               	movlb	0	; () banked
  2682  001ADE  95D0               	bcf	(_rgb+23)& (0+255),2,b	;volatile
  2683  001AE0                     u15987:
  2684  001AE0  A5C2               	btfss	(_rgb+9)& (0+255),2,b	;volatile
  2685  001AE2  D002               	bra	u15995
  2686  001AE4  85CF               	bsf	(_rgb+22)& (0+255),2,b	;volatile
  2687  001AE6  D002               	bra	u15997
  2688  001AE8                     u15995:
  2689  001AE8  0100               	movlb	0	; () banked
  2690  001AEA  95CF               	bcf	(_rgb+22)& (0+255),2,b	;volatile
  2691  001AEC                     u15997:
  2692                           
  2693                           ;newmain.c: 410:     rgb[10].r = rgb[17].r;rgb[9].r = rgb[16].r;
  2694  001AEC  A1CA               	btfss	(_rgb+17)& (0+255),0,b	;volatile
  2695  001AEE  D002               	bra	u16005
  2696  001AF0  81C3               	bsf	(_rgb+10)& (0+255),0,b	;volatile
  2697  001AF2  D002               	bra	u16007
  2698  001AF4                     u16005:
  2699  001AF4  0100               	movlb	0	; () banked
  2700  001AF6  91C3               	bcf	(_rgb+10)& (0+255),0,b	;volatile
  2701  001AF8                     u16007:
  2702  001AF8  A1C9               	btfss	(_rgb+16)& (0+255),0,b	;volatile
  2703  001AFA  D002               	bra	u16015
  2704  001AFC  81C2               	bsf	(_rgb+9)& (0+255),0,b	;volatile
  2705  001AFE  D002               	bra	u16017
  2706  001B00                     u16015:
  2707  001B00  0100               	movlb	0	; () banked
  2708  001B02  91C2               	bcf	(_rgb+9)& (0+255),0,b	;volatile
  2709  001B04                     u16017:
  2710                           
  2711                           ;newmain.c: 411:     rgb[10].g = rgb[17].g;rgb[9].g = rgb[16].g;
  2712  001B04  A3CA               	btfss	(_rgb+17)& (0+255),1,b	;volatile
  2713  001B06  D002               	bra	u16025
  2714  001B08  83C3               	bsf	(_rgb+10)& (0+255),1,b	;volatile
  2715  001B0A  D002               	bra	u16027
  2716  001B0C                     u16025:
  2717  001B0C  0100               	movlb	0	; () banked
  2718  001B0E  93C3               	bcf	(_rgb+10)& (0+255),1,b	;volatile
  2719  001B10                     u16027:
  2720  001B10  A3C9               	btfss	(_rgb+16)& (0+255),1,b	;volatile
  2721  001B12  D002               	bra	u16035
  2722  001B14  83C2               	bsf	(_rgb+9)& (0+255),1,b	;volatile
  2723  001B16  D002               	bra	u16037
  2724  001B18                     u16035:
  2725  001B18  0100               	movlb	0	; () banked
  2726  001B1A  93C2               	bcf	(_rgb+9)& (0+255),1,b	;volatile
  2727  001B1C                     u16037:
  2728                           
  2729                           ;newmain.c: 412:     rgb[10].b = rgb[17].b;rgb[9].b = rgb[16].b;
  2730  001B1C  A5CA               	btfss	(_rgb+17)& (0+255),2,b	;volatile
  2731  001B1E  D002               	bra	u16045
  2732  001B20  85C3               	bsf	(_rgb+10)& (0+255),2,b	;volatile
  2733  001B22  D002               	bra	u16047
  2734  001B24                     u16045:
  2735  001B24  0100               	movlb	0	; () banked
  2736  001B26  95C3               	bcf	(_rgb+10)& (0+255),2,b	;volatile
  2737  001B28                     u16047:
  2738  001B28  A5C9               	btfss	(_rgb+16)& (0+255),2,b	;volatile
  2739  001B2A  D002               	bra	u16055
  2740  001B2C  85C2               	bsf	(_rgb+9)& (0+255),2,b	;volatile
  2741  001B2E  D002               	bra	u16057
  2742  001B30                     u16055:
  2743  001B30  0100               	movlb	0	; () banked
  2744  001B32  95C2               	bcf	(_rgb+9)& (0+255),2,b	;volatile
  2745  001B34                     u16057:
  2746                           
  2747                           ;newmain.c: 413:     rgb[17].r = tempc.r;rgb[16].r = tempd.r;
  2748  001B34  0101               	movlb	1	; () banked
  2749  001B36  A152               	btfss	rt_u@tempc& (0+255),0,b
  2750  001B38  D003               	bra	u16065
  2751  001B3A  0100               	movlb	0	; () banked
  2752  001B3C  81CA               	bsf	(_rgb+17)& (0+255),0,b	;volatile
  2753  001B3E  D002               	bra	u16067
  2754  001B40                     u16065:
  2755  001B40  0100               	movlb	0	; () banked
  2756  001B42  91CA               	bcf	(_rgb+17)& (0+255),0,b	;volatile
  2757  001B44                     u16067:
  2758  001B44  0101               	movlb	1	; () banked
  2759  001B46  A153               	btfss	rt_u@tempd& (0+255),0,b
  2760  001B48  D003               	bra	u16075
  2761  001B4A  0100               	movlb	0	; () banked
  2762  001B4C  81C9               	bsf	(_rgb+16)& (0+255),0,b	;volatile
  2763  001B4E  D002               	bra	u16077
  2764  001B50                     u16075:
  2765  001B50  0100               	movlb	0	; () banked
  2766  001B52  91C9               	bcf	(_rgb+16)& (0+255),0,b	;volatile
  2767  001B54                     u16077:
  2768                           
  2769                           ;newmain.c: 414:     rgb[17].g = tempc.g;rgb[16].g = tempd.g;
  2770  001B54  0101               	movlb	1	; () banked
  2771  001B56  A352               	btfss	rt_u@tempc& (0+255),1,b
  2772  001B58  D003               	bra	u16085
  2773  001B5A  0100               	movlb	0	; () banked
  2774  001B5C  83CA               	bsf	(_rgb+17)& (0+255),1,b	;volatile
  2775  001B5E  D002               	bra	u16087
  2776  001B60                     u16085:
  2777  001B60  0100               	movlb	0	; () banked
  2778  001B62  93CA               	bcf	(_rgb+17)& (0+255),1,b	;volatile
  2779  001B64                     u16087:
  2780  001B64  0101               	movlb	1	; () banked
  2781  001B66  A353               	btfss	rt_u@tempd& (0+255),1,b
  2782  001B68  D003               	bra	u16095
  2783  001B6A  0100               	movlb	0	; () banked
  2784  001B6C  83C9               	bsf	(_rgb+16)& (0+255),1,b	;volatile
  2785  001B6E  D002               	bra	u16097
  2786  001B70                     u16095:
  2787  001B70  0100               	movlb	0	; () banked
  2788  001B72  93C9               	bcf	(_rgb+16)& (0+255),1,b	;volatile
  2789  001B74                     u16097:
  2790                           
  2791                           ;newmain.c: 415:     rgb[17].b = tempc.b;rgb[16].b = tempd.b;
  2792  001B74  0101               	movlb	1	; () banked
  2793  001B76  A552               	btfss	rt_u@tempc& (0+255),2,b
  2794  001B78  D003               	bra	u16105
  2795  001B7A  0100               	movlb	0	; () banked
  2796  001B7C  85CA               	bsf	(_rgb+17)& (0+255),2,b	;volatile
  2797  001B7E  D002               	bra	u16107
  2798  001B80                     u16105:
  2799  001B80  0100               	movlb	0	; () banked
  2800  001B82  95CA               	bcf	(_rgb+17)& (0+255),2,b	;volatile
  2801  001B84                     u16107:
  2802  001B84  0101               	movlb	1	; () banked
  2803  001B86  A553               	btfss	rt_u@tempd& (0+255),2,b
  2804  001B88  D003               	bra	u16115
  2805  001B8A  0100               	movlb	0	; () banked
  2806  001B8C  85C9               	bsf	(_rgb+16)& (0+255),2,b	;volatile
  2807  001B8E  D002               	bra	u16117
  2808  001B90                     u16115:
  2809  001B90  0100               	movlb	0	; () banked
  2810  001B92  95C9               	bcf	(_rgb+16)& (0+255),2,b	;volatile
  2811  001B94                     u16117:
  2812                           
  2813                           ;newmain.c: 416:     rgbarray tempa = rgb[13];
  2814  001B94  C0C6  F154         	movff	_rgb+13,rt_u@tempa	;volatile
  2815                           
  2816                           ;newmain.c: 417:     rgb[13].r = rgb[14].r;rgb[14].r = rgb[15].r;
  2817  001B98  A1C7               	btfss	(_rgb+14)& (0+255),0,b	;volatile
  2818  001B9A  D002               	bra	u16125
  2819  001B9C  81C6               	bsf	(_rgb+13)& (0+255),0,b	;volatile
  2820  001B9E  D002               	bra	u16127
  2821  001BA0                     u16125:
  2822  001BA0  0100               	movlb	0	; () banked
  2823  001BA2  91C6               	bcf	(_rgb+13)& (0+255),0,b	;volatile
  2824  001BA4                     u16127:
  2825  001BA4  A1C8               	btfss	(_rgb+15)& (0+255),0,b	;volatile
  2826  001BA6  D002               	bra	u16135
  2827  001BA8  81C7               	bsf	(_rgb+14)& (0+255),0,b	;volatile
  2828  001BAA  D002               	bra	u16137
  2829  001BAC                     u16135:
  2830  001BAC  0100               	movlb	0	; () banked
  2831  001BAE  91C7               	bcf	(_rgb+14)& (0+255),0,b	;volatile
  2832  001BB0                     u16137:
  2833                           
  2834                           ;newmain.c: 418:     rgb[13].g = rgb[14].g;rgb[14].g = rgb[15].g;
  2835  001BB0  A3C7               	btfss	(_rgb+14)& (0+255),1,b	;volatile
  2836  001BB2  D002               	bra	u16145
  2837  001BB4  83C6               	bsf	(_rgb+13)& (0+255),1,b	;volatile
  2838  001BB6  D002               	bra	u16147
  2839  001BB8                     u16145:
  2840  001BB8  0100               	movlb	0	; () banked
  2841  001BBA  93C6               	bcf	(_rgb+13)& (0+255),1,b	;volatile
  2842  001BBC                     u16147:
  2843  001BBC  A3C8               	btfss	(_rgb+15)& (0+255),1,b	;volatile
  2844  001BBE  D002               	bra	u16155
  2845  001BC0  83C7               	bsf	(_rgb+14)& (0+255),1,b	;volatile
  2846  001BC2  D002               	bra	u16157
  2847  001BC4                     u16155:
  2848  001BC4  0100               	movlb	0	; () banked
  2849  001BC6  93C7               	bcf	(_rgb+14)& (0+255),1,b	;volatile
  2850  001BC8                     u16157:
  2851                           
  2852                           ;newmain.c: 419:     rgb[13].b = rgb[14].b;rgb[14].b = rgb[15].b;
  2853  001BC8  A5C7               	btfss	(_rgb+14)& (0+255),2,b	;volatile
  2854  001BCA  D002               	bra	u16165
  2855  001BCC  85C6               	bsf	(_rgb+13)& (0+255),2,b	;volatile
  2856  001BCE  D002               	bra	u16167
  2857  001BD0                     u16165:
  2858  001BD0  0100               	movlb	0	; () banked
  2859  001BD2  95C6               	bcf	(_rgb+13)& (0+255),2,b	;volatile
  2860  001BD4                     u16167:
  2861  001BD4  A5C8               	btfss	(_rgb+15)& (0+255),2,b	;volatile
  2862  001BD6  D002               	bra	u16175
  2863  001BD8  85C7               	bsf	(_rgb+14)& (0+255),2,b	;volatile
  2864  001BDA  D002               	bra	u16177
  2865  001BDC                     u16175:
  2866  001BDC  0100               	movlb	0	; () banked
  2867  001BDE  95C7               	bcf	(_rgb+14)& (0+255),2,b	;volatile
  2868  001BE0                     u16177:
  2869                           
  2870                           ;newmain.c: 420:     rgb[15].r = rgb[12].r;rgb[12].r = tempa.r;
  2871  001BE0  A1C5               	btfss	(_rgb+12)& (0+255),0,b	;volatile
  2872  001BE2  D002               	bra	u16185
  2873  001BE4  81C8               	bsf	(_rgb+15)& (0+255),0,b	;volatile
  2874  001BE6  D002               	bra	u16187
  2875  001BE8                     u16185:
  2876  001BE8  0100               	movlb	0	; () banked
  2877  001BEA  91C8               	bcf	(_rgb+15)& (0+255),0,b	;volatile
  2878  001BEC                     u16187:
  2879  001BEC  0101               	movlb	1	; () banked
  2880  001BEE  A154               	btfss	rt_u@tempa& (0+255),0,b
  2881  001BF0  D003               	bra	u16195
  2882  001BF2  0100               	movlb	0	; () banked
  2883  001BF4  81C5               	bsf	(_rgb+12)& (0+255),0,b	;volatile
  2884  001BF6  D002               	bra	u16197
  2885  001BF8                     u16195:
  2886  001BF8  0100               	movlb	0	; () banked
  2887  001BFA  91C5               	bcf	(_rgb+12)& (0+255),0,b	;volatile
  2888  001BFC                     u16197:
  2889                           
  2890                           ;newmain.c: 421:     rgb[15].g = rgb[12].g;rgb[12].g = tempa.g;
  2891  001BFC  A3C5               	btfss	(_rgb+12)& (0+255),1,b	;volatile
  2892  001BFE  D002               	bra	u16205
  2893  001C00  83C8               	bsf	(_rgb+15)& (0+255),1,b	;volatile
  2894  001C02  D002               	bra	u16207
  2895  001C04                     u16205:
  2896  001C04  0100               	movlb	0	; () banked
  2897  001C06  93C8               	bcf	(_rgb+15)& (0+255),1,b	;volatile
  2898  001C08                     u16207:
  2899  001C08  0101               	movlb	1	; () banked
  2900  001C0A  A354               	btfss	rt_u@tempa& (0+255),1,b
  2901  001C0C  D003               	bra	u16215
  2902  001C0E  0100               	movlb	0	; () banked
  2903  001C10  83C5               	bsf	(_rgb+12)& (0+255),1,b	;volatile
  2904  001C12  D002               	bra	u16217
  2905  001C14                     u16215:
  2906  001C14  0100               	movlb	0	; () banked
  2907  001C16  93C5               	bcf	(_rgb+12)& (0+255),1,b	;volatile
  2908  001C18                     u16217:
  2909                           
  2910                           ;newmain.c: 422:     rgb[15].b = rgb[12].b;rgb[12].b = tempa.b;
  2911  001C18  A5C5               	btfss	(_rgb+12)& (0+255),2,b	;volatile
  2912  001C1A  D002               	bra	u16225
  2913  001C1C  85C8               	bsf	(_rgb+15)& (0+255),2,b	;volatile
  2914  001C1E  D002               	bra	u16227
  2915  001C20                     u16225:
  2916  001C20  0100               	movlb	0	; () banked
  2917  001C22  95C8               	bcf	(_rgb+15)& (0+255),2,b	;volatile
  2918  001C24                     u16227:
  2919  001C24  0101               	movlb	1	; () banked
  2920  001C26  A554               	btfss	rt_u@tempa& (0+255),2,b
  2921  001C28  D003               	bra	u16235
  2922  001C2A  0100               	movlb	0	; () banked
  2923  001C2C  85C5               	bsf	(_rgb+12)& (0+255),2,b	;volatile
  2924  001C2E  D002               	bra	u16237
  2925  001C30                     u16235:
  2926  001C30  0100               	movlb	0	; () banked
  2927  001C32  95C5               	bcf	(_rgb+12)& (0+255),2,b	;volatile
  2928  001C34                     u16237:
  2929  001C34                     
  2930                           ; BSR set to: 0
  2931  001C34  0012               	return		;funcret
  2932  001C36                     __end_of_rt_u:
  2933                           	opt callstack 0
  2934                           
  2935 ;; *************** function _rotate_sidetop *****************
  2936 ;; Defined at:
  2937 ;;		line 557 in file "newmain.c"
  2938 ;; Parameters:    Size  Location     Type
  2939 ;;  val             2    8[BANK1 ] int 
  2940 ;; Auto vars:     Size  Location     Type
  2941 ;;  buf             2   13[BANK1 ] int 
  2942 ;;  buf             2   11[BANK1 ] int 
  2943 ;; Return value:  Size  Location     Type
  2944 ;;                  1    wreg      void 
  2945 ;; Registers used:
  2946 ;;		wreg, status,2, status,0, cstack
  2947 ;; Tracked objects:
  2948 ;;		On entry : 0/0
  2949 ;;		On exit  : 0/0
  2950 ;;		Unchanged: 0/0
  2951 ;; Data sizes:     COMRAM   BANK0   BANK1   BANK2   BANK3   BANK4   BANK5
  2952 ;;      Params:         0       0       2       0       0       0       0
  2953 ;;      Locals:         0       0       4       0       0       0       0
  2954 ;;      Temps:          0       0       1       0       0       0       0
  2955 ;;      Totals:         0       0       7       0       0       0       0
  2956 ;;Total ram usage:        7 bytes
  2957 ;; Hardware stack levels used:    1
  2958 ;; Hardware stack levels required when called:    8
  2959 ;; This function calls:
  2960 ;;		_rst
  2961 ;;		_rst_u
  2962 ;; This function is called by:
  2963 ;;		_main
  2964 ;; This function uses a non-reentrant model
  2965 ;;
  2966                           
  2967                           	psect	text3
  2968  0035D8                     __ptext3:
  2969                           	opt callstack 0
  2970  0035D8                     _rotate_sidetop:
  2971                           	opt callstack 22
  2972  0035D8                     
  2973                           ;newmain.c: 559:     if(val > 3){
  2974  0035D8  0101               	movlb	1	; () banked
  2975  0035DA  BF5B               	btfsc	(rotate_sidetop@val+1)& (0+255),7,b
  2976  0035DC  EFF9  F01A         	goto	u18701
  2977  0035E0  515B               	movf	(rotate_sidetop@val+1)& (0+255),w,b
  2978  0035E2  E109               	bnz	u18700
  2979  0035E4  0E04               	movlw	4
  2980  0035E6  5D5A               	subwf	rotate_sidetop@val& (0+255),w,b
  2981  0035E8  A0D8               	btfss	status,0,c
  2982  0035EA  EFF9  F01A         	goto	u18701
  2983  0035EE  EFFB  F01A         	goto	u18700
  2984  0035F2                     u18701:
  2985  0035F2  EFFF  F01A         	goto	l3647
  2986  0035F6                     u18700:
  2987  0035F6                     
  2988                           ; BSR set to: 1
  2989                           ;newmain.c: 560:         val = 3;
  2990  0035F6  0E00               	movlw	0
  2991  0035F8  6F5B               	movwf	(rotate_sidetop@val+1)& (0+255),b
  2992  0035FA  0E03               	movlw	3
  2993  0035FC  6F5A               	movwf	rotate_sidetop@val& (0+255),b
  2994  0035FE                     l3647:
  2995                           
  2996                           ; BSR set to: 1
  2997                           ;newmain.c: 562:     if(val>original[4]){
  2998  0035FE  515A               	movf	rotate_sidetop@val& (0+255),w,b
  2999  003600  0100               	movlb	0	; () banked
  3000  003602  5DD9               	subwf	(_original+8)& (0+255),w,b	;volatile
  3001  003604  51DA               	movf	(_original+9)& (0+255),w,b	;volatile
  3002  003606  0A80               	xorlw	128
  3003  003608  0101               	movlb	1	; () banked
  3004  00360A  6F5C               	movwf	??_rotate_sidetop& (0+255),b
  3005  00360C  515B               	movf	(rotate_sidetop@val+1)& (0+255),w,b
  3006  00360E  0A80               	xorlw	128
  3007  003610  595C               	subwfb	??_rotate_sidetop& (0+255),w,b
  3008  003612  B0D8               	btfsc	status,0,c
  3009  003614  EF0E  F01B         	goto	u18711
  3010  003618  EF10  F01B         	goto	u18710
  3011  00361C                     u18711:
  3012  00361C  EF31  F01B         	goto	l3657
  3013  003620                     u18710:
  3014  003620                     
  3015                           ; BSR set to: 1
  3016                           ;newmain.c: 563:         int buf = val-original[4];
  3017  003620  0100               	movlb	0	; () banked
  3018  003622  51D9               	movf	(_original+8)& (0+255),w,b	;volatile
  3019  003624  0101               	movlb	1	; () banked
  3020  003626  5D5A               	subwf	rotate_sidetop@val& (0+255),w,b
  3021  003628  6F5D               	movwf	rotate_sidetop@buf& (0+255),b
  3022  00362A  0100               	movlb	0	; () banked
  3023  00362C  51DA               	movf	(_original+9)& (0+255),w,b	;volatile
  3024  00362E  0101               	movlb	1	; () banked
  3025  003630  595B               	subwfb	(rotate_sidetop@val+1)& (0+255),w,b
  3026  003632  6F5E               	movwf	(rotate_sidetop@buf+1)& (0+255),b
  3027                           
  3028                           ;newmain.c: 564:         while(buf>0){
  3029  003634  EF22  F01B         	goto	l3655
  3030  003638                     l3651:
  3031                           
  3032                           ; BSR set to: 1
  3033                           ;newmain.c: 565:             rst();
  3034  003638  ECC7  F013         	call	_rst	;wreg free
  3035  00363C                     
  3036                           ;newmain.c: 566:             buf--;
  3037  00363C  0101               	movlb	1	; () banked
  3038  00363E  075D               	decf	rotate_sidetop@buf& (0+255),f,b
  3039  003640  A0D8               	btfss	status,0,c
  3040  003642  075E               	decf	(rotate_sidetop@buf+1)& (0+255),f,b
  3041  003644                     l3655:
  3042                           
  3043                           ; BSR set to: 1
  3044                           ;newmain.c: 564:         while(buf>0){
  3045  003644  BF5E               	btfsc	(rotate_sidetop@buf+1)& (0+255),7,b
  3046  003646  EF2F  F01B         	goto	u18720
  3047  00364A  515E               	movf	(rotate_sidetop@buf+1)& (0+255),w,b
  3048  00364C  E106               	bnz	u18721
  3049  00364E  055D               	decf	rotate_sidetop@buf& (0+255),w,b
  3050  003650  B0D8               	btfsc	status,0,c
  3051  003652  EF2D  F01B         	goto	u18721
  3052  003656  EF2F  F01B         	goto	u18720
  3053  00365A                     u18721:
  3054  00365A  EF1C  F01B         	goto	l3651
  3055  00365E                     u18720:
  3056  00365E  EF63  F01B         	goto	l272
  3057  003662                     l3657:
  3058                           
  3059                           ; BSR set to: 1
  3060  003662  0100               	movlb	0	; () banked
  3061  003664  51D9               	movf	(_original+8)& (0+255),w,b	;volatile
  3062  003666  0101               	movlb	1	; () banked
  3063  003668  5D5A               	subwf	rotate_sidetop@val& (0+255),w,b
  3064  00366A  515B               	movf	(rotate_sidetop@val+1)& (0+255),w,b
  3065  00366C  0A80               	xorlw	128
  3066  00366E  6F5C               	movwf	??_rotate_sidetop& (0+255),b
  3067  003670  0100               	movlb	0	; () banked
  3068  003672  51DA               	movf	(_original+9)& (0+255),w,b	;volatile
  3069  003674  0A80               	xorlw	128
  3070  003676  0101               	movlb	1	; () banked
  3071  003678  595C               	subwfb	??_rotate_sidetop& (0+255),w,b
  3072  00367A  B0D8               	btfsc	status,0,c
  3073  00367C  EF42  F01B         	goto	u18731
  3074  003680  EF44  F01B         	goto	u18730
  3075  003684                     u18731:
  3076  003684  EF63  F01B         	goto	l272
  3077  003688                     u18730:
  3078  003688                     
  3079                           ; BSR set to: 1
  3080                           ;newmain.c: 570:         int buf = original[4]-val;
  3081  003688  515A               	movf	rotate_sidetop@val& (0+255),w,b
  3082  00368A  0100               	movlb	0	; () banked
  3083  00368C  5DD9               	subwf	(_original+8)& (0+255),w,b	;volatile
  3084  00368E  0101               	movlb	1	; () banked
  3085  003690  6F5F               	movwf	rotate_sidetop@buf_1531& (0+255),b
  3086  003692  515B               	movf	(rotate_sidetop@val+1)& (0+255),w,b
  3087  003694  0100               	movlb	0	; () banked
  3088  003696  59DA               	subwfb	(_original+9)& (0+255),w,b	;volatile
  3089  003698  0101               	movlb	1	; () banked
  3090  00369A  6F60               	movwf	(rotate_sidetop@buf_1531+1)& (0+255),b
  3091                           
  3092                           ;newmain.c: 571:         while(buf>0){
  3093  00369C  EF56  F01B         	goto	l3665
  3094  0036A0                     l3661:
  3095                           
  3096                           ; BSR set to: 1
  3097                           ;newmain.c: 572:             rst_u();
  3098  0036A0  EC1B  F00E         	call	_rst_u	;wreg free
  3099  0036A4                     
  3100                           ;newmain.c: 573:             buf--;
  3101  0036A4  0101               	movlb	1	; () banked
  3102  0036A6  075F               	decf	rotate_sidetop@buf_1531& (0+255),f,b
  3103  0036A8  A0D8               	btfss	status,0,c
  3104  0036AA  0760               	decf	(rotate_sidetop@buf_1531+1)& (0+255),f,b
  3105  0036AC                     l3665:
  3106                           
  3107                           ; BSR set to: 1
  3108                           ;newmain.c: 571:         while(buf>0){
  3109  0036AC  BF60               	btfsc	(rotate_sidetop@buf_1531+1)& (0+255),7,b
  3110  0036AE  EF63  F01B         	goto	u18740
  3111  0036B2  5160               	movf	(rotate_sidetop@buf_1531+1)& (0+255),w,b
  3112  0036B4  E106               	bnz	u18741
  3113  0036B6  055F               	decf	rotate_sidetop@buf_1531& (0+255),w,b
  3114  0036B8  B0D8               	btfsc	status,0,c
  3115  0036BA  EF61  F01B         	goto	u18741
  3116  0036BE  EF63  F01B         	goto	u18740
  3117  0036C2                     u18741:
  3118  0036C2  EF50  F01B         	goto	l3661
  3119  0036C6                     u18740:
  3120  0036C6                     l272:
  3121                           
  3122                           ; BSR set to: 1
  3123  0036C6  0012               	return		;funcret
  3124  0036C8                     __end_of_rotate_sidetop:
  3125                           	opt callstack 0
  3126                           
  3127 ;; *************** function _rst_u *****************
  3128 ;; Defined at:
  3129 ;;		line 534 in file "newmain.c"
  3130 ;; Parameters:    Size  Location     Type
  3131 ;;		None
  3132 ;; Auto vars:     Size  Location     Type
  3133 ;;  tempa           1    2[BANK1 ] struct RGB
  3134 ;;  tempd           1    1[BANK1 ] struct RGB
  3135 ;;  tempc           1    0[BANK1 ] struct RGB
  3136 ;; Return value:  Size  Location     Type
  3137 ;;                  1    wreg      void 
  3138 ;; Registers used:
  3139 ;;		None
  3140 ;; Tracked objects:
  3141 ;;		On entry : 0/0
  3142 ;;		On exit  : 0/0
  3143 ;;		Unchanged: 0/0
  3144 ;; Data sizes:     COMRAM   BANK0   BANK1   BANK2   BANK3   BANK4   BANK5
  3145 ;;      Params:         0       0       0       0       0       0       0
  3146 ;;      Locals:         0       0       3       0       0       0       0
  3147 ;;      Temps:          0       0       0       0       0       0       0
  3148 ;;      Totals:         0       0       3       0       0       0       0
  3149 ;;Total ram usage:        3 bytes
  3150 ;; Hardware stack levels used:    1
  3151 ;; Hardware stack levels required when called:    7
  3152 ;; This function calls:
  3153 ;;		Nothing
  3154 ;; This function is called by:
  3155 ;;		_rotate_sidetop
  3156 ;; This function uses a non-reentrant model
  3157 ;;
  3158                           
  3159                           	psect	text4
  3160  001C36                     __ptext4:
  3161                           	opt callstack 0
  3162  001C36                     _rst_u:
  3163                           	opt callstack 22
  3164  001C36                     
  3165                           ;newmain.c: 535:     rgbarray tempc = rgb[4];
  3166  001C36  C0BD  F152         	movff	_rgb+4,rst_u@tempc	;volatile
  3167                           
  3168                           ;newmain.c: 536:     rgbarray tempd = rgb[7];
  3169  001C3A  C0C0  F153         	movff	_rgb+7,rst_u@tempd	;volatile
  3170                           
  3171                           ;newmain.c: 537:     rgb[4].r = rgb[20].r;rgb[7].r = rgb[23].r;
  3172  001C3E  0100               	movlb	0	; () banked
  3173  001C40  A1CD               	btfss	(_rgb+20)& (0+255),0,b	;volatile
  3174  001C42  D002               	bra	u17325
  3175  001C44  81BD               	bsf	(_rgb+4)& (0+255),0,b	;volatile
  3176  001C46  D002               	bra	u17327
  3177  001C48                     u17325:
  3178  001C48  0100               	movlb	0	; () banked
  3179  001C4A  91BD               	bcf	(_rgb+4)& (0+255),0,b	;volatile
  3180  001C4C                     u17327:
  3181  001C4C  A1D0               	btfss	(_rgb+23)& (0+255),0,b	;volatile
  3182  001C4E  D002               	bra	u17335
  3183  001C50  81C0               	bsf	(_rgb+7)& (0+255),0,b	;volatile
  3184  001C52  D002               	bra	u17337
  3185  001C54                     u17335:
  3186  001C54  0100               	movlb	0	; () banked
  3187  001C56  91C0               	bcf	(_rgb+7)& (0+255),0,b	;volatile
  3188  001C58                     u17337:
  3189                           
  3190                           ;newmain.c: 538:     rgb[4].g = rgb[20].g;rgb[7].g = rgb[23].g;
  3191  001C58  A3CD               	btfss	(_rgb+20)& (0+255),1,b	;volatile
  3192  001C5A  D002               	bra	u17345
  3193  001C5C  83BD               	bsf	(_rgb+4)& (0+255),1,b	;volatile
  3194  001C5E  D002               	bra	u17347
  3195  001C60                     u17345:
  3196  001C60  0100               	movlb	0	; () banked
  3197  001C62  93BD               	bcf	(_rgb+4)& (0+255),1,b	;volatile
  3198  001C64                     u17347:
  3199  001C64  A3D0               	btfss	(_rgb+23)& (0+255),1,b	;volatile
  3200  001C66  D002               	bra	u17355
  3201  001C68  83C0               	bsf	(_rgb+7)& (0+255),1,b	;volatile
  3202  001C6A  D002               	bra	u17357
  3203  001C6C                     u17355:
  3204  001C6C  0100               	movlb	0	; () banked
  3205  001C6E  93C0               	bcf	(_rgb+7)& (0+255),1,b	;volatile
  3206  001C70                     u17357:
  3207                           
  3208                           ;newmain.c: 539:     rgb[4].b = rgb[20].b;rgb[7].b = rgb[23].b;
  3209  001C70  A5CD               	btfss	(_rgb+20)& (0+255),2,b	;volatile
  3210  001C72  D002               	bra	u17365
  3211  001C74  85BD               	bsf	(_rgb+4)& (0+255),2,b	;volatile
  3212  001C76  D002               	bra	u17367
  3213  001C78                     u17365:
  3214  001C78  0100               	movlb	0	; () banked
  3215  001C7A  95BD               	bcf	(_rgb+4)& (0+255),2,b	;volatile
  3216  001C7C                     u17367:
  3217  001C7C  A5D0               	btfss	(_rgb+23)& (0+255),2,b	;volatile
  3218  001C7E  D002               	bra	u17375
  3219  001C80  85C0               	bsf	(_rgb+7)& (0+255),2,b	;volatile
  3220  001C82  D002               	bra	u17377
  3221  001C84                     u17375:
  3222  001C84  0100               	movlb	0	; () banked
  3223  001C86  95C0               	bcf	(_rgb+7)& (0+255),2,b	;volatile
  3224  001C88                     u17377:
  3225                           
  3226                           ;newmain.c: 540:     rgb[20].r = rgb[14].r;rgb[23].r = rgb[13].r;
  3227  001C88  A1C7               	btfss	(_rgb+14)& (0+255),0,b	;volatile
  3228  001C8A  D002               	bra	u17385
  3229  001C8C  81CD               	bsf	(_rgb+20)& (0+255),0,b	;volatile
  3230  001C8E  D002               	bra	u17387
  3231  001C90                     u17385:
  3232  001C90  0100               	movlb	0	; () banked
  3233  001C92  91CD               	bcf	(_rgb+20)& (0+255),0,b	;volatile
  3234  001C94                     u17387:
  3235  001C94  A1C6               	btfss	(_rgb+13)& (0+255),0,b	;volatile
  3236  001C96  D002               	bra	u17395
  3237  001C98  81D0               	bsf	(_rgb+23)& (0+255),0,b	;volatile
  3238  001C9A  D002               	bra	u17397
  3239  001C9C                     u17395:
  3240  001C9C  0100               	movlb	0	; () banked
  3241  001C9E  91D0               	bcf	(_rgb+23)& (0+255),0,b	;volatile
  3242  001CA0                     u17397:
  3243                           
  3244                           ;newmain.c: 541:     rgb[20].g = rgb[14].g;rgb[23].g = rgb[13].g;
  3245  001CA0  A3C7               	btfss	(_rgb+14)& (0+255),1,b	;volatile
  3246  001CA2  D002               	bra	u17405
  3247  001CA4  83CD               	bsf	(_rgb+20)& (0+255),1,b	;volatile
  3248  001CA6  D002               	bra	u17407
  3249  001CA8                     u17405:
  3250  001CA8  0100               	movlb	0	; () banked
  3251  001CAA  93CD               	bcf	(_rgb+20)& (0+255),1,b	;volatile
  3252  001CAC                     u17407:
  3253  001CAC  A3C6               	btfss	(_rgb+13)& (0+255),1,b	;volatile
  3254  001CAE  D002               	bra	u17415
  3255  001CB0  83D0               	bsf	(_rgb+23)& (0+255),1,b	;volatile
  3256  001CB2  D002               	bra	u17417
  3257  001CB4                     u17415:
  3258  001CB4  0100               	movlb	0	; () banked
  3259  001CB6  93D0               	bcf	(_rgb+23)& (0+255),1,b	;volatile
  3260  001CB8                     u17417:
  3261                           
  3262                           ;newmain.c: 542:     rgb[20].b = rgb[14].b;rgb[23].b = rgb[13].b;
  3263  001CB8  A5C7               	btfss	(_rgb+14)& (0+255),2,b	;volatile
  3264  001CBA  D002               	bra	u17425
  3265  001CBC  85CD               	bsf	(_rgb+20)& (0+255),2,b	;volatile
  3266  001CBE  D002               	bra	u17427
  3267  001CC0                     u17425:
  3268  001CC0  0100               	movlb	0	; () banked
  3269  001CC2  95CD               	bcf	(_rgb+20)& (0+255),2,b	;volatile
  3270  001CC4                     u17427:
  3271  001CC4  A5C6               	btfss	(_rgb+13)& (0+255),2,b	;volatile
  3272  001CC6  D002               	bra	u17435
  3273  001CC8  85D0               	bsf	(_rgb+23)& (0+255),2,b	;volatile
  3274  001CCA  D002               	bra	u17437
  3275  001CCC                     u17435:
  3276  001CCC  0100               	movlb	0	; () banked
  3277  001CCE  95D0               	bcf	(_rgb+23)& (0+255),2,b	;volatile
  3278  001CD0                     u17437:
  3279                           
  3280                           ;newmain.c: 543:     rgb[14].r = rgb[16].r;rgb[13].r = rgb[19].r;
  3281  001CD0  A1C9               	btfss	(_rgb+16)& (0+255),0,b	;volatile
  3282  001CD2  D002               	bra	u17445
  3283  001CD4  81C7               	bsf	(_rgb+14)& (0+255),0,b	;volatile
  3284  001CD6  D002               	bra	u17447
  3285  001CD8                     u17445:
  3286  001CD8  0100               	movlb	0	; () banked
  3287  001CDA  91C7               	bcf	(_rgb+14)& (0+255),0,b	;volatile
  3288  001CDC                     u17447:
  3289  001CDC  A1CC               	btfss	(_rgb+19)& (0+255),0,b	;volatile
  3290  001CDE  D002               	bra	u17455
  3291  001CE0  81C6               	bsf	(_rgb+13)& (0+255),0,b	;volatile
  3292  001CE2  D002               	bra	u17457
  3293  001CE4                     u17455:
  3294  001CE4  0100               	movlb	0	; () banked
  3295  001CE6  91C6               	bcf	(_rgb+13)& (0+255),0,b	;volatile
  3296  001CE8                     u17457:
  3297                           
  3298                           ;newmain.c: 544:     rgb[14].g = rgb[16].g;rgb[13].g = rgb[19].g;
  3299  001CE8  A3C9               	btfss	(_rgb+16)& (0+255),1,b	;volatile
  3300  001CEA  D002               	bra	u17465
  3301  001CEC  83C7               	bsf	(_rgb+14)& (0+255),1,b	;volatile
  3302  001CEE  D002               	bra	u17467
  3303  001CF0                     u17465:
  3304  001CF0  0100               	movlb	0	; () banked
  3305  001CF2  93C7               	bcf	(_rgb+14)& (0+255),1,b	;volatile
  3306  001CF4                     u17467:
  3307  001CF4  A3CC               	btfss	(_rgb+19)& (0+255),1,b	;volatile
  3308  001CF6  D002               	bra	u17475
  3309  001CF8  83C6               	bsf	(_rgb+13)& (0+255),1,b	;volatile
  3310  001CFA  D002               	bra	u17477
  3311  001CFC                     u17475:
  3312  001CFC  0100               	movlb	0	; () banked
  3313  001CFE  93C6               	bcf	(_rgb+13)& (0+255),1,b	;volatile
  3314  001D00                     u17477:
  3315                           
  3316                           ;newmain.c: 545:     rgb[14].b = rgb[16].b;rgb[13].b = rgb[19].b;
  3317  001D00  A5C9               	btfss	(_rgb+16)& (0+255),2,b	;volatile
  3318  001D02  D002               	bra	u17485
  3319  001D04  85C7               	bsf	(_rgb+14)& (0+255),2,b	;volatile
  3320  001D06  D002               	bra	u17487
  3321  001D08                     u17485:
  3322  001D08  0100               	movlb	0	; () banked
  3323  001D0A  95C7               	bcf	(_rgb+14)& (0+255),2,b	;volatile
  3324  001D0C                     u17487:
  3325  001D0C  A5CC               	btfss	(_rgb+19)& (0+255),2,b	;volatile
  3326  001D0E  D002               	bra	u17495
  3327  001D10  85C6               	bsf	(_rgb+13)& (0+255),2,b	;volatile
  3328  001D12  D002               	bra	u17497
  3329  001D14                     u17495:
  3330  001D14  0100               	movlb	0	; () banked
  3331  001D16  95C6               	bcf	(_rgb+13)& (0+255),2,b	;volatile
  3332  001D18                     u17497:
  3333                           
  3334                           ;newmain.c: 546:     rgb[16].r = tempc.r;rgb[19].r = tempd.r;
  3335  001D18  0101               	movlb	1	; () banked
  3336  001D1A  A152               	btfss	rst_u@tempc& (0+255),0,b
  3337  001D1C  D003               	bra	u17505
  3338  001D1E  0100               	movlb	0	; () banked
  3339  001D20  81C9               	bsf	(_rgb+16)& (0+255),0,b	;volatile
  3340  001D22  D002               	bra	u17507
  3341  001D24                     u17505:
  3342  001D24  0100               	movlb	0	; () banked
  3343  001D26  91C9               	bcf	(_rgb+16)& (0+255),0,b	;volatile
  3344  001D28                     u17507:
  3345  001D28  0101               	movlb	1	; () banked
  3346  001D2A  A153               	btfss	rst_u@tempd& (0+255),0,b
  3347  001D2C  D003               	bra	u17515
  3348  001D2E  0100               	movlb	0	; () banked
  3349  001D30  81CC               	bsf	(_rgb+19)& (0+255),0,b	;volatile
  3350  001D32  D002               	bra	u17517
  3351  001D34                     u17515:
  3352  001D34  0100               	movlb	0	; () banked
  3353  001D36  91CC               	bcf	(_rgb+19)& (0+255),0,b	;volatile
  3354  001D38                     u17517:
  3355                           
  3356                           ;newmain.c: 547:     rgb[16].g = tempc.g;rgb[19].g = tempd.g;
  3357  001D38  0101               	movlb	1	; () banked
  3358  001D3A  A352               	btfss	rst_u@tempc& (0+255),1,b
  3359  001D3C  D003               	bra	u17525
  3360  001D3E  0100               	movlb	0	; () banked
  3361  001D40  83C9               	bsf	(_rgb+16)& (0+255),1,b	;volatile
  3362  001D42  D002               	bra	u17527
  3363  001D44                     u17525:
  3364  001D44  0100               	movlb	0	; () banked
  3365  001D46  93C9               	bcf	(_rgb+16)& (0+255),1,b	;volatile
  3366  001D48                     u17527:
  3367  001D48  0101               	movlb	1	; () banked
  3368  001D4A  A353               	btfss	rst_u@tempd& (0+255),1,b
  3369  001D4C  D003               	bra	u17535
  3370  001D4E  0100               	movlb	0	; () banked
  3371  001D50  83CC               	bsf	(_rgb+19)& (0+255),1,b	;volatile
  3372  001D52  D002               	bra	u17537
  3373  001D54                     u17535:
  3374  001D54  0100               	movlb	0	; () banked
  3375  001D56  93CC               	bcf	(_rgb+19)& (0+255),1,b	;volatile
  3376  001D58                     u17537:
  3377                           
  3378                           ;newmain.c: 548:     rgb[16].b = tempc.b;rgb[19].b = tempd.b;
  3379  001D58  0101               	movlb	1	; () banked
  3380  001D5A  A552               	btfss	rst_u@tempc& (0+255),2,b
  3381  001D5C  D003               	bra	u17545
  3382  001D5E  0100               	movlb	0	; () banked
  3383  001D60  85C9               	bsf	(_rgb+16)& (0+255),2,b	;volatile
  3384  001D62  D002               	bra	u17547
  3385  001D64                     u17545:
  3386  001D64  0100               	movlb	0	; () banked
  3387  001D66  95C9               	bcf	(_rgb+16)& (0+255),2,b	;volatile
  3388  001D68                     u17547:
  3389  001D68  0101               	movlb	1	; () banked
  3390  001D6A  A553               	btfss	rst_u@tempd& (0+255),2,b
  3391  001D6C  D003               	bra	u17555
  3392  001D6E  0100               	movlb	0	; () banked
  3393  001D70  85CC               	bsf	(_rgb+19)& (0+255),2,b	;volatile
  3394  001D72  D002               	bra	u17557
  3395  001D74                     u17555:
  3396  001D74  0100               	movlb	0	; () banked
  3397  001D76  95CC               	bcf	(_rgb+19)& (0+255),2,b	;volatile
  3398  001D78                     u17557:
  3399                           
  3400                           ;newmain.c: 549:     rgbarray tempa = rgb[1];
  3401  001D78  C0BA  F154         	movff	_rgb+1,rst_u@tempa	;volatile
  3402                           
  3403                           ;newmain.c: 550:     rgb[1].r = rgb[2].r;rgb[2].r = rgb[3].r;
  3404  001D7C  A1BB               	btfss	(_rgb+2)& (0+255),0,b	;volatile
  3405  001D7E  D002               	bra	u17565
  3406  001D80  81BA               	bsf	(_rgb+1)& (0+255),0,b	;volatile
  3407  001D82  D002               	bra	u17567
  3408  001D84                     u17565:
  3409  001D84  0100               	movlb	0	; () banked
  3410  001D86  91BA               	bcf	(_rgb+1)& (0+255),0,b	;volatile
  3411  001D88                     u17567:
  3412  001D88  A1BC               	btfss	(_rgb+3)& (0+255),0,b	;volatile
  3413  001D8A  D002               	bra	u17575
  3414  001D8C  81BB               	bsf	(_rgb+2)& (0+255),0,b	;volatile
  3415  001D8E  D002               	bra	u17577
  3416  001D90                     u17575:
  3417  001D90  0100               	movlb	0	; () banked
  3418  001D92  91BB               	bcf	(_rgb+2)& (0+255),0,b	;volatile
  3419  001D94                     u17577:
  3420                           
  3421                           ;newmain.c: 551:     rgb[1].g = rgb[2].g;rgb[2].g = rgb[3].g;
  3422  001D94  A3BB               	btfss	(_rgb+2)& (0+255),1,b	;volatile
  3423  001D96  D002               	bra	u17585
  3424  001D98  83BA               	bsf	(_rgb+1)& (0+255),1,b	;volatile
  3425  001D9A  D002               	bra	u17587
  3426  001D9C                     u17585:
  3427  001D9C  0100               	movlb	0	; () banked
  3428  001D9E  93BA               	bcf	(_rgb+1)& (0+255),1,b	;volatile
  3429  001DA0                     u17587:
  3430  001DA0  A3BC               	btfss	(_rgb+3)& (0+255),1,b	;volatile
  3431  001DA2  D002               	bra	u17595
  3432  001DA4  83BB               	bsf	(_rgb+2)& (0+255),1,b	;volatile
  3433  001DA6  D002               	bra	u17597
  3434  001DA8                     u17595:
  3435  001DA8  0100               	movlb	0	; () banked
  3436  001DAA  93BB               	bcf	(_rgb+2)& (0+255),1,b	;volatile
  3437  001DAC                     u17597:
  3438                           
  3439                           ;newmain.c: 552:     rgb[1].b = rgb[2].b;rgb[2].b = rgb[3].b;
  3440  001DAC  A5BB               	btfss	(_rgb+2)& (0+255),2,b	;volatile
  3441  001DAE  D002               	bra	u17605
  3442  001DB0  85BA               	bsf	(_rgb+1)& (0+255),2,b	;volatile
  3443  001DB2  D002               	bra	u17607
  3444  001DB4                     u17605:
  3445  001DB4  0100               	movlb	0	; () banked
  3446  001DB6  95BA               	bcf	(_rgb+1)& (0+255),2,b	;volatile
  3447  001DB8                     u17607:
  3448  001DB8  A5BC               	btfss	(_rgb+3)& (0+255),2,b	;volatile
  3449  001DBA  D002               	bra	u17615
  3450  001DBC  85BB               	bsf	(_rgb+2)& (0+255),2,b	;volatile
  3451  001DBE  D002               	bra	u17617
  3452  001DC0                     u17615:
  3453  001DC0  0100               	movlb	0	; () banked
  3454  001DC2  95BB               	bcf	(_rgb+2)& (0+255),2,b	;volatile
  3455  001DC4                     u17617:
  3456                           
  3457                           ;newmain.c: 553:     rgb[3].r = rgb[0].r;rgb[0].r = tempa.r;
  3458  001DC4  A1B9               	btfss	_rgb& (0+255),0,b	;volatile
  3459  001DC6  D002               	bra	u17625
  3460  001DC8  81BC               	bsf	(_rgb+3)& (0+255),0,b	;volatile
  3461  001DCA  D002               	bra	u17627
  3462  001DCC                     u17625:
  3463  001DCC  0100               	movlb	0	; () banked
  3464  001DCE  91BC               	bcf	(_rgb+3)& (0+255),0,b	;volatile
  3465  001DD0                     u17627:
  3466  001DD0  0101               	movlb	1	; () banked
  3467  001DD2  A154               	btfss	rst_u@tempa& (0+255),0,b
  3468  001DD4  D003               	bra	u17635
  3469  001DD6  0100               	movlb	0	; () banked
  3470  001DD8  81B9               	bsf	_rgb& (0+255),0,b	;volatile
  3471  001DDA  D002               	bra	u17637
  3472  001DDC                     u17635:
  3473  001DDC  0100               	movlb	0	; () banked
  3474  001DDE  91B9               	bcf	_rgb& (0+255),0,b	;volatile
  3475  001DE0                     u17637:
  3476                           
  3477                           ;newmain.c: 554:     rgb[3].g = rgb[0].g;rgb[0].g = tempa.g;
  3478  001DE0  A3B9               	btfss	_rgb& (0+255),1,b	;volatile
  3479  001DE2  D002               	bra	u17645
  3480  001DE4  83BC               	bsf	(_rgb+3)& (0+255),1,b	;volatile
  3481  001DE6  D002               	bra	u17647
  3482  001DE8                     u17645:
  3483  001DE8  0100               	movlb	0	; () banked
  3484  001DEA  93BC               	bcf	(_rgb+3)& (0+255),1,b	;volatile
  3485  001DEC                     u17647:
  3486  001DEC  0101               	movlb	1	; () banked
  3487  001DEE  A354               	btfss	rst_u@tempa& (0+255),1,b
  3488  001DF0  D003               	bra	u17655
  3489  001DF2  0100               	movlb	0	; () banked
  3490  001DF4  83B9               	bsf	_rgb& (0+255),1,b	;volatile
  3491  001DF6  D002               	bra	u17657
  3492  001DF8                     u17655:
  3493  001DF8  0100               	movlb	0	; () banked
  3494  001DFA  93B9               	bcf	_rgb& (0+255),1,b	;volatile
  3495  001DFC                     u17657:
  3496                           
  3497                           ;newmain.c: 555:     rgb[3].b = rgb[0].b;rgb[0].b = tempa.b;
  3498  001DFC  A5B9               	btfss	_rgb& (0+255),2,b	;volatile
  3499  001DFE  D002               	bra	u17665
  3500  001E00  85BC               	bsf	(_rgb+3)& (0+255),2,b	;volatile
  3501  001E02  D002               	bra	u17667
  3502  001E04                     u17665:
  3503  001E04  0100               	movlb	0	; () banked
  3504  001E06  95BC               	bcf	(_rgb+3)& (0+255),2,b	;volatile
  3505  001E08                     u17667:
  3506  001E08  0101               	movlb	1	; () banked
  3507  001E0A  A554               	btfss	rst_u@tempa& (0+255),2,b
  3508  001E0C  D003               	bra	u17675
  3509  001E0E  0100               	movlb	0	; () banked
  3510  001E10  85B9               	bsf	_rgb& (0+255),2,b	;volatile
  3511  001E12  D002               	bra	u17677
  3512  001E14                     u17675:
  3513  001E14  0100               	movlb	0	; () banked
  3514  001E16  95B9               	bcf	_rgb& (0+255),2,b	;volatile
  3515  001E18                     u17677:
  3516  001E18                     
  3517                           ; BSR set to: 0
  3518  001E18  0012               	return		;funcret
  3519  001E1A                     __end_of_rst_u:
  3520                           	opt callstack 0
  3521                           
  3522 ;; *************** function _rotate_sidebot *****************
  3523 ;; Defined at:
  3524 ;;		line 623 in file "newmain.c"
  3525 ;; Parameters:    Size  Location     Type
  3526 ;;  val             2    8[BANK1 ] int 
  3527 ;; Auto vars:     Size  Location     Type
  3528 ;;  buf             2   13[BANK1 ] int 
  3529 ;;  buf             2   11[BANK1 ] int 
  3530 ;; Return value:  Size  Location     Type
  3531 ;;                  1    wreg      void 
  3532 ;; Registers used:
  3533 ;;		wreg, status,2, status,0, cstack
  3534 ;; Tracked objects:
  3535 ;;		On entry : 0/0
  3536 ;;		On exit  : 0/0
  3537 ;;		Unchanged: 0/0
  3538 ;; Data sizes:     COMRAM   BANK0   BANK1   BANK2   BANK3   BANK4   BANK5
  3539 ;;      Params:         0       0       2       0       0       0       0
  3540 ;;      Locals:         0       0       4       0       0       0       0
  3541 ;;      Temps:          0       0       1       0       0       0       0
  3542 ;;      Totals:         0       0       7       0       0       0       0
  3543 ;;Total ram usage:        7 bytes
  3544 ;; Hardware stack levels used:    1
  3545 ;; Hardware stack levels required when called:    8
  3546 ;; This function calls:
  3547 ;;		_rsb
  3548 ;;		_rsb_u
  3549 ;; This function is called by:
  3550 ;;		_main
  3551 ;; This function uses a non-reentrant model
  3552 ;;
  3553                           
  3554                           	psect	text5
  3555  0036C8                     __ptext5:
  3556                           	opt callstack 0
  3557  0036C8                     _rotate_sidebot:
  3558                           	opt callstack 22
  3559  0036C8                     
  3560                           ;newmain.c: 625:     if(val > 3){
  3561  0036C8  0101               	movlb	1	; () banked
  3562  0036CA  BF5B               	btfsc	(rotate_sidebot@val+1)& (0+255),7,b
  3563  0036CC  EF71  F01B         	goto	u18751
  3564  0036D0  515B               	movf	(rotate_sidebot@val+1)& (0+255),w,b
  3565  0036D2  E109               	bnz	u18750
  3566  0036D4  0E04               	movlw	4
  3567  0036D6  5D5A               	subwf	rotate_sidebot@val& (0+255),w,b
  3568  0036D8  A0D8               	btfss	status,0,c
  3569  0036DA  EF71  F01B         	goto	u18751
  3570  0036DE  EF73  F01B         	goto	u18750
  3571  0036E2                     u18751:
  3572  0036E2  EF77  F01B         	goto	l3671
  3573  0036E6                     u18750:
  3574  0036E6                     
  3575                           ; BSR set to: 1
  3576                           ;newmain.c: 626:         val = 3;
  3577  0036E6  0E00               	movlw	0
  3578  0036E8  6F5B               	movwf	(rotate_sidebot@val+1)& (0+255),b
  3579  0036EA  0E03               	movlw	3
  3580  0036EC  6F5A               	movwf	rotate_sidebot@val& (0+255),b
  3581  0036EE                     l3671:
  3582                           
  3583                           ; BSR set to: 1
  3584                           ;newmain.c: 628:     if(val>original[5]){
  3585  0036EE  515A               	movf	rotate_sidebot@val& (0+255),w,b
  3586  0036F0  0100               	movlb	0	; () banked
  3587  0036F2  5DDB               	subwf	(_original+10)& (0+255),w,b	;volatile
  3588  0036F4  51DC               	movf	(_original+11)& (0+255),w,b	;volatile
  3589  0036F6  0A80               	xorlw	128
  3590  0036F8  0101               	movlb	1	; () banked
  3591  0036FA  6F5C               	movwf	??_rotate_sidebot& (0+255),b
  3592  0036FC  515B               	movf	(rotate_sidebot@val+1)& (0+255),w,b
  3593  0036FE  0A80               	xorlw	128
  3594  003700  595C               	subwfb	??_rotate_sidebot& (0+255),w,b
  3595  003702  B0D8               	btfsc	status,0,c
  3596  003704  EF86  F01B         	goto	u18761
  3597  003708  EF88  F01B         	goto	u18760
  3598  00370C                     u18761:
  3599  00370C  EFA9  F01B         	goto	l3681
  3600  003710                     u18760:
  3601  003710                     
  3602                           ; BSR set to: 1
  3603                           ;newmain.c: 629:         int buf = val-original[5];
  3604  003710  0100               	movlb	0	; () banked
  3605  003712  51DB               	movf	(_original+10)& (0+255),w,b	;volatile
  3606  003714  0101               	movlb	1	; () banked
  3607  003716  5D5A               	subwf	rotate_sidebot@val& (0+255),w,b
  3608  003718  6F5D               	movwf	rotate_sidebot@buf& (0+255),b
  3609  00371A  0100               	movlb	0	; () banked
  3610  00371C  51DC               	movf	(_original+11)& (0+255),w,b	;volatile
  3611  00371E  0101               	movlb	1	; () banked
  3612  003720  595B               	subwfb	(rotate_sidebot@val+1)& (0+255),w,b
  3613  003722  6F5E               	movwf	(rotate_sidebot@buf+1)& (0+255),b
  3614                           
  3615                           ;newmain.c: 630:         while(buf>0){
  3616  003724  EF9A  F01B         	goto	l3679
  3617  003728                     l3675:
  3618                           
  3619                           ; BSR set to: 1
  3620                           ;newmain.c: 631:             rsb();
  3621  003728  ECB9  F014         	call	_rsb	;wreg free
  3622  00372C                     
  3623                           ;newmain.c: 632:             buf--;
  3624  00372C  0101               	movlb	1	; () banked
  3625  00372E  075D               	decf	rotate_sidebot@buf& (0+255),f,b
  3626  003730  A0D8               	btfss	status,0,c
  3627  003732  075E               	decf	(rotate_sidebot@buf+1)& (0+255),f,b
  3628  003734                     l3679:
  3629                           
  3630                           ; BSR set to: 1
  3631                           ;newmain.c: 630:         while(buf>0){
  3632  003734  BF5E               	btfsc	(rotate_sidebot@buf+1)& (0+255),7,b
  3633  003736  EFA7  F01B         	goto	u18770
  3634  00373A  515E               	movf	(rotate_sidebot@buf+1)& (0+255),w,b
  3635  00373C  E106               	bnz	u18771
  3636  00373E  055D               	decf	rotate_sidebot@buf& (0+255),w,b
  3637  003740  B0D8               	btfsc	status,0,c
  3638  003742  EFA5  F01B         	goto	u18771
  3639  003746  EFA7  F01B         	goto	u18770
  3640  00374A                     u18771:
  3641  00374A  EF94  F01B         	goto	l3675
  3642  00374E                     u18770:
  3643  00374E  EFDB  F01B         	goto	l291
  3644  003752                     l3681:
  3645                           
  3646                           ; BSR set to: 1
  3647  003752  0100               	movlb	0	; () banked
  3648  003754  51DB               	movf	(_original+10)& (0+255),w,b	;volatile
  3649  003756  0101               	movlb	1	; () banked
  3650  003758  5D5A               	subwf	rotate_sidebot@val& (0+255),w,b
  3651  00375A  515B               	movf	(rotate_sidebot@val+1)& (0+255),w,b
  3652  00375C  0A80               	xorlw	128
  3653  00375E  6F5C               	movwf	??_rotate_sidebot& (0+255),b
  3654  003760  0100               	movlb	0	; () banked
  3655  003762  51DC               	movf	(_original+11)& (0+255),w,b	;volatile
  3656  003764  0A80               	xorlw	128
  3657  003766  0101               	movlb	1	; () banked
  3658  003768  595C               	subwfb	??_rotate_sidebot& (0+255),w,b
  3659  00376A  B0D8               	btfsc	status,0,c
  3660  00376C  EFBA  F01B         	goto	u18781
  3661  003770  EFBC  F01B         	goto	u18780
  3662  003774                     u18781:
  3663  003774  EFDB  F01B         	goto	l291
  3664  003778                     u18780:
  3665  003778                     
  3666                           ; BSR set to: 1
  3667                           ;newmain.c: 636:         int buf = original[5]-val;
  3668  003778  515A               	movf	rotate_sidebot@val& (0+255),w,b
  3669  00377A  0100               	movlb	0	; () banked
  3670  00377C  5DDB               	subwf	(_original+10)& (0+255),w,b	;volatile
  3671  00377E  0101               	movlb	1	; () banked
  3672  003780  6F5F               	movwf	rotate_sidebot@buf_1653& (0+255),b
  3673  003782  515B               	movf	(rotate_sidebot@val+1)& (0+255),w,b
  3674  003784  0100               	movlb	0	; () banked
  3675  003786  59DC               	subwfb	(_original+11)& (0+255),w,b	;volatile
  3676  003788  0101               	movlb	1	; () banked
  3677  00378A  6F60               	movwf	(rotate_sidebot@buf_1653+1)& (0+255),b
  3678                           
  3679                           ;newmain.c: 637:         while(buf>0){
  3680  00378C  EFCE  F01B         	goto	l3689
  3681  003790                     l3685:
  3682                           
  3683                           ; BSR set to: 1
  3684                           ;newmain.c: 638:             rsb_u();
  3685  003790  EC0D  F00F         	call	_rsb_u	;wreg free
  3686  003794                     
  3687                           ;newmain.c: 639:             buf--;
  3688  003794  0101               	movlb	1	; () banked
  3689  003796  075F               	decf	rotate_sidebot@buf_1653& (0+255),f,b
  3690  003798  A0D8               	btfss	status,0,c
  3691  00379A  0760               	decf	(rotate_sidebot@buf_1653+1)& (0+255),f,b
  3692  00379C                     l3689:
  3693                           
  3694                           ; BSR set to: 1
  3695                           ;newmain.c: 637:         while(buf>0){
  3696  00379C  BF60               	btfsc	(rotate_sidebot@buf_1653+1)& (0+255),7,b
  3697  00379E  EFDB  F01B         	goto	u18790
  3698  0037A2  5160               	movf	(rotate_sidebot@buf_1653+1)& (0+255),w,b
  3699  0037A4  E106               	bnz	u18791
  3700  0037A6  055F               	decf	rotate_sidebot@buf_1653& (0+255),w,b
  3701  0037A8  B0D8               	btfsc	status,0,c
  3702  0037AA  EFD9  F01B         	goto	u18791
  3703  0037AE  EFDB  F01B         	goto	u18790
  3704  0037B2                     u18791:
  3705  0037B2  EFC8  F01B         	goto	l3685
  3706  0037B6                     u18790:
  3707  0037B6                     l291:
  3708                           
  3709                           ; BSR set to: 1
  3710  0037B6  0012               	return		;funcret
  3711  0037B8                     __end_of_rotate_sidebot:
  3712                           	opt callstack 0
  3713                           
  3714 ;; *************** function _rsb_u *****************
  3715 ;; Defined at:
  3716 ;;		line 600 in file "newmain.c"
  3717 ;; Parameters:    Size  Location     Type
  3718 ;;		None
  3719 ;; Auto vars:     Size  Location     Type
  3720 ;;  tempa           1    2[BANK1 ] struct RGB
  3721 ;;  tempd           1    1[BANK1 ] struct RGB
  3722 ;;  tempc           1    0[BANK1 ] struct RGB
  3723 ;; Return value:  Size  Location     Type
  3724 ;;                  1    wreg      void 
  3725 ;; Registers used:
  3726 ;;		None
  3727 ;; Tracked objects:
  3728 ;;		On entry : 0/0
  3729 ;;		On exit  : 0/0
  3730 ;;		Unchanged: 0/0
  3731 ;; Data sizes:     COMRAM   BANK0   BANK1   BANK2   BANK3   BANK4   BANK5
  3732 ;;      Params:         0       0       0       0       0       0       0
  3733 ;;      Locals:         0       0       3       0       0       0       0
  3734 ;;      Temps:          0       0       0       0       0       0       0
  3735 ;;      Totals:         0       0       3       0       0       0       0
  3736 ;;Total ram usage:        3 bytes
  3737 ;; Hardware stack levels used:    1
  3738 ;; Hardware stack levels required when called:    7
  3739 ;; This function calls:
  3740 ;;		Nothing
  3741 ;; This function is called by:
  3742 ;;		_rotate_sidebot
  3743 ;; This function uses a non-reentrant model
  3744 ;;
  3745                           
  3746                           	psect	text6
  3747  001E1A                     __ptext6:
  3748                           	opt callstack 0
  3749  001E1A                     _rsb_u:
  3750                           	opt callstack 22
  3751  001E1A                     
  3752                           ;newmain.c: 601:     rgbarray tempc = rgb[5];
  3753  001E1A  C0BE  F152         	movff	_rgb+5,rsb_u@tempc	;volatile
  3754                           
  3755                           ;newmain.c: 602:     rgbarray tempd = rgb[6];
  3756  001E1E  C0BF  F153         	movff	_rgb+6,rsb_u@tempd	;volatile
  3757                           
  3758                           ;newmain.c: 603:     rgb[5].r = rgb[21].r;rgb[6].r = rgb[22].r;
  3759  001E22  0100               	movlb	0	; () banked
  3760  001E24  A1CE               	btfss	(_rgb+21)& (0+255),0,b	;volatile
  3761  001E26  D002               	bra	u18045
  3762  001E28  81BE               	bsf	(_rgb+5)& (0+255),0,b	;volatile
  3763  001E2A  D002               	bra	u18047
  3764  001E2C                     u18045:
  3765  001E2C  0100               	movlb	0	; () banked
  3766  001E2E  91BE               	bcf	(_rgb+5)& (0+255),0,b	;volatile
  3767  001E30                     u18047:
  3768  001E30  A1CF               	btfss	(_rgb+22)& (0+255),0,b	;volatile
  3769  001E32  D002               	bra	u18055
  3770  001E34  81BF               	bsf	(_rgb+6)& (0+255),0,b	;volatile
  3771  001E36  D002               	bra	u18057
  3772  001E38                     u18055:
  3773  001E38  0100               	movlb	0	; () banked
  3774  001E3A  91BF               	bcf	(_rgb+6)& (0+255),0,b	;volatile
  3775  001E3C                     u18057:
  3776                           
  3777                           ;newmain.c: 604:     rgb[5].g = rgb[21].g;rgb[6].g = rgb[22].g;
  3778  001E3C  A3CE               	btfss	(_rgb+21)& (0+255),1,b	;volatile
  3779  001E3E  D002               	bra	u18065
  3780  001E40  83BE               	bsf	(_rgb+5)& (0+255),1,b	;volatile
  3781  001E42  D002               	bra	u18067
  3782  001E44                     u18065:
  3783  001E44  0100               	movlb	0	; () banked
  3784  001E46  93BE               	bcf	(_rgb+5)& (0+255),1,b	;volatile
  3785  001E48                     u18067:
  3786  001E48  A3CF               	btfss	(_rgb+22)& (0+255),1,b	;volatile
  3787  001E4A  D002               	bra	u18075
  3788  001E4C  83BF               	bsf	(_rgb+6)& (0+255),1,b	;volatile
  3789  001E4E  D002               	bra	u18077
  3790  001E50                     u18075:
  3791  001E50  0100               	movlb	0	; () banked
  3792  001E52  93BF               	bcf	(_rgb+6)& (0+255),1,b	;volatile
  3793  001E54                     u18077:
  3794                           
  3795                           ;newmain.c: 605:     rgb[5].b = rgb[21].b;rgb[6].b = rgb[22].b;
  3796  001E54  A5CE               	btfss	(_rgb+21)& (0+255),2,b	;volatile
  3797  001E56  D002               	bra	u18085
  3798  001E58  85BE               	bsf	(_rgb+5)& (0+255),2,b	;volatile
  3799  001E5A  D002               	bra	u18087
  3800  001E5C                     u18085:
  3801  001E5C  0100               	movlb	0	; () banked
  3802  001E5E  95BE               	bcf	(_rgb+5)& (0+255),2,b	;volatile
  3803  001E60                     u18087:
  3804  001E60  A5CF               	btfss	(_rgb+22)& (0+255),2,b	;volatile
  3805  001E62  D002               	bra	u18095
  3806  001E64  85BF               	bsf	(_rgb+6)& (0+255),2,b	;volatile
  3807  001E66  D002               	bra	u18097
  3808  001E68                     u18095:
  3809  001E68  0100               	movlb	0	; () banked
  3810  001E6A  95BF               	bcf	(_rgb+6)& (0+255),2,b	;volatile
  3811  001E6C                     u18097:
  3812                           
  3813                           ;newmain.c: 606:     rgb[21].r = rgb[15].r;rgb[22].r = rgb[12].r;
  3814  001E6C  A1C8               	btfss	(_rgb+15)& (0+255),0,b	;volatile
  3815  001E6E  D002               	bra	u18105
  3816  001E70  81CE               	bsf	(_rgb+21)& (0+255),0,b	;volatile
  3817  001E72  D002               	bra	u18107
  3818  001E74                     u18105:
  3819  001E74  0100               	movlb	0	; () banked
  3820  001E76  91CE               	bcf	(_rgb+21)& (0+255),0,b	;volatile
  3821  001E78                     u18107:
  3822  001E78  A1C5               	btfss	(_rgb+12)& (0+255),0,b	;volatile
  3823  001E7A  D002               	bra	u18115
  3824  001E7C  81CF               	bsf	(_rgb+22)& (0+255),0,b	;volatile
  3825  001E7E  D002               	bra	u18117
  3826  001E80                     u18115:
  3827  001E80  0100               	movlb	0	; () banked
  3828  001E82  91CF               	bcf	(_rgb+22)& (0+255),0,b	;volatile
  3829  001E84                     u18117:
  3830                           
  3831                           ;newmain.c: 607:     rgb[21].g = rgb[15].g;rgb[22].g = rgb[12].g;
  3832  001E84  A3C8               	btfss	(_rgb+15)& (0+255),1,b	;volatile
  3833  001E86  D002               	bra	u18125
  3834  001E88  83CE               	bsf	(_rgb+21)& (0+255),1,b	;volatile
  3835  001E8A  D002               	bra	u18127
  3836  001E8C                     u18125:
  3837  001E8C  0100               	movlb	0	; () banked
  3838  001E8E  93CE               	bcf	(_rgb+21)& (0+255),1,b	;volatile
  3839  001E90                     u18127:
  3840  001E90  A3C5               	btfss	(_rgb+12)& (0+255),1,b	;volatile
  3841  001E92  D002               	bra	u18135
  3842  001E94  83CF               	bsf	(_rgb+22)& (0+255),1,b	;volatile
  3843  001E96  D002               	bra	u18137
  3844  001E98                     u18135:
  3845  001E98  0100               	movlb	0	; () banked
  3846  001E9A  93CF               	bcf	(_rgb+22)& (0+255),1,b	;volatile
  3847  001E9C                     u18137:
  3848                           
  3849                           ;newmain.c: 608:     rgb[21].b = rgb[15].b;rgb[22].b = rgb[12].b;
  3850  001E9C  A5C8               	btfss	(_rgb+15)& (0+255),2,b	;volatile
  3851  001E9E  D002               	bra	u18145
  3852  001EA0  85CE               	bsf	(_rgb+21)& (0+255),2,b	;volatile
  3853  001EA2  D002               	bra	u18147
  3854  001EA4                     u18145:
  3855  001EA4  0100               	movlb	0	; () banked
  3856  001EA6  95CE               	bcf	(_rgb+21)& (0+255),2,b	;volatile
  3857  001EA8                     u18147:
  3858  001EA8  A5C5               	btfss	(_rgb+12)& (0+255),2,b	;volatile
  3859  001EAA  D002               	bra	u18155
  3860  001EAC  85CF               	bsf	(_rgb+22)& (0+255),2,b	;volatile
  3861  001EAE  D002               	bra	u18157
  3862  001EB0                     u18155:
  3863  001EB0  0100               	movlb	0	; () banked
  3864  001EB2  95CF               	bcf	(_rgb+22)& (0+255),2,b	;volatile
  3865  001EB4                     u18157:
  3866                           
  3867                           ;newmain.c: 609:     rgb[15].r = rgb[17].r;rgb[12].r = rgb[18].r;
  3868  001EB4  A1CA               	btfss	(_rgb+17)& (0+255),0,b	;volatile
  3869  001EB6  D002               	bra	u18165
  3870  001EB8  81C8               	bsf	(_rgb+15)& (0+255),0,b	;volatile
  3871  001EBA  D002               	bra	u18167
  3872  001EBC                     u18165:
  3873  001EBC  0100               	movlb	0	; () banked
  3874  001EBE  91C8               	bcf	(_rgb+15)& (0+255),0,b	;volatile
  3875  001EC0                     u18167:
  3876  001EC0  A1CB               	btfss	(_rgb+18)& (0+255),0,b	;volatile
  3877  001EC2  D002               	bra	u18175
  3878  001EC4  81C5               	bsf	(_rgb+12)& (0+255),0,b	;volatile
  3879  001EC6  D002               	bra	u18177
  3880  001EC8                     u18175:
  3881  001EC8  0100               	movlb	0	; () banked
  3882  001ECA  91C5               	bcf	(_rgb+12)& (0+255),0,b	;volatile
  3883  001ECC                     u18177:
  3884                           
  3885                           ;newmain.c: 610:     rgb[15].g = rgb[17].g;rgb[12].g = rgb[18].g;
  3886  001ECC  A3CA               	btfss	(_rgb+17)& (0+255),1,b	;volatile
  3887  001ECE  D002               	bra	u18185
  3888  001ED0  83C8               	bsf	(_rgb+15)& (0+255),1,b	;volatile
  3889  001ED2  D002               	bra	u18187
  3890  001ED4                     u18185:
  3891  001ED4  0100               	movlb	0	; () banked
  3892  001ED6  93C8               	bcf	(_rgb+15)& (0+255),1,b	;volatile
  3893  001ED8                     u18187:
  3894  001ED8  A3CB               	btfss	(_rgb+18)& (0+255),1,b	;volatile
  3895  001EDA  D002               	bra	u18195
  3896  001EDC  83C5               	bsf	(_rgb+12)& (0+255),1,b	;volatile
  3897  001EDE  D002               	bra	u18197
  3898  001EE0                     u18195:
  3899  001EE0  0100               	movlb	0	; () banked
  3900  001EE2  93C5               	bcf	(_rgb+12)& (0+255),1,b	;volatile
  3901  001EE4                     u18197:
  3902                           
  3903                           ;newmain.c: 611:     rgb[15].b = rgb[17].b;rgb[12].b = rgb[18].b;
  3904  001EE4  A5CA               	btfss	(_rgb+17)& (0+255),2,b	;volatile
  3905  001EE6  D002               	bra	u18205
  3906  001EE8  85C8               	bsf	(_rgb+15)& (0+255),2,b	;volatile
  3907  001EEA  D002               	bra	u18207
  3908  001EEC                     u18205:
  3909  001EEC  0100               	movlb	0	; () banked
  3910  001EEE  95C8               	bcf	(_rgb+15)& (0+255),2,b	;volatile
  3911  001EF0                     u18207:
  3912  001EF0  A5CB               	btfss	(_rgb+18)& (0+255),2,b	;volatile
  3913  001EF2  D002               	bra	u18215
  3914  001EF4  85C5               	bsf	(_rgb+12)& (0+255),2,b	;volatile
  3915  001EF6  D002               	bra	u18217
  3916  001EF8                     u18215:
  3917  001EF8  0100               	movlb	0	; () banked
  3918  001EFA  95C5               	bcf	(_rgb+12)& (0+255),2,b	;volatile
  3919  001EFC                     u18217:
  3920                           
  3921                           ;newmain.c: 612:     rgb[17].r = tempc.r;rgb[18].r = tempd.r;
  3922  001EFC  0101               	movlb	1	; () banked
  3923  001EFE  A152               	btfss	rsb_u@tempc& (0+255),0,b
  3924  001F00  D003               	bra	u18225
  3925  001F02  0100               	movlb	0	; () banked
  3926  001F04  81CA               	bsf	(_rgb+17)& (0+255),0,b	;volatile
  3927  001F06  D002               	bra	u18227
  3928  001F08                     u18225:
  3929  001F08  0100               	movlb	0	; () banked
  3930  001F0A  91CA               	bcf	(_rgb+17)& (0+255),0,b	;volatile
  3931  001F0C                     u18227:
  3932  001F0C  0101               	movlb	1	; () banked
  3933  001F0E  A153               	btfss	rsb_u@tempd& (0+255),0,b
  3934  001F10  D003               	bra	u18235
  3935  001F12  0100               	movlb	0	; () banked
  3936  001F14  81CB               	bsf	(_rgb+18)& (0+255),0,b	;volatile
  3937  001F16  D002               	bra	u18237
  3938  001F18                     u18235:
  3939  001F18  0100               	movlb	0	; () banked
  3940  001F1A  91CB               	bcf	(_rgb+18)& (0+255),0,b	;volatile
  3941  001F1C                     u18237:
  3942                           
  3943                           ;newmain.c: 613:     rgb[17].g = tempc.g;rgb[18].g = tempd.g;
  3944  001F1C  0101               	movlb	1	; () banked
  3945  001F1E  A352               	btfss	rsb_u@tempc& (0+255),1,b
  3946  001F20  D003               	bra	u18245
  3947  001F22  0100               	movlb	0	; () banked
  3948  001F24  83CA               	bsf	(_rgb+17)& (0+255),1,b	;volatile
  3949  001F26  D002               	bra	u18247
  3950  001F28                     u18245:
  3951  001F28  0100               	movlb	0	; () banked
  3952  001F2A  93CA               	bcf	(_rgb+17)& (0+255),1,b	;volatile
  3953  001F2C                     u18247:
  3954  001F2C  0101               	movlb	1	; () banked
  3955  001F2E  A353               	btfss	rsb_u@tempd& (0+255),1,b
  3956  001F30  D003               	bra	u18255
  3957  001F32  0100               	movlb	0	; () banked
  3958  001F34  83CB               	bsf	(_rgb+18)& (0+255),1,b	;volatile
  3959  001F36  D002               	bra	u18257
  3960  001F38                     u18255:
  3961  001F38  0100               	movlb	0	; () banked
  3962  001F3A  93CB               	bcf	(_rgb+18)& (0+255),1,b	;volatile
  3963  001F3C                     u18257:
  3964                           
  3965                           ;newmain.c: 614:     rgb[17].b = tempc.b;rgb[18].b = tempd.b;
  3966  001F3C  0101               	movlb	1	; () banked
  3967  001F3E  A552               	btfss	rsb_u@tempc& (0+255),2,b
  3968  001F40  D003               	bra	u18265
  3969  001F42  0100               	movlb	0	; () banked
  3970  001F44  85CA               	bsf	(_rgb+17)& (0+255),2,b	;volatile
  3971  001F46  D002               	bra	u18267
  3972  001F48                     u18265:
  3973  001F48  0100               	movlb	0	; () banked
  3974  001F4A  95CA               	bcf	(_rgb+17)& (0+255),2,b	;volatile
  3975  001F4C                     u18267:
  3976  001F4C  0101               	movlb	1	; () banked
  3977  001F4E  A553               	btfss	rsb_u@tempd& (0+255),2,b
  3978  001F50  D003               	bra	u18275
  3979  001F52  0100               	movlb	0	; () banked
  3980  001F54  85CB               	bsf	(_rgb+18)& (0+255),2,b	;volatile
  3981  001F56  D002               	bra	u18277
  3982  001F58                     u18275:
  3983  001F58  0100               	movlb	0	; () banked
  3984  001F5A  95CB               	bcf	(_rgb+18)& (0+255),2,b	;volatile
  3985  001F5C                     u18277:
  3986                           
  3987                           ;newmain.c: 615:     rgbarray tempa = rgb[8];
  3988  001F5C  C0C1  F154         	movff	_rgb+8,rsb_u@tempa	;volatile
  3989                           
  3990                           ;newmain.c: 616:     rgb[8].r = rgb[11].r;rgb[11].r = rgb[10].r;
  3991  001F60  A1C4               	btfss	(_rgb+11)& (0+255),0,b	;volatile
  3992  001F62  D002               	bra	u18285
  3993  001F64  81C1               	bsf	(_rgb+8)& (0+255),0,b	;volatile
  3994  001F66  D002               	bra	u18287
  3995  001F68                     u18285:
  3996  001F68  0100               	movlb	0	; () banked
  3997  001F6A  91C1               	bcf	(_rgb+8)& (0+255),0,b	;volatile
  3998  001F6C                     u18287:
  3999  001F6C  A1C3               	btfss	(_rgb+10)& (0+255),0,b	;volatile
  4000  001F6E  D002               	bra	u18295
  4001  001F70  81C4               	bsf	(_rgb+11)& (0+255),0,b	;volatile
  4002  001F72  D002               	bra	u18297
  4003  001F74                     u18295:
  4004  001F74  0100               	movlb	0	; () banked
  4005  001F76  91C4               	bcf	(_rgb+11)& (0+255),0,b	;volatile
  4006  001F78                     u18297:
  4007                           
  4008                           ;newmain.c: 617:     rgb[8].g = rgb[11].g;rgb[11].g = rgb[10].g;
  4009  001F78  A3C4               	btfss	(_rgb+11)& (0+255),1,b	;volatile
  4010  001F7A  D002               	bra	u18305
  4011  001F7C  83C1               	bsf	(_rgb+8)& (0+255),1,b	;volatile
  4012  001F7E  D002               	bra	u18307
  4013  001F80                     u18305:
  4014  001F80  0100               	movlb	0	; () banked
  4015  001F82  93C1               	bcf	(_rgb+8)& (0+255),1,b	;volatile
  4016  001F84                     u18307:
  4017  001F84  A3C3               	btfss	(_rgb+10)& (0+255),1,b	;volatile
  4018  001F86  D002               	bra	u18315
  4019  001F88  83C4               	bsf	(_rgb+11)& (0+255),1,b	;volatile
  4020  001F8A  D002               	bra	u18317
  4021  001F8C                     u18315:
  4022  001F8C  0100               	movlb	0	; () banked
  4023  001F8E  93C4               	bcf	(_rgb+11)& (0+255),1,b	;volatile
  4024  001F90                     u18317:
  4025                           
  4026                           ;newmain.c: 618:     rgb[8].b = rgb[11].b;rgb[11].b = rgb[10].b;
  4027  001F90  A5C4               	btfss	(_rgb+11)& (0+255),2,b	;volatile
  4028  001F92  D002               	bra	u18325
  4029  001F94  85C1               	bsf	(_rgb+8)& (0+255),2,b	;volatile
  4030  001F96  D002               	bra	u18327
  4031  001F98                     u18325:
  4032  001F98  0100               	movlb	0	; () banked
  4033  001F9A  95C1               	bcf	(_rgb+8)& (0+255),2,b	;volatile
  4034  001F9C                     u18327:
  4035  001F9C  A5C3               	btfss	(_rgb+10)& (0+255),2,b	;volatile
  4036  001F9E  D002               	bra	u18335
  4037  001FA0  85C4               	bsf	(_rgb+11)& (0+255),2,b	;volatile
  4038  001FA2  D002               	bra	u18337
  4039  001FA4                     u18335:
  4040  001FA4  0100               	movlb	0	; () banked
  4041  001FA6  95C4               	bcf	(_rgb+11)& (0+255),2,b	;volatile
  4042  001FA8                     u18337:
  4043                           
  4044                           ;newmain.c: 619:     rgb[10].r = rgb[9].r;rgb[9].r = tempa.r;
  4045  001FA8  A1C2               	btfss	(_rgb+9)& (0+255),0,b	;volatile
  4046  001FAA  D002               	bra	u18345
  4047  001FAC  81C3               	bsf	(_rgb+10)& (0+255),0,b	;volatile
  4048  001FAE  D002               	bra	u18347
  4049  001FB0                     u18345:
  4050  001FB0  0100               	movlb	0	; () banked
  4051  001FB2  91C3               	bcf	(_rgb+10)& (0+255),0,b	;volatile
  4052  001FB4                     u18347:
  4053  001FB4  0101               	movlb	1	; () banked
  4054  001FB6  A154               	btfss	rsb_u@tempa& (0+255),0,b
  4055  001FB8  D003               	bra	u18355
  4056  001FBA  0100               	movlb	0	; () banked
  4057  001FBC  81C2               	bsf	(_rgb+9)& (0+255),0,b	;volatile
  4058  001FBE  D002               	bra	u18357
  4059  001FC0                     u18355:
  4060  001FC0  0100               	movlb	0	; () banked
  4061  001FC2  91C2               	bcf	(_rgb+9)& (0+255),0,b	;volatile
  4062  001FC4                     u18357:
  4063                           
  4064                           ;newmain.c: 620:     rgb[10].g = rgb[9].g;rgb[9].g = tempa.g;
  4065  001FC4  A3C2               	btfss	(_rgb+9)& (0+255),1,b	;volatile
  4066  001FC6  D002               	bra	u18365
  4067  001FC8  83C3               	bsf	(_rgb+10)& (0+255),1,b	;volatile
  4068  001FCA  D002               	bra	u18367
  4069  001FCC                     u18365:
  4070  001FCC  0100               	movlb	0	; () banked
  4071  001FCE  93C3               	bcf	(_rgb+10)& (0+255),1,b	;volatile
  4072  001FD0                     u18367:
  4073  001FD0  0101               	movlb	1	; () banked
  4074  001FD2  A354               	btfss	rsb_u@tempa& (0+255),1,b
  4075  001FD4  D003               	bra	u18375
  4076  001FD6  0100               	movlb	0	; () banked
  4077  001FD8  83C2               	bsf	(_rgb+9)& (0+255),1,b	;volatile
  4078  001FDA  D002               	bra	u18377
  4079  001FDC                     u18375:
  4080  001FDC  0100               	movlb	0	; () banked
  4081  001FDE  93C2               	bcf	(_rgb+9)& (0+255),1,b	;volatile
  4082  001FE0                     u18377:
  4083                           
  4084                           ;newmain.c: 621:     rgb[10].b = rgb[9].b;rgb[9].b = tempa.b;
  4085  001FE0  A5C2               	btfss	(_rgb+9)& (0+255),2,b	;volatile
  4086  001FE2  D002               	bra	u18385
  4087  001FE4  85C3               	bsf	(_rgb+10)& (0+255),2,b	;volatile
  4088  001FE6  D002               	bra	u18387
  4089  001FE8                     u18385:
  4090  001FE8  0100               	movlb	0	; () banked
  4091  001FEA  95C3               	bcf	(_rgb+10)& (0+255),2,b	;volatile
  4092  001FEC                     u18387:
  4093  001FEC  0101               	movlb	1	; () banked
  4094  001FEE  A554               	btfss	rsb_u@tempa& (0+255),2,b
  4095  001FF0  D003               	bra	u18395
  4096  001FF2  0100               	movlb	0	; () banked
  4097  001FF4  85C2               	bsf	(_rgb+9)& (0+255),2,b	;volatile
  4098  001FF6  D002               	bra	u18397
  4099  001FF8                     u18395:
  4100  001FF8  0100               	movlb	0	; () banked
  4101  001FFA  95C2               	bcf	(_rgb+9)& (0+255),2,b	;volatile
  4102  001FFC                     u18397:
  4103  001FFC                     
  4104                           ; BSR set to: 0
  4105  001FFC  0012               	return		;funcret
  4106  001FFE                     __end_of_rsb_u:
  4107                           	opt callstack 0
  4108                           
  4109 ;; *************** function _rotate_r *****************
  4110 ;; Defined at:
  4111 ;;		line 292 in file "newmain.c"
  4112 ;; Parameters:    Size  Location     Type
  4113 ;;  val             2    8[BANK1 ] int 
  4114 ;; Auto vars:     Size  Location     Type
  4115 ;;  buf             2   13[BANK1 ] int 
  4116 ;;  buf             2   11[BANK1 ] int 
  4117 ;; Return value:  Size  Location     Type
  4118 ;;                  1    wreg      void 
  4119 ;; Registers used:
  4120 ;;		wreg, status,2, status,0, cstack
  4121 ;; Tracked objects:
  4122 ;;		On entry : 0/0
  4123 ;;		On exit  : 0/0
  4124 ;;		Unchanged: 0/0
  4125 ;; Data sizes:     COMRAM   BANK0   BANK1   BANK2   BANK3   BANK4   BANK5
  4126 ;;      Params:         0       0       2       0       0       0       0
  4127 ;;      Locals:         0       0       4       0       0       0       0
  4128 ;;      Temps:          0       0       1       0       0       0       0
  4129 ;;      Totals:         0       0       7       0       0       0       0
  4130 ;;Total ram usage:        7 bytes
  4131 ;; Hardware stack levels used:    1
  4132 ;; Hardware stack levels required when called:    8
  4133 ;; This function calls:
  4134 ;;		_rr
  4135 ;;		_rr_u
  4136 ;; This function is called by:
  4137 ;;		_main
  4138 ;; This function uses a non-reentrant model
  4139 ;;
  4140                           
  4141                           	psect	text7
  4142  0037B8                     __ptext7:
  4143                           	opt callstack 0
  4144  0037B8                     _rotate_r:
  4145                           	opt callstack 22
  4146  0037B8                     
  4147                           ;newmain.c: 293:     if(val > 3){
  4148  0037B8  0101               	movlb	1	; () banked
  4149  0037BA  BF5B               	btfsc	(rotate_r@val+1)& (0+255),7,b
  4150  0037BC  EFE9  F01B         	goto	u18501
  4151  0037C0  515B               	movf	(rotate_r@val+1)& (0+255),w,b
  4152  0037C2  E109               	bnz	u18500
  4153  0037C4  0E04               	movlw	4
  4154  0037C6  5D5A               	subwf	rotate_r@val& (0+255),w,b
  4155  0037C8  A0D8               	btfss	status,0,c
  4156  0037CA  EFE9  F01B         	goto	u18501
  4157  0037CE  EFEB  F01B         	goto	u18500
  4158  0037D2                     u18501:
  4159  0037D2  EFEF  F01B         	goto	l3551
  4160  0037D6                     u18500:
  4161  0037D6                     
  4162                           ; BSR set to: 1
  4163                           ;newmain.c: 294:         val = 3;
  4164  0037D6  0E00               	movlw	0
  4165  0037D8  6F5B               	movwf	(rotate_r@val+1)& (0+255),b
  4166  0037DA  0E03               	movlw	3
  4167  0037DC  6F5A               	movwf	rotate_r@val& (0+255),b
  4168  0037DE                     l3551:
  4169                           
  4170                           ; BSR set to: 1
  4171                           ;newmain.c: 296:     if(val>original[2]){
  4172  0037DE  515A               	movf	rotate_r@val& (0+255),w,b
  4173  0037E0  0100               	movlb	0	; () banked
  4174  0037E2  5DD5               	subwf	(_original+4)& (0+255),w,b	;volatile
  4175  0037E4  51D6               	movf	(_original+5)& (0+255),w,b	;volatile
  4176  0037E6  0A80               	xorlw	128
  4177  0037E8  0101               	movlb	1	; () banked
  4178  0037EA  6F5C               	movwf	??_rotate_r& (0+255),b
  4179  0037EC  515B               	movf	(rotate_r@val+1)& (0+255),w,b
  4180  0037EE  0A80               	xorlw	128
  4181  0037F0  595C               	subwfb	??_rotate_r& (0+255),w,b
  4182  0037F2  B0D8               	btfsc	status,0,c
  4183  0037F4  EFFE  F01B         	goto	u18511
  4184  0037F8  EF00  F01C         	goto	u18510
  4185  0037FC                     u18511:
  4186  0037FC  EF21  F01C         	goto	l3561
  4187  003800                     u18510:
  4188  003800                     
  4189                           ; BSR set to: 1
  4190                           ;newmain.c: 297:         int buf = val-original[2];
  4191  003800  0100               	movlb	0	; () banked
  4192  003802  51D5               	movf	(_original+4)& (0+255),w,b	;volatile
  4193  003804  0101               	movlb	1	; () banked
  4194  003806  5D5A               	subwf	rotate_r@val& (0+255),w,b
  4195  003808  6F5D               	movwf	rotate_r@buf& (0+255),b
  4196  00380A  0100               	movlb	0	; () banked
  4197  00380C  51D6               	movf	(_original+5)& (0+255),w,b	;volatile
  4198  00380E  0101               	movlb	1	; () banked
  4199  003810  595B               	subwfb	(rotate_r@val+1)& (0+255),w,b
  4200  003812  6F5E               	movwf	(rotate_r@buf+1)& (0+255),b
  4201                           
  4202                           ;newmain.c: 298:         while(buf>0){
  4203  003814  EF12  F01C         	goto	l3559
  4204  003818                     l3555:
  4205                           
  4206                           ; BSR set to: 1
  4207                           ;newmain.c: 299:             rr();
  4208  003818  ECAB  F015         	call	_rr	;wreg free
  4209  00381C                     
  4210                           ;newmain.c: 300:             buf--;
  4211  00381C  0101               	movlb	1	; () banked
  4212  00381E  075D               	decf	rotate_r@buf& (0+255),f,b
  4213  003820  A0D8               	btfss	status,0,c
  4214  003822  075E               	decf	(rotate_r@buf+1)& (0+255),f,b
  4215  003824                     l3559:
  4216                           
  4217                           ; BSR set to: 1
  4218                           ;newmain.c: 298:         while(buf>0){
  4219  003824  BF5E               	btfsc	(rotate_r@buf+1)& (0+255),7,b
  4220  003826  EF1F  F01C         	goto	u18520
  4221  00382A  515E               	movf	(rotate_r@buf+1)& (0+255),w,b
  4222  00382C  E106               	bnz	u18521
  4223  00382E  055D               	decf	rotate_r@buf& (0+255),w,b
  4224  003830  B0D8               	btfsc	status,0,c
  4225  003832  EF1D  F01C         	goto	u18521
  4226  003836  EF1F  F01C         	goto	u18520
  4227  00383A                     u18521:
  4228  00383A  EF0C  F01C         	goto	l3555
  4229  00383E                     u18520:
  4230  00383E  EF53  F01C         	goto	l196
  4231  003842                     l3561:
  4232                           
  4233                           ; BSR set to: 1
  4234  003842  0100               	movlb	0	; () banked
  4235  003844  51D5               	movf	(_original+4)& (0+255),w,b	;volatile
  4236  003846  0101               	movlb	1	; () banked
  4237  003848  5D5A               	subwf	rotate_r@val& (0+255),w,b
  4238  00384A  515B               	movf	(rotate_r@val+1)& (0+255),w,b
  4239  00384C  0A80               	xorlw	128
  4240  00384E  6F5C               	movwf	??_rotate_r& (0+255),b
  4241  003850  0100               	movlb	0	; () banked
  4242  003852  51D6               	movf	(_original+5)& (0+255),w,b	;volatile
  4243  003854  0A80               	xorlw	128
  4244  003856  0101               	movlb	1	; () banked
  4245  003858  595C               	subwfb	??_rotate_r& (0+255),w,b
  4246  00385A  B0D8               	btfsc	status,0,c
  4247  00385C  EF32  F01C         	goto	u18531
  4248  003860  EF34  F01C         	goto	u18530
  4249  003864                     u18531:
  4250  003864  EF53  F01C         	goto	l196
  4251  003868                     u18530:
  4252  003868                     
  4253                           ; BSR set to: 1
  4254                           ;newmain.c: 304:         int buf = original[2]-val;
  4255  003868  515A               	movf	rotate_r@val& (0+255),w,b
  4256  00386A  0100               	movlb	0	; () banked
  4257  00386C  5DD5               	subwf	(_original+4)& (0+255),w,b	;volatile
  4258  00386E  0101               	movlb	1	; () banked
  4259  003870  6F5F               	movwf	rotate_r@buf_1043& (0+255),b
  4260  003872  515B               	movf	(rotate_r@val+1)& (0+255),w,b
  4261  003874  0100               	movlb	0	; () banked
  4262  003876  59D6               	subwfb	(_original+5)& (0+255),w,b	;volatile
  4263  003878  0101               	movlb	1	; () banked
  4264  00387A  6F60               	movwf	(rotate_r@buf_1043+1)& (0+255),b
  4265                           
  4266                           ;newmain.c: 305:         while(buf>0){
  4267  00387C  EF46  F01C         	goto	l3569
  4268  003880                     l3565:
  4269                           
  4270                           ; BSR set to: 1
  4271                           ;newmain.c: 306:             rr_u();
  4272  003880  ECFF  F00F         	call	_rr_u	;wreg free
  4273  003884                     
  4274                           ;newmain.c: 307:             buf--;
  4275  003884  0101               	movlb	1	; () banked
  4276  003886  075F               	decf	rotate_r@buf_1043& (0+255),f,b
  4277  003888  A0D8               	btfss	status,0,c
  4278  00388A  0760               	decf	(rotate_r@buf_1043+1)& (0+255),f,b
  4279  00388C                     l3569:
  4280                           
  4281                           ; BSR set to: 1
  4282                           ;newmain.c: 305:         while(buf>0){
  4283  00388C  BF60               	btfsc	(rotate_r@buf_1043+1)& (0+255),7,b
  4284  00388E  EF53  F01C         	goto	u18540
  4285  003892  5160               	movf	(rotate_r@buf_1043+1)& (0+255),w,b
  4286  003894  E106               	bnz	u18541
  4287  003896  055F               	decf	rotate_r@buf_1043& (0+255),w,b
  4288  003898  B0D8               	btfsc	status,0,c
  4289  00389A  EF51  F01C         	goto	u18541
  4290  00389E  EF53  F01C         	goto	u18540
  4291  0038A2                     u18541:
  4292  0038A2  EF40  F01C         	goto	l3565
  4293  0038A6                     u18540:
  4294  0038A6                     l196:
  4295                           
  4296                           ; BSR set to: 1
  4297  0038A6  0012               	return		;funcret
  4298  0038A8                     __end_of_rotate_r:
  4299                           	opt callstack 0
  4300                           
  4301 ;; *************** function _rr_u *****************
  4302 ;; Defined at:
  4303 ;;		line 269 in file "newmain.c"
  4304 ;; Parameters:    Size  Location     Type
  4305 ;;		None
  4306 ;; Auto vars:     Size  Location     Type
  4307 ;;  tempf           1    2[BANK1 ] struct RGB
  4308 ;;  tempd           1    1[BANK1 ] struct RGB
  4309 ;;  tempc           1    0[BANK1 ] struct RGB
  4310 ;; Return value:  Size  Location     Type
  4311 ;;                  1    wreg      void 
  4312 ;; Registers used:
  4313 ;;		None
  4314 ;; Tracked objects:
  4315 ;;		On entry : 0/0
  4316 ;;		On exit  : 0/0
  4317 ;;		Unchanged: 0/0
  4318 ;; Data sizes:     COMRAM   BANK0   BANK1   BANK2   BANK3   BANK4   BANK5
  4319 ;;      Params:         0       0       0       0       0       0       0
  4320 ;;      Locals:         0       0       3       0       0       0       0
  4321 ;;      Temps:          0       0       0       0       0       0       0
  4322 ;;      Totals:         0       0       3       0       0       0       0
  4323 ;;Total ram usage:        3 bytes
  4324 ;; Hardware stack levels used:    1
  4325 ;; Hardware stack levels required when called:    7
  4326 ;; This function calls:
  4327 ;;		Nothing
  4328 ;; This function is called by:
  4329 ;;		_rotate_r
  4330 ;; This function uses a non-reentrant model
  4331 ;;
  4332                           
  4333                           	psect	text8
  4334  001FFE                     __ptext8:
  4335                           	opt callstack 0
  4336  001FFE                     _rr_u:
  4337                           	opt callstack 22
  4338  001FFE                     
  4339                           ;newmain.c: 270:     rgbarray tempc = rgb[14];
  4340  001FFE  C0C7  F152         	movff	_rgb+14,rr_u@tempc	;volatile
  4341                           
  4342                           ;newmain.c: 271:     rgbarray tempd = rgb[15];
  4343  002002  C0C8  F153         	movff	_rgb+15,rr_u@tempd	;volatile
  4344                           
  4345                           ;newmain.c: 272:     rgb[14].r = rgb[10].r;rgb[15].r = rgb[11].r;
  4346  002006  0100               	movlb	0	; () banked
  4347  002008  A1C3               	btfss	(_rgb+10)& (0+255),0,b	;volatile
  4348  00200A  D002               	bra	u14445
  4349  00200C  81C7               	bsf	(_rgb+14)& (0+255),0,b	;volatile
  4350  00200E  D002               	bra	u14447
  4351  002010                     u14445:
  4352  002010  0100               	movlb	0	; () banked
  4353  002012  91C7               	bcf	(_rgb+14)& (0+255),0,b	;volatile
  4354  002014                     u14447:
  4355  002014  A1C4               	btfss	(_rgb+11)& (0+255),0,b	;volatile
  4356  002016  D002               	bra	u14455
  4357  002018  81C8               	bsf	(_rgb+15)& (0+255),0,b	;volatile
  4358  00201A  D002               	bra	u14457
  4359  00201C                     u14455:
  4360  00201C  0100               	movlb	0	; () banked
  4361  00201E  91C8               	bcf	(_rgb+15)& (0+255),0,b	;volatile
  4362  002020                     u14457:
  4363                           
  4364                           ;newmain.c: 273:     rgb[14].g = rgb[10].g;rgb[15].g = rgb[11].g;
  4365  002020  A3C3               	btfss	(_rgb+10)& (0+255),1,b	;volatile
  4366  002022  D002               	bra	u14465
  4367  002024  83C7               	bsf	(_rgb+14)& (0+255),1,b	;volatile
  4368  002026  D002               	bra	u14467
  4369  002028                     u14465:
  4370  002028  0100               	movlb	0	; () banked
  4371  00202A  93C7               	bcf	(_rgb+14)& (0+255),1,b	;volatile
  4372  00202C                     u14467:
  4373  00202C  A3C4               	btfss	(_rgb+11)& (0+255),1,b	;volatile
  4374  00202E  D002               	bra	u14475
  4375  002030  83C8               	bsf	(_rgb+15)& (0+255),1,b	;volatile
  4376  002032  D002               	bra	u14477
  4377  002034                     u14475:
  4378  002034  0100               	movlb	0	; () banked
  4379  002036  93C8               	bcf	(_rgb+15)& (0+255),1,b	;volatile
  4380  002038                     u14477:
  4381                           
  4382                           ;newmain.c: 274:     rgb[14].b = rgb[10].b;rgb[15].b = rgb[11].b;
  4383  002038  A5C3               	btfss	(_rgb+10)& (0+255),2,b	;volatile
  4384  00203A  D002               	bra	u14485
  4385  00203C  85C7               	bsf	(_rgb+14)& (0+255),2,b	;volatile
  4386  00203E  D002               	bra	u14487
  4387  002040                     u14485:
  4388  002040  0100               	movlb	0	; () banked
  4389  002042  95C7               	bcf	(_rgb+14)& (0+255),2,b	;volatile
  4390  002044                     u14487:
  4391  002044  A5C4               	btfss	(_rgb+11)& (0+255),2,b	;volatile
  4392  002046  D002               	bra	u14495
  4393  002048  85C8               	bsf	(_rgb+15)& (0+255),2,b	;volatile
  4394  00204A  D002               	bra	u14497
  4395  00204C                     u14495:
  4396  00204C  0100               	movlb	0	; () banked
  4397  00204E  95C8               	bcf	(_rgb+15)& (0+255),2,b	;volatile
  4398  002050                     u14497:
  4399                           
  4400                           ;newmain.c: 275:     rgb[10].r = rgb[6].r;rgb[11].r = rgb[7].r;
  4401  002050  A1BF               	btfss	(_rgb+6)& (0+255),0,b	;volatile
  4402  002052  D002               	bra	u14505
  4403  002054  81C3               	bsf	(_rgb+10)& (0+255),0,b	;volatile
  4404  002056  D002               	bra	u14507
  4405  002058                     u14505:
  4406  002058  0100               	movlb	0	; () banked
  4407  00205A  91C3               	bcf	(_rgb+10)& (0+255),0,b	;volatile
  4408  00205C                     u14507:
  4409  00205C  A1C0               	btfss	(_rgb+7)& (0+255),0,b	;volatile
  4410  00205E  D002               	bra	u14515
  4411  002060  81C4               	bsf	(_rgb+11)& (0+255),0,b	;volatile
  4412  002062  D002               	bra	u14517
  4413  002064                     u14515:
  4414  002064  0100               	movlb	0	; () banked
  4415  002066  91C4               	bcf	(_rgb+11)& (0+255),0,b	;volatile
  4416  002068                     u14517:
  4417                           
  4418                           ;newmain.c: 276:     rgb[10].g = rgb[6].g;rgb[11].g = rgb[7].g;
  4419  002068  A3BF               	btfss	(_rgb+6)& (0+255),1,b	;volatile
  4420  00206A  D002               	bra	u14525
  4421  00206C  83C3               	bsf	(_rgb+10)& (0+255),1,b	;volatile
  4422  00206E  D002               	bra	u14527
  4423  002070                     u14525:
  4424  002070  0100               	movlb	0	; () banked
  4425  002072  93C3               	bcf	(_rgb+10)& (0+255),1,b	;volatile
  4426  002074                     u14527:
  4427  002074  A3C0               	btfss	(_rgb+7)& (0+255),1,b	;volatile
  4428  002076  D002               	bra	u14535
  4429  002078  83C4               	bsf	(_rgb+11)& (0+255),1,b	;volatile
  4430  00207A  D002               	bra	u14537
  4431  00207C                     u14535:
  4432  00207C  0100               	movlb	0	; () banked
  4433  00207E  93C4               	bcf	(_rgb+11)& (0+255),1,b	;volatile
  4434  002080                     u14537:
  4435                           
  4436                           ;newmain.c: 277:     rgb[10].b = rgb[6].b;rgb[11].b = rgb[7].b;
  4437  002080  A5BF               	btfss	(_rgb+6)& (0+255),2,b	;volatile
  4438  002082  D002               	bra	u14545
  4439  002084  85C3               	bsf	(_rgb+10)& (0+255),2,b	;volatile
  4440  002086  D002               	bra	u14547
  4441  002088                     u14545:
  4442  002088  0100               	movlb	0	; () banked
  4443  00208A  95C3               	bcf	(_rgb+10)& (0+255),2,b	;volatile
  4444  00208C                     u14547:
  4445  00208C  A5C0               	btfss	(_rgb+7)& (0+255),2,b	;volatile
  4446  00208E  D002               	bra	u14555
  4447  002090  85C4               	bsf	(_rgb+11)& (0+255),2,b	;volatile
  4448  002092  D002               	bra	u14557
  4449  002094                     u14555:
  4450  002094  0100               	movlb	0	; () banked
  4451  002096  95C4               	bcf	(_rgb+11)& (0+255),2,b	;volatile
  4452  002098                     u14557:
  4453                           
  4454                           ;newmain.c: 278:     rgb[6].r = rgb[2].r;rgb[7].r = rgb[3].r;
  4455  002098  A1BB               	btfss	(_rgb+2)& (0+255),0,b	;volatile
  4456  00209A  D002               	bra	u14565
  4457  00209C  81BF               	bsf	(_rgb+6)& (0+255),0,b	;volatile
  4458  00209E  D002               	bra	u14567
  4459  0020A0                     u14565:
  4460  0020A0  0100               	movlb	0	; () banked
  4461  0020A2  91BF               	bcf	(_rgb+6)& (0+255),0,b	;volatile
  4462  0020A4                     u14567:
  4463  0020A4  A1BC               	btfss	(_rgb+3)& (0+255),0,b	;volatile
  4464  0020A6  D002               	bra	u14575
  4465  0020A8  81C0               	bsf	(_rgb+7)& (0+255),0,b	;volatile
  4466  0020AA  D002               	bra	u14577
  4467  0020AC                     u14575:
  4468  0020AC  0100               	movlb	0	; () banked
  4469  0020AE  91C0               	bcf	(_rgb+7)& (0+255),0,b	;volatile
  4470  0020B0                     u14577:
  4471                           
  4472                           ;newmain.c: 279:     rgb[6].g = rgb[2].g;rgb[7].g = rgb[3].g;
  4473  0020B0  A3BB               	btfss	(_rgb+2)& (0+255),1,b	;volatile
  4474  0020B2  D002               	bra	u14585
  4475  0020B4  83BF               	bsf	(_rgb+6)& (0+255),1,b	;volatile
  4476  0020B6  D002               	bra	u14587
  4477  0020B8                     u14585:
  4478  0020B8  0100               	movlb	0	; () banked
  4479  0020BA  93BF               	bcf	(_rgb+6)& (0+255),1,b	;volatile
  4480  0020BC                     u14587:
  4481  0020BC  A3BC               	btfss	(_rgb+3)& (0+255),1,b	;volatile
  4482  0020BE  D002               	bra	u14595
  4483  0020C0  83C0               	bsf	(_rgb+7)& (0+255),1,b	;volatile
  4484  0020C2  D002               	bra	u14597
  4485  0020C4                     u14595:
  4486  0020C4  0100               	movlb	0	; () banked
  4487  0020C6  93C0               	bcf	(_rgb+7)& (0+255),1,b	;volatile
  4488  0020C8                     u14597:
  4489                           
  4490                           ;newmain.c: 280:     rgb[6].b = rgb[2].b;rgb[7].b = rgb[3].b;
  4491  0020C8  A5BB               	btfss	(_rgb+2)& (0+255),2,b	;volatile
  4492  0020CA  D002               	bra	u14605
  4493  0020CC  85BF               	bsf	(_rgb+6)& (0+255),2,b	;volatile
  4494  0020CE  D002               	bra	u14607
  4495  0020D0                     u14605:
  4496  0020D0  0100               	movlb	0	; () banked
  4497  0020D2  95BF               	bcf	(_rgb+6)& (0+255),2,b	;volatile
  4498  0020D4                     u14607:
  4499  0020D4  A5BC               	btfss	(_rgb+3)& (0+255),2,b	;volatile
  4500  0020D6  D002               	bra	u14615
  4501  0020D8  85C0               	bsf	(_rgb+7)& (0+255),2,b	;volatile
  4502  0020DA  D002               	bra	u14617
  4503  0020DC                     u14615:
  4504  0020DC  0100               	movlb	0	; () banked
  4505  0020DE  95C0               	bcf	(_rgb+7)& (0+255),2,b	;volatile
  4506  0020E0                     u14617:
  4507                           
  4508                           ;newmain.c: 281:     rgb[2].r = tempc.r;rgb[3].r = tempd.r;
  4509  0020E0  0101               	movlb	1	; () banked
  4510  0020E2  A152               	btfss	rr_u@tempc& (0+255),0,b
  4511  0020E4  D003               	bra	u14625
  4512  0020E6  0100               	movlb	0	; () banked
  4513  0020E8  81BB               	bsf	(_rgb+2)& (0+255),0,b	;volatile
  4514  0020EA  D002               	bra	u14627
  4515  0020EC                     u14625:
  4516  0020EC  0100               	movlb	0	; () banked
  4517  0020EE  91BB               	bcf	(_rgb+2)& (0+255),0,b	;volatile
  4518  0020F0                     u14627:
  4519  0020F0  0101               	movlb	1	; () banked
  4520  0020F2  A153               	btfss	rr_u@tempd& (0+255),0,b
  4521  0020F4  D003               	bra	u14635
  4522  0020F6  0100               	movlb	0	; () banked
  4523  0020F8  81BC               	bsf	(_rgb+3)& (0+255),0,b	;volatile
  4524  0020FA  D002               	bra	u14637
  4525  0020FC                     u14635:
  4526  0020FC  0100               	movlb	0	; () banked
  4527  0020FE  91BC               	bcf	(_rgb+3)& (0+255),0,b	;volatile
  4528  002100                     u14637:
  4529                           
  4530                           ;newmain.c: 282:     rgb[2].g = tempc.g;rgb[3].g = tempd.g;
  4531  002100  0101               	movlb	1	; () banked
  4532  002102  A352               	btfss	rr_u@tempc& (0+255),1,b
  4533  002104  D003               	bra	u14645
  4534  002106  0100               	movlb	0	; () banked
  4535  002108  83BB               	bsf	(_rgb+2)& (0+255),1,b	;volatile
  4536  00210A  D002               	bra	u14647
  4537  00210C                     u14645:
  4538  00210C  0100               	movlb	0	; () banked
  4539  00210E  93BB               	bcf	(_rgb+2)& (0+255),1,b	;volatile
  4540  002110                     u14647:
  4541  002110  0101               	movlb	1	; () banked
  4542  002112  A353               	btfss	rr_u@tempd& (0+255),1,b
  4543  002114  D003               	bra	u14655
  4544  002116  0100               	movlb	0	; () banked
  4545  002118  83BC               	bsf	(_rgb+3)& (0+255),1,b	;volatile
  4546  00211A  D002               	bra	u14657
  4547  00211C                     u14655:
  4548  00211C  0100               	movlb	0	; () banked
  4549  00211E  93BC               	bcf	(_rgb+3)& (0+255),1,b	;volatile
  4550  002120                     u14657:
  4551                           
  4552                           ;newmain.c: 283:     rgb[2].b = tempc.b;rgb[3].b = tempd.b;
  4553  002120  0101               	movlb	1	; () banked
  4554  002122  A552               	btfss	rr_u@tempc& (0+255),2,b
  4555  002124  D003               	bra	u14665
  4556  002126  0100               	movlb	0	; () banked
  4557  002128  85BB               	bsf	(_rgb+2)& (0+255),2,b	;volatile
  4558  00212A  D002               	bra	u14667
  4559  00212C                     u14665:
  4560  00212C  0100               	movlb	0	; () banked
  4561  00212E  95BB               	bcf	(_rgb+2)& (0+255),2,b	;volatile
  4562  002130                     u14667:
  4563  002130  0101               	movlb	1	; () banked
  4564  002132  A553               	btfss	rr_u@tempd& (0+255),2,b
  4565  002134  D003               	bra	u14675
  4566  002136  0100               	movlb	0	; () banked
  4567  002138  85BC               	bsf	(_rgb+3)& (0+255),2,b	;volatile
  4568  00213A  D002               	bra	u14677
  4569  00213C                     u14675:
  4570  00213C  0100               	movlb	0	; () banked
  4571  00213E  95BC               	bcf	(_rgb+3)& (0+255),2,b	;volatile
  4572  002140                     u14677:
  4573                           
  4574                           ;newmain.c: 284:     rgbarray tempf = rgb[23];
  4575  002140  C0D0  F154         	movff	_rgb+23,rr_u@tempf	;volatile
  4576                           
  4577                           ;newmain.c: 285:     rgb[23].r = rgb[22].r;rgb[22].r = rgb[21].r;
  4578  002144  A1CF               	btfss	(_rgb+22)& (0+255),0,b	;volatile
  4579  002146  D002               	bra	u14685
  4580  002148  81D0               	bsf	(_rgb+23)& (0+255),0,b	;volatile
  4581  00214A  D002               	bra	u14687
  4582  00214C                     u14685:
  4583  00214C  0100               	movlb	0	; () banked
  4584  00214E  91D0               	bcf	(_rgb+23)& (0+255),0,b	;volatile
  4585  002150                     u14687:
  4586  002150  A1CE               	btfss	(_rgb+21)& (0+255),0,b	;volatile
  4587  002152  D002               	bra	u14695
  4588  002154  81CF               	bsf	(_rgb+22)& (0+255),0,b	;volatile
  4589  002156  D002               	bra	u14697
  4590  002158                     u14695:
  4591  002158  0100               	movlb	0	; () banked
  4592  00215A  91CF               	bcf	(_rgb+22)& (0+255),0,b	;volatile
  4593  00215C                     u14697:
  4594                           
  4595                           ;newmain.c: 286:     rgb[23].g = rgb[22].g;rgb[22].g = rgb[21].g;
  4596  00215C  A3CF               	btfss	(_rgb+22)& (0+255),1,b	;volatile
  4597  00215E  D002               	bra	u14705
  4598  002160  83D0               	bsf	(_rgb+23)& (0+255),1,b	;volatile
  4599  002162  D002               	bra	u14707
  4600  002164                     u14705:
  4601  002164  0100               	movlb	0	; () banked
  4602  002166  93D0               	bcf	(_rgb+23)& (0+255),1,b	;volatile
  4603  002168                     u14707:
  4604  002168  A3CE               	btfss	(_rgb+21)& (0+255),1,b	;volatile
  4605  00216A  D002               	bra	u14715
  4606  00216C  83CF               	bsf	(_rgb+22)& (0+255),1,b	;volatile
  4607  00216E  D002               	bra	u14717
  4608  002170                     u14715:
  4609  002170  0100               	movlb	0	; () banked
  4610  002172  93CF               	bcf	(_rgb+22)& (0+255),1,b	;volatile
  4611  002174                     u14717:
  4612                           
  4613                           ;newmain.c: 287:     rgb[23].b = rgb[22].b;rgb[22].b = rgb[21].b;
  4614  002174  A5CF               	btfss	(_rgb+22)& (0+255),2,b	;volatile
  4615  002176  D002               	bra	u14725
  4616  002178  85D0               	bsf	(_rgb+23)& (0+255),2,b	;volatile
  4617  00217A  D002               	bra	u14727
  4618  00217C                     u14725:
  4619  00217C  0100               	movlb	0	; () banked
  4620  00217E  95D0               	bcf	(_rgb+23)& (0+255),2,b	;volatile
  4621  002180                     u14727:
  4622  002180  A5CE               	btfss	(_rgb+21)& (0+255),2,b	;volatile
  4623  002182  D002               	bra	u14735
  4624  002184  85CF               	bsf	(_rgb+22)& (0+255),2,b	;volatile
  4625  002186  D002               	bra	u14737
  4626  002188                     u14735:
  4627  002188  0100               	movlb	0	; () banked
  4628  00218A  95CF               	bcf	(_rgb+22)& (0+255),2,b	;volatile
  4629  00218C                     u14737:
  4630                           
  4631                           ;newmain.c: 288:     rgb[21].r = rgb[20].r;rgb[20].r = tempf.r;
  4632  00218C  A1CD               	btfss	(_rgb+20)& (0+255),0,b	;volatile
  4633  00218E  D002               	bra	u14745
  4634  002190  81CE               	bsf	(_rgb+21)& (0+255),0,b	;volatile
  4635  002192  D002               	bra	u14747
  4636  002194                     u14745:
  4637  002194  0100               	movlb	0	; () banked
  4638  002196  91CE               	bcf	(_rgb+21)& (0+255),0,b	;volatile
  4639  002198                     u14747:
  4640  002198  0101               	movlb	1	; () banked
  4641  00219A  A154               	btfss	rr_u@tempf& (0+255),0,b
  4642  00219C  D003               	bra	u14755
  4643  00219E  0100               	movlb	0	; () banked
  4644  0021A0  81CD               	bsf	(_rgb+20)& (0+255),0,b	;volatile
  4645  0021A2  D002               	bra	u14757
  4646  0021A4                     u14755:
  4647  0021A4  0100               	movlb	0	; () banked
  4648  0021A6  91CD               	bcf	(_rgb+20)& (0+255),0,b	;volatile
  4649  0021A8                     u14757:
  4650                           
  4651                           ;newmain.c: 289:     rgb[21].g = rgb[20].g;rgb[20].g = tempf.g;
  4652  0021A8  A3CD               	btfss	(_rgb+20)& (0+255),1,b	;volatile
  4653  0021AA  D002               	bra	u14765
  4654  0021AC  83CE               	bsf	(_rgb+21)& (0+255),1,b	;volatile
  4655  0021AE  D002               	bra	u14767
  4656  0021B0                     u14765:
  4657  0021B0  0100               	movlb	0	; () banked
  4658  0021B2  93CE               	bcf	(_rgb+21)& (0+255),1,b	;volatile
  4659  0021B4                     u14767:
  4660  0021B4  0101               	movlb	1	; () banked
  4661  0021B6  A354               	btfss	rr_u@tempf& (0+255),1,b
  4662  0021B8  D003               	bra	u14775
  4663  0021BA  0100               	movlb	0	; () banked
  4664  0021BC  83CD               	bsf	(_rgb+20)& (0+255),1,b	;volatile
  4665  0021BE  D002               	bra	u14777
  4666  0021C0                     u14775:
  4667  0021C0  0100               	movlb	0	; () banked
  4668  0021C2  93CD               	bcf	(_rgb+20)& (0+255),1,b	;volatile
  4669  0021C4                     u14777:
  4670                           
  4671                           ;newmain.c: 290:     rgb[21].b = rgb[20].b;rgb[20].b = tempf.b;
  4672  0021C4  A5CD               	btfss	(_rgb+20)& (0+255),2,b	;volatile
  4673  0021C6  D002               	bra	u14785
  4674  0021C8  85CE               	bsf	(_rgb+21)& (0+255),2,b	;volatile
  4675  0021CA  D002               	bra	u14787
  4676  0021CC                     u14785:
  4677  0021CC  0100               	movlb	0	; () banked
  4678  0021CE  95CE               	bcf	(_rgb+21)& (0+255),2,b	;volatile
  4679  0021D0                     u14787:
  4680  0021D0  0101               	movlb	1	; () banked
  4681  0021D2  A554               	btfss	rr_u@tempf& (0+255),2,b
  4682  0021D4  D003               	bra	u14795
  4683  0021D6  0100               	movlb	0	; () banked
  4684  0021D8  85CD               	bsf	(_rgb+20)& (0+255),2,b	;volatile
  4685  0021DA  D002               	bra	u14797
  4686  0021DC                     u14795:
  4687  0021DC  0100               	movlb	0	; () banked
  4688  0021DE  95CD               	bcf	(_rgb+20)& (0+255),2,b	;volatile
  4689  0021E0                     u14797:
  4690  0021E0                     
  4691                           ; BSR set to: 0
  4692  0021E0  0012               	return		;funcret
  4693  0021E2                     __end_of_rr_u:
  4694                           	opt callstack 0
  4695                           
  4696 ;; *************** function _rotate_l *****************
  4697 ;; Defined at:
  4698 ;;		line 358 in file "newmain.c"
  4699 ;; Parameters:    Size  Location     Type
  4700 ;;  val             2    8[BANK1 ] int 
  4701 ;; Auto vars:     Size  Location     Type
  4702 ;;  buf             2   13[BANK1 ] int 
  4703 ;;  buf             2   11[BANK1 ] int 
  4704 ;; Return value:  Size  Location     Type
  4705 ;;                  1    wreg      void 
  4706 ;; Registers used:
  4707 ;;		wreg, status,2, status,0, cstack
  4708 ;; Tracked objects:
  4709 ;;		On entry : 0/0
  4710 ;;		On exit  : 0/0
  4711 ;;		Unchanged: 0/0
  4712 ;; Data sizes:     COMRAM   BANK0   BANK1   BANK2   BANK3   BANK4   BANK5
  4713 ;;      Params:         0       0       2       0       0       0       0
  4714 ;;      Locals:         0       0       4       0       0       0       0
  4715 ;;      Temps:          0       0       1       0       0       0       0
  4716 ;;      Totals:         0       0       7       0       0       0       0
  4717 ;;Total ram usage:        7 bytes
  4718 ;; Hardware stack levels used:    1
  4719 ;; Hardware stack levels required when called:    8
  4720 ;; This function calls:
  4721 ;;		_rl
  4722 ;;		_rl_u
  4723 ;; This function is called by:
  4724 ;;		_main
  4725 ;; This function uses a non-reentrant model
  4726 ;;
  4727                           
  4728                           	psect	text9
  4729  0038A8                     __ptext9:
  4730                           	opt callstack 0
  4731  0038A8                     _rotate_l:
  4732                           	opt callstack 22
  4733  0038A8                     
  4734                           ;newmain.c: 360:     if(val > 3){
  4735  0038A8  0101               	movlb	1	; () banked
  4736  0038AA  BF5B               	btfsc	(rotate_l@val+1)& (0+255),7,b
  4737  0038AC  EF61  F01C         	goto	u18551
  4738  0038B0  515B               	movf	(rotate_l@val+1)& (0+255),w,b
  4739  0038B2  E109               	bnz	u18550
  4740  0038B4  0E04               	movlw	4
  4741  0038B6  5D5A               	subwf	rotate_l@val& (0+255),w,b
  4742  0038B8  A0D8               	btfss	status,0,c
  4743  0038BA  EF61  F01C         	goto	u18551
  4744  0038BE  EF63  F01C         	goto	u18550
  4745  0038C2                     u18551:
  4746  0038C2  EF67  F01C         	goto	l3575
  4747  0038C6                     u18550:
  4748  0038C6                     
  4749                           ; BSR set to: 1
  4750                           ;newmain.c: 361:         val = 3;
  4751  0038C6  0E00               	movlw	0
  4752  0038C8  6F5B               	movwf	(rotate_l@val+1)& (0+255),b
  4753  0038CA  0E03               	movlw	3
  4754  0038CC  6F5A               	movwf	rotate_l@val& (0+255),b
  4755  0038CE                     l3575:
  4756                           
  4757                           ; BSR set to: 1
  4758                           ;newmain.c: 363:     if(val>original[3]){
  4759  0038CE  515A               	movf	rotate_l@val& (0+255),w,b
  4760  0038D0  0100               	movlb	0	; () banked
  4761  0038D2  5DD7               	subwf	(_original+6)& (0+255),w,b	;volatile
  4762  0038D4  51D8               	movf	(_original+7)& (0+255),w,b	;volatile
  4763  0038D6  0A80               	xorlw	128
  4764  0038D8  0101               	movlb	1	; () banked
  4765  0038DA  6F5C               	movwf	??_rotate_l& (0+255),b
  4766  0038DC  515B               	movf	(rotate_l@val+1)& (0+255),w,b
  4767  0038DE  0A80               	xorlw	128
  4768  0038E0  595C               	subwfb	??_rotate_l& (0+255),w,b
  4769  0038E2  B0D8               	btfsc	status,0,c
  4770  0038E4  EF76  F01C         	goto	u18561
  4771  0038E8  EF78  F01C         	goto	u18560
  4772  0038EC                     u18561:
  4773  0038EC  EF99  F01C         	goto	l3585
  4774  0038F0                     u18560:
  4775  0038F0                     
  4776                           ; BSR set to: 1
  4777                           ;newmain.c: 364:         int buf = val-original[3];
  4778  0038F0  0100               	movlb	0	; () banked
  4779  0038F2  51D7               	movf	(_original+6)& (0+255),w,b	;volatile
  4780  0038F4  0101               	movlb	1	; () banked
  4781  0038F6  5D5A               	subwf	rotate_l@val& (0+255),w,b
  4782  0038F8  6F5D               	movwf	rotate_l@buf& (0+255),b
  4783  0038FA  0100               	movlb	0	; () banked
  4784  0038FC  51D8               	movf	(_original+7)& (0+255),w,b	;volatile
  4785  0038FE  0101               	movlb	1	; () banked
  4786  003900  595B               	subwfb	(rotate_l@val+1)& (0+255),w,b
  4787  003902  6F5E               	movwf	(rotate_l@buf+1)& (0+255),b
  4788                           
  4789                           ;newmain.c: 365:         while(buf>0){
  4790  003904  EF8A  F01C         	goto	l3583
  4791  003908                     l3579:
  4792                           
  4793                           ; BSR set to: 1
  4794                           ;newmain.c: 366:             rl();
  4795  003908  EC9D  F016         	call	_rl	;wreg free
  4796  00390C                     
  4797                           ;newmain.c: 367:             buf--;
  4798  00390C  0101               	movlb	1	; () banked
  4799  00390E  075D               	decf	rotate_l@buf& (0+255),f,b
  4800  003910  A0D8               	btfss	status,0,c
  4801  003912  075E               	decf	(rotate_l@buf+1)& (0+255),f,b
  4802  003914                     l3583:
  4803                           
  4804                           ; BSR set to: 1
  4805                           ;newmain.c: 365:         while(buf>0){
  4806  003914  BF5E               	btfsc	(rotate_l@buf+1)& (0+255),7,b
  4807  003916  EF97  F01C         	goto	u18570
  4808  00391A  515E               	movf	(rotate_l@buf+1)& (0+255),w,b
  4809  00391C  E106               	bnz	u18571
  4810  00391E  055D               	decf	rotate_l@buf& (0+255),w,b
  4811  003920  B0D8               	btfsc	status,0,c
  4812  003922  EF95  F01C         	goto	u18571
  4813  003926  EF97  F01C         	goto	u18570
  4814  00392A                     u18571:
  4815  00392A  EF84  F01C         	goto	l3579
  4816  00392E                     u18570:
  4817  00392E  EFCB  F01C         	goto	l215
  4818  003932                     l3585:
  4819                           
  4820                           ; BSR set to: 1
  4821  003932  0100               	movlb	0	; () banked
  4822  003934  51D7               	movf	(_original+6)& (0+255),w,b	;volatile
  4823  003936  0101               	movlb	1	; () banked
  4824  003938  5D5A               	subwf	rotate_l@val& (0+255),w,b
  4825  00393A  515B               	movf	(rotate_l@val+1)& (0+255),w,b
  4826  00393C  0A80               	xorlw	128
  4827  00393E  6F5C               	movwf	??_rotate_l& (0+255),b
  4828  003940  0100               	movlb	0	; () banked
  4829  003942  51D8               	movf	(_original+7)& (0+255),w,b	;volatile
  4830  003944  0A80               	xorlw	128
  4831  003946  0101               	movlb	1	; () banked
  4832  003948  595C               	subwfb	??_rotate_l& (0+255),w,b
  4833  00394A  B0D8               	btfsc	status,0,c
  4834  00394C  EFAA  F01C         	goto	u18581
  4835  003950  EFAC  F01C         	goto	u18580
  4836  003954                     u18581:
  4837  003954  EFCB  F01C         	goto	l215
  4838  003958                     u18580:
  4839  003958                     
  4840                           ; BSR set to: 1
  4841                           ;newmain.c: 371:         int buf = original[3]-val;
  4842  003958  515A               	movf	rotate_l@val& (0+255),w,b
  4843  00395A  0100               	movlb	0	; () banked
  4844  00395C  5DD7               	subwf	(_original+6)& (0+255),w,b	;volatile
  4845  00395E  0101               	movlb	1	; () banked
  4846  003960  6F5F               	movwf	rotate_l@buf_1165& (0+255),b
  4847  003962  515B               	movf	(rotate_l@val+1)& (0+255),w,b
  4848  003964  0100               	movlb	0	; () banked
  4849  003966  59D8               	subwfb	(_original+7)& (0+255),w,b	;volatile
  4850  003968  0101               	movlb	1	; () banked
  4851  00396A  6F60               	movwf	(rotate_l@buf_1165+1)& (0+255),b
  4852                           
  4853                           ;newmain.c: 372:         while(buf>0){
  4854  00396C  EFBE  F01C         	goto	l3593
  4855  003970                     l3589:
  4856                           
  4857                           ; BSR set to: 1
  4858                           ;newmain.c: 373:             rl_u();
  4859  003970  ECF1  F010         	call	_rl_u	;wreg free
  4860  003974                     
  4861                           ;newmain.c: 374:             buf--;
  4862  003974  0101               	movlb	1	; () banked
  4863  003976  075F               	decf	rotate_l@buf_1165& (0+255),f,b
  4864  003978  A0D8               	btfss	status,0,c
  4865  00397A  0760               	decf	(rotate_l@buf_1165+1)& (0+255),f,b
  4866  00397C                     l3593:
  4867                           
  4868                           ; BSR set to: 1
  4869                           ;newmain.c: 372:         while(buf>0){
  4870  00397C  BF60               	btfsc	(rotate_l@buf_1165+1)& (0+255),7,b
  4871  00397E  EFCB  F01C         	goto	u18590
  4872  003982  5160               	movf	(rotate_l@buf_1165+1)& (0+255),w,b
  4873  003984  E106               	bnz	u18591
  4874  003986  055F               	decf	rotate_l@buf_1165& (0+255),w,b
  4875  003988  B0D8               	btfsc	status,0,c
  4876  00398A  EFC9  F01C         	goto	u18591
  4877  00398E  EFCB  F01C         	goto	u18590
  4878  003992                     u18591:
  4879  003992  EFB8  F01C         	goto	l3589
  4880  003996                     u18590:
  4881  003996                     l215:
  4882                           
  4883                           ; BSR set to: 1
  4884  003996  0012               	return		;funcret
  4885  003998                     __end_of_rotate_l:
  4886                           	opt callstack 0
  4887                           
  4888 ;; *************** function _rl_u *****************
  4889 ;; Defined at:
  4890 ;;		line 335 in file "newmain.c"
  4891 ;; Parameters:    Size  Location     Type
  4892 ;;		None
  4893 ;; Auto vars:     Size  Location     Type
  4894 ;;  tempf           1    2[BANK1 ] struct RGB
  4895 ;;  tempd           1    1[BANK1 ] struct RGB
  4896 ;;  tempc           1    0[BANK1 ] struct RGB
  4897 ;; Return value:  Size  Location     Type
  4898 ;;                  1    wreg      void 
  4899 ;; Registers used:
  4900 ;;		None
  4901 ;; Tracked objects:
  4902 ;;		On entry : 0/0
  4903 ;;		On exit  : 0/0
  4904 ;;		Unchanged: 0/0
  4905 ;; Data sizes:     COMRAM   BANK0   BANK1   BANK2   BANK3   BANK4   BANK5
  4906 ;;      Params:         0       0       0       0       0       0       0
  4907 ;;      Locals:         0       0       3       0       0       0       0
  4908 ;;      Temps:          0       0       0       0       0       0       0
  4909 ;;      Totals:         0       0       3       0       0       0       0
  4910 ;;Total ram usage:        3 bytes
  4911 ;; Hardware stack levels used:    1
  4912 ;; Hardware stack levels required when called:    7
  4913 ;; This function calls:
  4914 ;;		Nothing
  4915 ;; This function is called by:
  4916 ;;		_rotate_l
  4917 ;; This function uses a non-reentrant model
  4918 ;;
  4919                           
  4920                           	psect	text10
  4921  0021E2                     __ptext10:
  4922                           	opt callstack 0
  4923  0021E2                     _rl_u:
  4924                           	opt callstack 22
  4925  0021E2                     
  4926                           ;newmain.c: 336:     rgbarray tempc = rgb[12];
  4927  0021E2  C0C5  F152         	movff	_rgb+12,rl_u@tempc	;volatile
  4928                           
  4929                           ;newmain.c: 337:     rgbarray tempd = rgb[13];
  4930  0021E6  C0C6  F153         	movff	_rgb+13,rl_u@tempd	;volatile
  4931                           
  4932                           ;newmain.c: 338:     rgb[12].r = rgb[8].r;rgb[13].r = rgb[9].r;
  4933  0021EA  0100               	movlb	0	; () banked
  4934  0021EC  A1C1               	btfss	(_rgb+8)& (0+255),0,b	;volatile
  4935  0021EE  D002               	bra	u15165
  4936  0021F0  81C5               	bsf	(_rgb+12)& (0+255),0,b	;volatile
  4937  0021F2  D002               	bra	u15167
  4938  0021F4                     u15165:
  4939  0021F4  0100               	movlb	0	; () banked
  4940  0021F6  91C5               	bcf	(_rgb+12)& (0+255),0,b	;volatile
  4941  0021F8                     u15167:
  4942  0021F8  A1C2               	btfss	(_rgb+9)& (0+255),0,b	;volatile
  4943  0021FA  D002               	bra	u15175
  4944  0021FC  81C6               	bsf	(_rgb+13)& (0+255),0,b	;volatile
  4945  0021FE  D002               	bra	u15177
  4946  002200                     u15175:
  4947  002200  0100               	movlb	0	; () banked
  4948  002202  91C6               	bcf	(_rgb+13)& (0+255),0,b	;volatile
  4949  002204                     u15177:
  4950                           
  4951                           ;newmain.c: 339:     rgb[12].g = rgb[8].g;rgb[13].g = rgb[9].g;
  4952  002204  A3C1               	btfss	(_rgb+8)& (0+255),1,b	;volatile
  4953  002206  D002               	bra	u15185
  4954  002208  83C5               	bsf	(_rgb+12)& (0+255),1,b	;volatile
  4955  00220A  D002               	bra	u15187
  4956  00220C                     u15185:
  4957  00220C  0100               	movlb	0	; () banked
  4958  00220E  93C5               	bcf	(_rgb+12)& (0+255),1,b	;volatile
  4959  002210                     u15187:
  4960  002210  A3C2               	btfss	(_rgb+9)& (0+255),1,b	;volatile
  4961  002212  D002               	bra	u15195
  4962  002214  83C6               	bsf	(_rgb+13)& (0+255),1,b	;volatile
  4963  002216  D002               	bra	u15197
  4964  002218                     u15195:
  4965  002218  0100               	movlb	0	; () banked
  4966  00221A  93C6               	bcf	(_rgb+13)& (0+255),1,b	;volatile
  4967  00221C                     u15197:
  4968                           
  4969                           ;newmain.c: 340:     rgb[12].b = rgb[8].b;rgb[13].b = rgb[9].b;
  4970  00221C  A5C1               	btfss	(_rgb+8)& (0+255),2,b	;volatile
  4971  00221E  D002               	bra	u15205
  4972  002220  85C5               	bsf	(_rgb+12)& (0+255),2,b	;volatile
  4973  002222  D002               	bra	u15207
  4974  002224                     u15205:
  4975  002224  0100               	movlb	0	; () banked
  4976  002226  95C5               	bcf	(_rgb+12)& (0+255),2,b	;volatile
  4977  002228                     u15207:
  4978  002228  A5C2               	btfss	(_rgb+9)& (0+255),2,b	;volatile
  4979  00222A  D002               	bra	u15215
  4980  00222C  85C6               	bsf	(_rgb+13)& (0+255),2,b	;volatile
  4981  00222E  D002               	bra	u15217
  4982  002230                     u15215:
  4983  002230  0100               	movlb	0	; () banked
  4984  002232  95C6               	bcf	(_rgb+13)& (0+255),2,b	;volatile
  4985  002234                     u15217:
  4986                           
  4987                           ;newmain.c: 341:     rgb[8].r = rgb[4].r;rgb[9].r = rgb[5].r;
  4988  002234  A1BD               	btfss	(_rgb+4)& (0+255),0,b	;volatile
  4989  002236  D002               	bra	u15225
  4990  002238  81C1               	bsf	(_rgb+8)& (0+255),0,b	;volatile
  4991  00223A  D002               	bra	u15227
  4992  00223C                     u15225:
  4993  00223C  0100               	movlb	0	; () banked
  4994  00223E  91C1               	bcf	(_rgb+8)& (0+255),0,b	;volatile
  4995  002240                     u15227:
  4996  002240  A1BE               	btfss	(_rgb+5)& (0+255),0,b	;volatile
  4997  002242  D002               	bra	u15235
  4998  002244  81C2               	bsf	(_rgb+9)& (0+255),0,b	;volatile
  4999  002246  D002               	bra	u15237
  5000  002248                     u15235:
  5001  002248  0100               	movlb	0	; () banked
  5002  00224A  91C2               	bcf	(_rgb+9)& (0+255),0,b	;volatile
  5003  00224C                     u15237:
  5004                           
  5005                           ;newmain.c: 342:     rgb[8].g = rgb[4].g;rgb[9].g = rgb[5].g;
  5006  00224C  A3BD               	btfss	(_rgb+4)& (0+255),1,b	;volatile
  5007  00224E  D002               	bra	u15245
  5008  002250  83C1               	bsf	(_rgb+8)& (0+255),1,b	;volatile
  5009  002252  D002               	bra	u15247
  5010  002254                     u15245:
  5011  002254  0100               	movlb	0	; () banked
  5012  002256  93C1               	bcf	(_rgb+8)& (0+255),1,b	;volatile
  5013  002258                     u15247:
  5014  002258  A3BE               	btfss	(_rgb+5)& (0+255),1,b	;volatile
  5015  00225A  D002               	bra	u15255
  5016  00225C  83C2               	bsf	(_rgb+9)& (0+255),1,b	;volatile
  5017  00225E  D002               	bra	u15257
  5018  002260                     u15255:
  5019  002260  0100               	movlb	0	; () banked
  5020  002262  93C2               	bcf	(_rgb+9)& (0+255),1,b	;volatile
  5021  002264                     u15257:
  5022                           
  5023                           ;newmain.c: 343:     rgb[8].b = rgb[4].b;rgb[9].b = rgb[5].b;
  5024  002264  A5BD               	btfss	(_rgb+4)& (0+255),2,b	;volatile
  5025  002266  D002               	bra	u15265
  5026  002268  85C1               	bsf	(_rgb+8)& (0+255),2,b	;volatile
  5027  00226A  D002               	bra	u15267
  5028  00226C                     u15265:
  5029  00226C  0100               	movlb	0	; () banked
  5030  00226E  95C1               	bcf	(_rgb+8)& (0+255),2,b	;volatile
  5031  002270                     u15267:
  5032  002270  A5BE               	btfss	(_rgb+5)& (0+255),2,b	;volatile
  5033  002272  D002               	bra	u15275
  5034  002274  85C2               	bsf	(_rgb+9)& (0+255),2,b	;volatile
  5035  002276  D002               	bra	u15277
  5036  002278                     u15275:
  5037  002278  0100               	movlb	0	; () banked
  5038  00227A  95C2               	bcf	(_rgb+9)& (0+255),2,b	;volatile
  5039  00227C                     u15277:
  5040                           
  5041                           ;newmain.c: 344:     rgb[4].r = rgb[0].r;rgb[5].r = rgb[1].r;
  5042  00227C  A1B9               	btfss	_rgb& (0+255),0,b	;volatile
  5043  00227E  D002               	bra	u15285
  5044  002280  81BD               	bsf	(_rgb+4)& (0+255),0,b	;volatile
  5045  002282  D002               	bra	u15287
  5046  002284                     u15285:
  5047  002284  0100               	movlb	0	; () banked
  5048  002286  91BD               	bcf	(_rgb+4)& (0+255),0,b	;volatile
  5049  002288                     u15287:
  5050  002288  A1BA               	btfss	(_rgb+1)& (0+255),0,b	;volatile
  5051  00228A  D002               	bra	u15295
  5052  00228C  81BE               	bsf	(_rgb+5)& (0+255),0,b	;volatile
  5053  00228E  D002               	bra	u15297
  5054  002290                     u15295:
  5055  002290  0100               	movlb	0	; () banked
  5056  002292  91BE               	bcf	(_rgb+5)& (0+255),0,b	;volatile
  5057  002294                     u15297:
  5058                           
  5059                           ;newmain.c: 345:     rgb[4].g = rgb[0].g;rgb[5].g = rgb[1].g;
  5060  002294  A3B9               	btfss	_rgb& (0+255),1,b	;volatile
  5061  002296  D002               	bra	u15305
  5062  002298  83BD               	bsf	(_rgb+4)& (0+255),1,b	;volatile
  5063  00229A  D002               	bra	u15307
  5064  00229C                     u15305:
  5065  00229C  0100               	movlb	0	; () banked
  5066  00229E  93BD               	bcf	(_rgb+4)& (0+255),1,b	;volatile
  5067  0022A0                     u15307:
  5068  0022A0  A3BA               	btfss	(_rgb+1)& (0+255),1,b	;volatile
  5069  0022A2  D002               	bra	u15315
  5070  0022A4  83BE               	bsf	(_rgb+5)& (0+255),1,b	;volatile
  5071  0022A6  D002               	bra	u15317
  5072  0022A8                     u15315:
  5073  0022A8  0100               	movlb	0	; () banked
  5074  0022AA  93BE               	bcf	(_rgb+5)& (0+255),1,b	;volatile
  5075  0022AC                     u15317:
  5076                           
  5077                           ;newmain.c: 346:     rgb[4].b = rgb[0].b;rgb[5].b = rgb[1].b;
  5078  0022AC  A5B9               	btfss	_rgb& (0+255),2,b	;volatile
  5079  0022AE  D002               	bra	u15325
  5080  0022B0  85BD               	bsf	(_rgb+4)& (0+255),2,b	;volatile
  5081  0022B2  D002               	bra	u15327
  5082  0022B4                     u15325:
  5083  0022B4  0100               	movlb	0	; () banked
  5084  0022B6  95BD               	bcf	(_rgb+4)& (0+255),2,b	;volatile
  5085  0022B8                     u15327:
  5086  0022B8  A5BA               	btfss	(_rgb+1)& (0+255),2,b	;volatile
  5087  0022BA  D002               	bra	u15335
  5088  0022BC  85BE               	bsf	(_rgb+5)& (0+255),2,b	;volatile
  5089  0022BE  D002               	bra	u15337
  5090  0022C0                     u15335:
  5091  0022C0  0100               	movlb	0	; () banked
  5092  0022C2  95BE               	bcf	(_rgb+5)& (0+255),2,b	;volatile
  5093  0022C4                     u15337:
  5094                           
  5095                           ;newmain.c: 347:     rgb[0].r = tempc.r;rgb[1].r = tempd.r;
  5096  0022C4  0101               	movlb	1	; () banked
  5097  0022C6  A152               	btfss	rl_u@tempc& (0+255),0,b
  5098  0022C8  D003               	bra	u15345
  5099  0022CA  0100               	movlb	0	; () banked
  5100  0022CC  81B9               	bsf	_rgb& (0+255),0,b	;volatile
  5101  0022CE  D002               	bra	u15347
  5102  0022D0                     u15345:
  5103  0022D0  0100               	movlb	0	; () banked
  5104  0022D2  91B9               	bcf	_rgb& (0+255),0,b	;volatile
  5105  0022D4                     u15347:
  5106  0022D4  0101               	movlb	1	; () banked
  5107  0022D6  A153               	btfss	rl_u@tempd& (0+255),0,b
  5108  0022D8  D003               	bra	u15355
  5109  0022DA  0100               	movlb	0	; () banked
  5110  0022DC  81BA               	bsf	(_rgb+1)& (0+255),0,b	;volatile
  5111  0022DE  D002               	bra	u15357
  5112  0022E0                     u15355:
  5113  0022E0  0100               	movlb	0	; () banked
  5114  0022E2  91BA               	bcf	(_rgb+1)& (0+255),0,b	;volatile
  5115  0022E4                     u15357:
  5116                           
  5117                           ;newmain.c: 348:     rgb[0].g = tempc.g;rgb[1].g = tempd.g;
  5118  0022E4  0101               	movlb	1	; () banked
  5119  0022E6  A352               	btfss	rl_u@tempc& (0+255),1,b
  5120  0022E8  D003               	bra	u15365
  5121  0022EA  0100               	movlb	0	; () banked
  5122  0022EC  83B9               	bsf	_rgb& (0+255),1,b	;volatile
  5123  0022EE  D002               	bra	u15367
  5124  0022F0                     u15365:
  5125  0022F0  0100               	movlb	0	; () banked
  5126  0022F2  93B9               	bcf	_rgb& (0+255),1,b	;volatile
  5127  0022F4                     u15367:
  5128  0022F4  0101               	movlb	1	; () banked
  5129  0022F6  A353               	btfss	rl_u@tempd& (0+255),1,b
  5130  0022F8  D003               	bra	u15375
  5131  0022FA  0100               	movlb	0	; () banked
  5132  0022FC  83BA               	bsf	(_rgb+1)& (0+255),1,b	;volatile
  5133  0022FE  D002               	bra	u15377
  5134  002300                     u15375:
  5135  002300  0100               	movlb	0	; () banked
  5136  002302  93BA               	bcf	(_rgb+1)& (0+255),1,b	;volatile
  5137  002304                     u15377:
  5138                           
  5139                           ;newmain.c: 349:     rgb[0].b = tempc.b;rgb[1].b = tempd.b;
  5140  002304  0101               	movlb	1	; () banked
  5141  002306  A552               	btfss	rl_u@tempc& (0+255),2,b
  5142  002308  D003               	bra	u15385
  5143  00230A  0100               	movlb	0	; () banked
  5144  00230C  85B9               	bsf	_rgb& (0+255),2,b	;volatile
  5145  00230E  D002               	bra	u15387
  5146  002310                     u15385:
  5147  002310  0100               	movlb	0	; () banked
  5148  002312  95B9               	bcf	_rgb& (0+255),2,b	;volatile
  5149  002314                     u15387:
  5150  002314  0101               	movlb	1	; () banked
  5151  002316  A553               	btfss	rl_u@tempd& (0+255),2,b
  5152  002318  D003               	bra	u15395
  5153  00231A  0100               	movlb	0	; () banked
  5154  00231C  85BA               	bsf	(_rgb+1)& (0+255),2,b	;volatile
  5155  00231E  D002               	bra	u15397
  5156  002320                     u15395:
  5157  002320  0100               	movlb	0	; () banked
  5158  002322  95BA               	bcf	(_rgb+1)& (0+255),2,b	;volatile
  5159  002324                     u15397:
  5160                           
  5161                           ;newmain.c: 350:     rgbarray tempf = rgb[16];
  5162  002324  C0C9  F154         	movff	_rgb+16,rl_u@tempf	;volatile
  5163                           
  5164                           ;newmain.c: 351:     rgb[16].r = rgb[17].r;rgb[17].r = rgb[18].r;
  5165  002328  A1CA               	btfss	(_rgb+17)& (0+255),0,b	;volatile
  5166  00232A  D002               	bra	u15405
  5167  00232C  81C9               	bsf	(_rgb+16)& (0+255),0,b	;volatile
  5168  00232E  D002               	bra	u15407
  5169  002330                     u15405:
  5170  002330  0100               	movlb	0	; () banked
  5171  002332  91C9               	bcf	(_rgb+16)& (0+255),0,b	;volatile
  5172  002334                     u15407:
  5173  002334  A1CB               	btfss	(_rgb+18)& (0+255),0,b	;volatile
  5174  002336  D002               	bra	u15415
  5175  002338  81CA               	bsf	(_rgb+17)& (0+255),0,b	;volatile
  5176  00233A  D002               	bra	u15417
  5177  00233C                     u15415:
  5178  00233C  0100               	movlb	0	; () banked
  5179  00233E  91CA               	bcf	(_rgb+17)& (0+255),0,b	;volatile
  5180  002340                     u15417:
  5181                           
  5182                           ;newmain.c: 352:     rgb[16].g = rgb[17].g;rgb[17].g = rgb[18].g;
  5183  002340  A3CA               	btfss	(_rgb+17)& (0+255),1,b	;volatile
  5184  002342  D002               	bra	u15425
  5185  002344  83C9               	bsf	(_rgb+16)& (0+255),1,b	;volatile
  5186  002346  D002               	bra	u15427
  5187  002348                     u15425:
  5188  002348  0100               	movlb	0	; () banked
  5189  00234A  93C9               	bcf	(_rgb+16)& (0+255),1,b	;volatile
  5190  00234C                     u15427:
  5191  00234C  A3CB               	btfss	(_rgb+18)& (0+255),1,b	;volatile
  5192  00234E  D002               	bra	u15435
  5193  002350  83CA               	bsf	(_rgb+17)& (0+255),1,b	;volatile
  5194  002352  D002               	bra	u15437
  5195  002354                     u15435:
  5196  002354  0100               	movlb	0	; () banked
  5197  002356  93CA               	bcf	(_rgb+17)& (0+255),1,b	;volatile
  5198  002358                     u15437:
  5199                           
  5200                           ;newmain.c: 353:     rgb[16].b = rgb[17].b;rgb[17].b = rgb[18].b;
  5201  002358  A5CA               	btfss	(_rgb+17)& (0+255),2,b	;volatile
  5202  00235A  D002               	bra	u15445
  5203  00235C  85C9               	bsf	(_rgb+16)& (0+255),2,b	;volatile
  5204  00235E  D002               	bra	u15447
  5205  002360                     u15445:
  5206  002360  0100               	movlb	0	; () banked
  5207  002362  95C9               	bcf	(_rgb+16)& (0+255),2,b	;volatile
  5208  002364                     u15447:
  5209  002364  A5CB               	btfss	(_rgb+18)& (0+255),2,b	;volatile
  5210  002366  D002               	bra	u15455
  5211  002368  85CA               	bsf	(_rgb+17)& (0+255),2,b	;volatile
  5212  00236A  D002               	bra	u15457
  5213  00236C                     u15455:
  5214  00236C  0100               	movlb	0	; () banked
  5215  00236E  95CA               	bcf	(_rgb+17)& (0+255),2,b	;volatile
  5216  002370                     u15457:
  5217                           
  5218                           ;newmain.c: 354:     rgb[18].r = rgb[19].r;rgb[19].r = tempf.r;
  5219  002370  A1CC               	btfss	(_rgb+19)& (0+255),0,b	;volatile
  5220  002372  D002               	bra	u15465
  5221  002374  81CB               	bsf	(_rgb+18)& (0+255),0,b	;volatile
  5222  002376  D002               	bra	u15467
  5223  002378                     u15465:
  5224  002378  0100               	movlb	0	; () banked
  5225  00237A  91CB               	bcf	(_rgb+18)& (0+255),0,b	;volatile
  5226  00237C                     u15467:
  5227  00237C  0101               	movlb	1	; () banked
  5228  00237E  A154               	btfss	rl_u@tempf& (0+255),0,b
  5229  002380  D003               	bra	u15475
  5230  002382  0100               	movlb	0	; () banked
  5231  002384  81CC               	bsf	(_rgb+19)& (0+255),0,b	;volatile
  5232  002386  D002               	bra	u15477
  5233  002388                     u15475:
  5234  002388  0100               	movlb	0	; () banked
  5235  00238A  91CC               	bcf	(_rgb+19)& (0+255),0,b	;volatile
  5236  00238C                     u15477:
  5237                           
  5238                           ;newmain.c: 355:     rgb[18].g = rgb[19].g;rgb[19].g = tempf.g;
  5239  00238C  A3CC               	btfss	(_rgb+19)& (0+255),1,b	;volatile
  5240  00238E  D002               	bra	u15485
  5241  002390  83CB               	bsf	(_rgb+18)& (0+255),1,b	;volatile
  5242  002392  D002               	bra	u15487
  5243  002394                     u15485:
  5244  002394  0100               	movlb	0	; () banked
  5245  002396  93CB               	bcf	(_rgb+18)& (0+255),1,b	;volatile
  5246  002398                     u15487:
  5247  002398  0101               	movlb	1	; () banked
  5248  00239A  A354               	btfss	rl_u@tempf& (0+255),1,b
  5249  00239C  D003               	bra	u15495
  5250  00239E  0100               	movlb	0	; () banked
  5251  0023A0  83CC               	bsf	(_rgb+19)& (0+255),1,b	;volatile
  5252  0023A2  D002               	bra	u15497
  5253  0023A4                     u15495:
  5254  0023A4  0100               	movlb	0	; () banked
  5255  0023A6  93CC               	bcf	(_rgb+19)& (0+255),1,b	;volatile
  5256  0023A8                     u15497:
  5257                           
  5258                           ;newmain.c: 356:     rgb[18].b = rgb[19].b;rgb[19].b = tempf.b;
  5259  0023A8  A5CC               	btfss	(_rgb+19)& (0+255),2,b	;volatile
  5260  0023AA  D002               	bra	u15505
  5261  0023AC  85CB               	bsf	(_rgb+18)& (0+255),2,b	;volatile
  5262  0023AE  D002               	bra	u15507
  5263  0023B0                     u15505:
  5264  0023B0  0100               	movlb	0	; () banked
  5265  0023B2  95CB               	bcf	(_rgb+18)& (0+255),2,b	;volatile
  5266  0023B4                     u15507:
  5267  0023B4  0101               	movlb	1	; () banked
  5268  0023B6  A554               	btfss	rl_u@tempf& (0+255),2,b
  5269  0023B8  D003               	bra	u15515
  5270  0023BA  0100               	movlb	0	; () banked
  5271  0023BC  85CC               	bsf	(_rgb+19)& (0+255),2,b	;volatile
  5272  0023BE  D002               	bra	u15517
  5273  0023C0                     u15515:
  5274  0023C0  0100               	movlb	0	; () banked
  5275  0023C2  95CC               	bcf	(_rgb+19)& (0+255),2,b	;volatile
  5276  0023C4                     u15517:
  5277  0023C4                     
  5278                           ; BSR set to: 0
  5279  0023C4  0012               	return		;funcret
  5280  0023C6                     __end_of_rl_u:
  5281                           	opt callstack 0
  5282                           
  5283 ;; *************** function _rotate_bot *****************
  5284 ;; Defined at:
  5285 ;;		line 491 in file "newmain.c"
  5286 ;; Parameters:    Size  Location     Type
  5287 ;;  val             2    8[BANK1 ] int 
  5288 ;; Auto vars:     Size  Location     Type
  5289 ;;  buf             2   13[BANK1 ] int 
  5290 ;;  buf             2   11[BANK1 ] int 
  5291 ;; Return value:  Size  Location     Type
  5292 ;;                  1    wreg      void 
  5293 ;; Registers used:
  5294 ;;		wreg, status,2, status,0, cstack
  5295 ;; Tracked objects:
  5296 ;;		On entry : 0/0
  5297 ;;		On exit  : 0/0
  5298 ;;		Unchanged: 0/0
  5299 ;; Data sizes:     COMRAM   BANK0   BANK1   BANK2   BANK3   BANK4   BANK5
  5300 ;;      Params:         0       0       2       0       0       0       0
  5301 ;;      Locals:         0       0       4       0       0       0       0
  5302 ;;      Temps:          0       0       1       0       0       0       0
  5303 ;;      Totals:         0       0       7       0       0       0       0
  5304 ;;Total ram usage:        7 bytes
  5305 ;; Hardware stack levels used:    1
  5306 ;; Hardware stack levels required when called:    8
  5307 ;; This function calls:
  5308 ;;		_rb
  5309 ;;		_rb_u
  5310 ;; This function is called by:
  5311 ;;		_main
  5312 ;; This function uses a non-reentrant model
  5313 ;;
  5314                           
  5315                           	psect	text11
  5316  003998                     __ptext11:
  5317                           	opt callstack 0
  5318  003998                     _rotate_bot:
  5319                           	opt callstack 22
  5320  003998                     
  5321                           ;newmain.c: 493:     if(val > 3){
  5322  003998  0101               	movlb	1	; () banked
  5323  00399A  BF5B               	btfsc	(rotate_bot@val+1)& (0+255),7,b
  5324  00399C  EFD9  F01C         	goto	u18651
  5325  0039A0  515B               	movf	(rotate_bot@val+1)& (0+255),w,b
  5326  0039A2  E109               	bnz	u18650
  5327  0039A4  0E04               	movlw	4
  5328  0039A6  5D5A               	subwf	rotate_bot@val& (0+255),w,b
  5329  0039A8  A0D8               	btfss	status,0,c
  5330  0039AA  EFD9  F01C         	goto	u18651
  5331  0039AE  EFDB  F01C         	goto	u18650
  5332  0039B2                     u18651:
  5333  0039B2  EFDF  F01C         	goto	l3623
  5334  0039B6                     u18650:
  5335  0039B6                     
  5336                           ; BSR set to: 1
  5337                           ;newmain.c: 494:         val = 3;
  5338  0039B6  0E00               	movlw	0
  5339  0039B8  6F5B               	movwf	(rotate_bot@val+1)& (0+255),b
  5340  0039BA  0E03               	movlw	3
  5341  0039BC  6F5A               	movwf	rotate_bot@val& (0+255),b
  5342  0039BE                     l3623:
  5343                           
  5344                           ; BSR set to: 1
  5345                           ;newmain.c: 496:     if(val>original[1]){
  5346  0039BE  515A               	movf	rotate_bot@val& (0+255),w,b
  5347  0039C0  0100               	movlb	0	; () banked
  5348  0039C2  5DD3               	subwf	(_original+2)& (0+255),w,b	;volatile
  5349  0039C4  51D4               	movf	(_original+3)& (0+255),w,b	;volatile
  5350  0039C6  0A80               	xorlw	128
  5351  0039C8  0101               	movlb	1	; () banked
  5352  0039CA  6F5C               	movwf	??_rotate_bot& (0+255),b
  5353  0039CC  515B               	movf	(rotate_bot@val+1)& (0+255),w,b
  5354  0039CE  0A80               	xorlw	128
  5355  0039D0  595C               	subwfb	??_rotate_bot& (0+255),w,b
  5356  0039D2  B0D8               	btfsc	status,0,c
  5357  0039D4  EFEE  F01C         	goto	u18661
  5358  0039D8  EFF0  F01C         	goto	u18660
  5359  0039DC                     u18661:
  5360  0039DC  EF11  F01D         	goto	l3633
  5361  0039E0                     u18660:
  5362  0039E0                     
  5363                           ; BSR set to: 1
  5364                           ;newmain.c: 497:         int buf = val-original[1];
  5365  0039E0  0100               	movlb	0	; () banked
  5366  0039E2  51D3               	movf	(_original+2)& (0+255),w,b	;volatile
  5367  0039E4  0101               	movlb	1	; () banked
  5368  0039E6  5D5A               	subwf	rotate_bot@val& (0+255),w,b
  5369  0039E8  6F5D               	movwf	rotate_bot@buf& (0+255),b
  5370  0039EA  0100               	movlb	0	; () banked
  5371  0039EC  51D4               	movf	(_original+3)& (0+255),w,b	;volatile
  5372  0039EE  0101               	movlb	1	; () banked
  5373  0039F0  595B               	subwfb	(rotate_bot@val+1)& (0+255),w,b
  5374  0039F2  6F5E               	movwf	(rotate_bot@buf+1)& (0+255),b
  5375                           
  5376                           ;newmain.c: 498:         while(buf>0){
  5377  0039F4  EF02  F01D         	goto	l3631
  5378  0039F8                     l3627:
  5379                           
  5380                           ; BSR set to: 1
  5381                           ;newmain.c: 499:             rb();
  5382  0039F8  EC8F  F017         	call	_rb	;wreg free
  5383  0039FC                     
  5384                           ;newmain.c: 500:             buf--;
  5385  0039FC  0101               	movlb	1	; () banked
  5386  0039FE  075D               	decf	rotate_bot@buf& (0+255),f,b
  5387  003A00  A0D8               	btfss	status,0,c
  5388  003A02  075E               	decf	(rotate_bot@buf+1)& (0+255),f,b
  5389  003A04                     l3631:
  5390                           
  5391                           ; BSR set to: 1
  5392                           ;newmain.c: 498:         while(buf>0){
  5393  003A04  BF5E               	btfsc	(rotate_bot@buf+1)& (0+255),7,b
  5394  003A06  EF0F  F01D         	goto	u18670
  5395  003A0A  515E               	movf	(rotate_bot@buf+1)& (0+255),w,b
  5396  003A0C  E106               	bnz	u18671
  5397  003A0E  055D               	decf	rotate_bot@buf& (0+255),w,b
  5398  003A10  B0D8               	btfsc	status,0,c
  5399  003A12  EF0D  F01D         	goto	u18671
  5400  003A16  EF0F  F01D         	goto	u18670
  5401  003A1A                     u18671:
  5402  003A1A  EFFC  F01C         	goto	l3627
  5403  003A1E                     u18670:
  5404  003A1E  EF43  F01D         	goto	l253
  5405  003A22                     l3633:
  5406                           
  5407                           ; BSR set to: 1
  5408  003A22  0100               	movlb	0	; () banked
  5409  003A24  51D3               	movf	(_original+2)& (0+255),w,b	;volatile
  5410  003A26  0101               	movlb	1	; () banked
  5411  003A28  5D5A               	subwf	rotate_bot@val& (0+255),w,b
  5412  003A2A  515B               	movf	(rotate_bot@val+1)& (0+255),w,b
  5413  003A2C  0A80               	xorlw	128
  5414  003A2E  6F5C               	movwf	??_rotate_bot& (0+255),b
  5415  003A30  0100               	movlb	0	; () banked
  5416  003A32  51D4               	movf	(_original+3)& (0+255),w,b	;volatile
  5417  003A34  0A80               	xorlw	128
  5418  003A36  0101               	movlb	1	; () banked
  5419  003A38  595C               	subwfb	??_rotate_bot& (0+255),w,b
  5420  003A3A  B0D8               	btfsc	status,0,c
  5421  003A3C  EF22  F01D         	goto	u18681
  5422  003A40  EF24  F01D         	goto	u18680
  5423  003A44                     u18681:
  5424  003A44  EF43  F01D         	goto	l253
  5425  003A48                     u18680:
  5426  003A48                     
  5427                           ; BSR set to: 1
  5428                           ;newmain.c: 504:         int buf = original[1]-val;
  5429  003A48  515A               	movf	rotate_bot@val& (0+255),w,b
  5430  003A4A  0100               	movlb	0	; () banked
  5431  003A4C  5DD3               	subwf	(_original+2)& (0+255),w,b	;volatile
  5432  003A4E  0101               	movlb	1	; () banked
  5433  003A50  6F5F               	movwf	rotate_bot@buf_1409& (0+255),b
  5434  003A52  515B               	movf	(rotate_bot@val+1)& (0+255),w,b
  5435  003A54  0100               	movlb	0	; () banked
  5436  003A56  59D4               	subwfb	(_original+3)& (0+255),w,b	;volatile
  5437  003A58  0101               	movlb	1	; () banked
  5438  003A5A  6F60               	movwf	(rotate_bot@buf_1409+1)& (0+255),b
  5439                           
  5440                           ;newmain.c: 505:         while(buf>0){
  5441  003A5C  EF36  F01D         	goto	l3641
  5442  003A60                     l3637:
  5443                           
  5444                           ; BSR set to: 1
  5445                           ;newmain.c: 506:             rb_u();
  5446  003A60  ECE3  F011         	call	_rb_u	;wreg free
  5447  003A64                     
  5448                           ;newmain.c: 507:             buf--;
  5449  003A64  0101               	movlb	1	; () banked
  5450  003A66  075F               	decf	rotate_bot@buf_1409& (0+255),f,b
  5451  003A68  A0D8               	btfss	status,0,c
  5452  003A6A  0760               	decf	(rotate_bot@buf_1409+1)& (0+255),f,b
  5453  003A6C                     l3641:
  5454                           
  5455                           ; BSR set to: 1
  5456                           ;newmain.c: 505:         while(buf>0){
  5457  003A6C  BF60               	btfsc	(rotate_bot@buf_1409+1)& (0+255),7,b
  5458  003A6E  EF43  F01D         	goto	u18690
  5459  003A72  5160               	movf	(rotate_bot@buf_1409+1)& (0+255),w,b
  5460  003A74  E106               	bnz	u18691
  5461  003A76  055F               	decf	rotate_bot@buf_1409& (0+255),w,b
  5462  003A78  B0D8               	btfsc	status,0,c
  5463  003A7A  EF41  F01D         	goto	u18691
  5464  003A7E  EF43  F01D         	goto	u18690
  5465  003A82                     u18691:
  5466  003A82  EF30  F01D         	goto	l3637
  5467  003A86                     u18690:
  5468  003A86                     l253:
  5469                           
  5470                           ; BSR set to: 1
  5471  003A86  0012               	return		;funcret
  5472  003A88                     __end_of_rotate_bot:
  5473                           	opt callstack 0
  5474                           
  5475 ;; *************** function _rb_u *****************
  5476 ;; Defined at:
  5477 ;;		line 468 in file "newmain.c"
  5478 ;; Parameters:    Size  Location     Type
  5479 ;;		None
  5480 ;; Auto vars:     Size  Location     Type
  5481 ;;  tempa           1    2[BANK1 ] struct RGB
  5482 ;;  tempd           1    1[BANK1 ] struct RGB
  5483 ;;  tempc           1    0[BANK1 ] struct RGB
  5484 ;; Return value:  Size  Location     Type
  5485 ;;                  1    wreg      void 
  5486 ;; Registers used:
  5487 ;;		None
  5488 ;; Tracked objects:
  5489 ;;		On entry : 0/0
  5490 ;;		On exit  : 0/0
  5491 ;;		Unchanged: 0/0
  5492 ;; Data sizes:     COMRAM   BANK0   BANK1   BANK2   BANK3   BANK4   BANK5
  5493 ;;      Params:         0       0       0       0       0       0       0
  5494 ;;      Locals:         0       0       3       0       0       0       0
  5495 ;;      Temps:          0       0       0       0       0       0       0
  5496 ;;      Totals:         0       0       3       0       0       0       0
  5497 ;;Total ram usage:        3 bytes
  5498 ;; Hardware stack levels used:    1
  5499 ;; Hardware stack levels required when called:    7
  5500 ;; This function calls:
  5501 ;;		Nothing
  5502 ;; This function is called by:
  5503 ;;		_rotate_bot
  5504 ;; This function uses a non-reentrant model
  5505 ;;
  5506                           
  5507                           	psect	text12
  5508  0023C6                     __ptext12:
  5509                           	opt callstack 0
  5510  0023C6                     _rb_u:
  5511                           	opt callstack 22
  5512  0023C6                     
  5513                           ;newmain.c: 469:    rgbarray tempc = rgb[1];
  5514  0023C6  C0BA  F152         	movff	_rgb+1,rb_u@tempc	;volatile
  5515                           
  5516                           ;newmain.c: 470:     rgbarray tempd = rgb[2];
  5517  0023CA  C0BB  F153         	movff	_rgb+2,rb_u@tempd	;volatile
  5518                           
  5519                           ;newmain.c: 471:     rgb[1].r = rgb[20].r;rgb[2].r = rgb[21].r;
  5520  0023CE  0100               	movlb	0	; () banked
  5521  0023D0  A1CD               	btfss	(_rgb+20)& (0+255),0,b	;volatile
  5522  0023D2  D002               	bra	u16605
  5523  0023D4  81BA               	bsf	(_rgb+1)& (0+255),0,b	;volatile
  5524  0023D6  D002               	bra	u16607
  5525  0023D8                     u16605:
  5526  0023D8  0100               	movlb	0	; () banked
  5527  0023DA  91BA               	bcf	(_rgb+1)& (0+255),0,b	;volatile
  5528  0023DC                     u16607:
  5529  0023DC  A1CE               	btfss	(_rgb+21)& (0+255),0,b	;volatile
  5530  0023DE  D002               	bra	u16615
  5531  0023E0  81BB               	bsf	(_rgb+2)& (0+255),0,b	;volatile
  5532  0023E2  D002               	bra	u16617
  5533  0023E4                     u16615:
  5534  0023E4  0100               	movlb	0	; () banked
  5535  0023E6  91BB               	bcf	(_rgb+2)& (0+255),0,b	;volatile
  5536  0023E8                     u16617:
  5537                           
  5538                           ;newmain.c: 472:     rgb[1].g = rgb[20].g;rgb[2].g = rgb[21].g;
  5539  0023E8  A3CD               	btfss	(_rgb+20)& (0+255),1,b	;volatile
  5540  0023EA  D002               	bra	u16625
  5541  0023EC  83BA               	bsf	(_rgb+1)& (0+255),1,b	;volatile
  5542  0023EE  D002               	bra	u16627
  5543  0023F0                     u16625:
  5544  0023F0  0100               	movlb	0	; () banked
  5545  0023F2  93BA               	bcf	(_rgb+1)& (0+255),1,b	;volatile
  5546  0023F4                     u16627:
  5547  0023F4  A3CE               	btfss	(_rgb+21)& (0+255),1,b	;volatile
  5548  0023F6  D002               	bra	u16635
  5549  0023F8  83BB               	bsf	(_rgb+2)& (0+255),1,b	;volatile
  5550  0023FA  D002               	bra	u16637
  5551  0023FC                     u16635:
  5552  0023FC  0100               	movlb	0	; () banked
  5553  0023FE  93BB               	bcf	(_rgb+2)& (0+255),1,b	;volatile
  5554  002400                     u16637:
  5555                           
  5556                           ;newmain.c: 473:     rgb[1].b = rgb[20].b;rgb[2].b = rgb[21].b;
  5557  002400  A5CD               	btfss	(_rgb+20)& (0+255),2,b	;volatile
  5558  002402  D002               	bra	u16645
  5559  002404  85BA               	bsf	(_rgb+1)& (0+255),2,b	;volatile
  5560  002406  D002               	bra	u16647
  5561  002408                     u16645:
  5562  002408  0100               	movlb	0	; () banked
  5563  00240A  95BA               	bcf	(_rgb+1)& (0+255),2,b	;volatile
  5564  00240C                     u16647:
  5565  00240C  A5CE               	btfss	(_rgb+21)& (0+255),2,b	;volatile
  5566  00240E  D002               	bra	u16655
  5567  002410  85BB               	bsf	(_rgb+2)& (0+255),2,b	;volatile
  5568  002412  D002               	bra	u16657
  5569  002414                     u16655:
  5570  002414  0100               	movlb	0	; () banked
  5571  002416  95BB               	bcf	(_rgb+2)& (0+255),2,b	;volatile
  5572  002418                     u16657:
  5573                           
  5574                           ;newmain.c: 474:     rgb[20].r = rgb[11].r;rgb[21].r = rgb[8].r;
  5575  002418  A1C4               	btfss	(_rgb+11)& (0+255),0,b	;volatile
  5576  00241A  D002               	bra	u16665
  5577  00241C  81CD               	bsf	(_rgb+20)& (0+255),0,b	;volatile
  5578  00241E  D002               	bra	u16667
  5579  002420                     u16665:
  5580  002420  0100               	movlb	0	; () banked
  5581  002422  91CD               	bcf	(_rgb+20)& (0+255),0,b	;volatile
  5582  002424                     u16667:
  5583  002424  A1C1               	btfss	(_rgb+8)& (0+255),0,b	;volatile
  5584  002426  D002               	bra	u16675
  5585  002428  81CE               	bsf	(_rgb+21)& (0+255),0,b	;volatile
  5586  00242A  D002               	bra	u16677
  5587  00242C                     u16675:
  5588  00242C  0100               	movlb	0	; () banked
  5589  00242E  91CE               	bcf	(_rgb+21)& (0+255),0,b	;volatile
  5590  002430                     u16677:
  5591                           
  5592                           ;newmain.c: 475:     rgb[20].g = rgb[11].g;rgb[21].g = rgb[8].g;
  5593  002430  A3C4               	btfss	(_rgb+11)& (0+255),1,b	;volatile
  5594  002432  D002               	bra	u16685
  5595  002434  83CD               	bsf	(_rgb+20)& (0+255),1,b	;volatile
  5596  002436  D002               	bra	u16687
  5597  002438                     u16685:
  5598  002438  0100               	movlb	0	; () banked
  5599  00243A  93CD               	bcf	(_rgb+20)& (0+255),1,b	;volatile
  5600  00243C                     u16687:
  5601  00243C  A3C1               	btfss	(_rgb+8)& (0+255),1,b	;volatile
  5602  00243E  D002               	bra	u16695
  5603  002440  83CE               	bsf	(_rgb+21)& (0+255),1,b	;volatile
  5604  002442  D002               	bra	u16697
  5605  002444                     u16695:
  5606  002444  0100               	movlb	0	; () banked
  5607  002446  93CE               	bcf	(_rgb+21)& (0+255),1,b	;volatile
  5608  002448                     u16697:
  5609                           
  5610                           ;newmain.c: 476:     rgb[20].b = rgb[11].b;rgb[21].b = rgb[8].b;
  5611  002448  A5C4               	btfss	(_rgb+11)& (0+255),2,b	;volatile
  5612  00244A  D002               	bra	u16705
  5613  00244C  85CD               	bsf	(_rgb+20)& (0+255),2,b	;volatile
  5614  00244E  D002               	bra	u16707
  5615  002450                     u16705:
  5616  002450  0100               	movlb	0	; () banked
  5617  002452  95CD               	bcf	(_rgb+20)& (0+255),2,b	;volatile
  5618  002454                     u16707:
  5619  002454  A5C1               	btfss	(_rgb+8)& (0+255),2,b	;volatile
  5620  002456  D002               	bra	u16715
  5621  002458  85CE               	bsf	(_rgb+21)& (0+255),2,b	;volatile
  5622  00245A  D002               	bra	u16717
  5623  00245C                     u16715:
  5624  00245C  0100               	movlb	0	; () banked
  5625  00245E  95CE               	bcf	(_rgb+21)& (0+255),2,b	;volatile
  5626  002460                     u16717:
  5627                           
  5628                           ;newmain.c: 477:     rgb[11].r = rgb[18].r;rgb[8].r = rgb[19].r;
  5629  002460  A1CB               	btfss	(_rgb+18)& (0+255),0,b	;volatile
  5630  002462  D002               	bra	u16725
  5631  002464  81C4               	bsf	(_rgb+11)& (0+255),0,b	;volatile
  5632  002466  D002               	bra	u16727
  5633  002468                     u16725:
  5634  002468  0100               	movlb	0	; () banked
  5635  00246A  91C4               	bcf	(_rgb+11)& (0+255),0,b	;volatile
  5636  00246C                     u16727:
  5637  00246C  A1CC               	btfss	(_rgb+19)& (0+255),0,b	;volatile
  5638  00246E  D002               	bra	u16735
  5639  002470  81C1               	bsf	(_rgb+8)& (0+255),0,b	;volatile
  5640  002472  D002               	bra	u16737
  5641  002474                     u16735:
  5642  002474  0100               	movlb	0	; () banked
  5643  002476  91C1               	bcf	(_rgb+8)& (0+255),0,b	;volatile
  5644  002478                     u16737:
  5645                           
  5646                           ;newmain.c: 478:     rgb[11].g = rgb[18].g;rgb[8].g = rgb[19].g;
  5647  002478  A3CB               	btfss	(_rgb+18)& (0+255),1,b	;volatile
  5648  00247A  D002               	bra	u16745
  5649  00247C  83C4               	bsf	(_rgb+11)& (0+255),1,b	;volatile
  5650  00247E  D002               	bra	u16747
  5651  002480                     u16745:
  5652  002480  0100               	movlb	0	; () banked
  5653  002482  93C4               	bcf	(_rgb+11)& (0+255),1,b	;volatile
  5654  002484                     u16747:
  5655  002484  A3CC               	btfss	(_rgb+19)& (0+255),1,b	;volatile
  5656  002486  D002               	bra	u16755
  5657  002488  83C1               	bsf	(_rgb+8)& (0+255),1,b	;volatile
  5658  00248A  D002               	bra	u16757
  5659  00248C                     u16755:
  5660  00248C  0100               	movlb	0	; () banked
  5661  00248E  93C1               	bcf	(_rgb+8)& (0+255),1,b	;volatile
  5662  002490                     u16757:
  5663                           
  5664                           ;newmain.c: 479:     rgb[11].b = rgb[18].b;rgb[8].b = rgb[19].b;
  5665  002490  A5CB               	btfss	(_rgb+18)& (0+255),2,b	;volatile
  5666  002492  D002               	bra	u16765
  5667  002494  85C4               	bsf	(_rgb+11)& (0+255),2,b	;volatile
  5668  002496  D002               	bra	u16767
  5669  002498                     u16765:
  5670  002498  0100               	movlb	0	; () banked
  5671  00249A  95C4               	bcf	(_rgb+11)& (0+255),2,b	;volatile
  5672  00249C                     u16767:
  5673  00249C  A5CC               	btfss	(_rgb+19)& (0+255),2,b	;volatile
  5674  00249E  D002               	bra	u16775
  5675  0024A0  85C1               	bsf	(_rgb+8)& (0+255),2,b	;volatile
  5676  0024A2  D002               	bra	u16777
  5677  0024A4                     u16775:
  5678  0024A4  0100               	movlb	0	; () banked
  5679  0024A6  95C1               	bcf	(_rgb+8)& (0+255),2,b	;volatile
  5680  0024A8                     u16777:
  5681                           
  5682                           ;newmain.c: 480:     rgb[18].r = tempc.r;rgb[19].r = tempd.r;
  5683  0024A8  0101               	movlb	1	; () banked
  5684  0024AA  A152               	btfss	rb_u@tempc& (0+255),0,b
  5685  0024AC  D003               	bra	u16785
  5686  0024AE  0100               	movlb	0	; () banked
  5687  0024B0  81CB               	bsf	(_rgb+18)& (0+255),0,b	;volatile
  5688  0024B2  D002               	bra	u16787
  5689  0024B4                     u16785:
  5690  0024B4  0100               	movlb	0	; () banked
  5691  0024B6  91CB               	bcf	(_rgb+18)& (0+255),0,b	;volatile
  5692  0024B8                     u16787:
  5693  0024B8  0101               	movlb	1	; () banked
  5694  0024BA  A153               	btfss	rb_u@tempd& (0+255),0,b
  5695  0024BC  D003               	bra	u16795
  5696  0024BE  0100               	movlb	0	; () banked
  5697  0024C0  81CC               	bsf	(_rgb+19)& (0+255),0,b	;volatile
  5698  0024C2  D002               	bra	u16797
  5699  0024C4                     u16795:
  5700  0024C4  0100               	movlb	0	; () banked
  5701  0024C6  91CC               	bcf	(_rgb+19)& (0+255),0,b	;volatile
  5702  0024C8                     u16797:
  5703                           
  5704                           ;newmain.c: 481:     rgb[18].g = tempc.g;rgb[19].g = tempd.g;
  5705  0024C8  0101               	movlb	1	; () banked
  5706  0024CA  A352               	btfss	rb_u@tempc& (0+255),1,b
  5707  0024CC  D003               	bra	u16805
  5708  0024CE  0100               	movlb	0	; () banked
  5709  0024D0  83CB               	bsf	(_rgb+18)& (0+255),1,b	;volatile
  5710  0024D2  D002               	bra	u16807
  5711  0024D4                     u16805:
  5712  0024D4  0100               	movlb	0	; () banked
  5713  0024D6  93CB               	bcf	(_rgb+18)& (0+255),1,b	;volatile
  5714  0024D8                     u16807:
  5715  0024D8  0101               	movlb	1	; () banked
  5716  0024DA  A353               	btfss	rb_u@tempd& (0+255),1,b
  5717  0024DC  D003               	bra	u16815
  5718  0024DE  0100               	movlb	0	; () banked
  5719  0024E0  83CC               	bsf	(_rgb+19)& (0+255),1,b	;volatile
  5720  0024E2  D002               	bra	u16817
  5721  0024E4                     u16815:
  5722  0024E4  0100               	movlb	0	; () banked
  5723  0024E6  93CC               	bcf	(_rgb+19)& (0+255),1,b	;volatile
  5724  0024E8                     u16817:
  5725                           
  5726                           ;newmain.c: 482:     rgb[18].b = tempc.b;rgb[19].b = tempd.b;
  5727  0024E8  0101               	movlb	1	; () banked
  5728  0024EA  A552               	btfss	rb_u@tempc& (0+255),2,b
  5729  0024EC  D003               	bra	u16825
  5730  0024EE  0100               	movlb	0	; () banked
  5731  0024F0  85CB               	bsf	(_rgb+18)& (0+255),2,b	;volatile
  5732  0024F2  D002               	bra	u16827
  5733  0024F4                     u16825:
  5734  0024F4  0100               	movlb	0	; () banked
  5735  0024F6  95CB               	bcf	(_rgb+18)& (0+255),2,b	;volatile
  5736  0024F8                     u16827:
  5737  0024F8  0101               	movlb	1	; () banked
  5738  0024FA  A553               	btfss	rb_u@tempd& (0+255),2,b
  5739  0024FC  D003               	bra	u16835
  5740  0024FE  0100               	movlb	0	; () banked
  5741  002500  85CC               	bsf	(_rgb+19)& (0+255),2,b	;volatile
  5742  002502  D002               	bra	u16837
  5743  002504                     u16835:
  5744  002504  0100               	movlb	0	; () banked
  5745  002506  95CC               	bcf	(_rgb+19)& (0+255),2,b	;volatile
  5746  002508                     u16837:
  5747                           
  5748                           ;newmain.c: 483:     rgbarray tempa = rgb[4];
  5749  002508  C0BD  F154         	movff	_rgb+4,rb_u@tempa	;volatile
  5750                           
  5751                           ;newmain.c: 484:     rgb[4].r = rgb[7].r;rgb[7].r = rgb[6].r;
  5752  00250C  A1C0               	btfss	(_rgb+7)& (0+255),0,b	;volatile
  5753  00250E  D002               	bra	u16845
  5754  002510  81BD               	bsf	(_rgb+4)& (0+255),0,b	;volatile
  5755  002512  D002               	bra	u16847
  5756  002514                     u16845:
  5757  002514  0100               	movlb	0	; () banked
  5758  002516  91BD               	bcf	(_rgb+4)& (0+255),0,b	;volatile
  5759  002518                     u16847:
  5760  002518  A1BF               	btfss	(_rgb+6)& (0+255),0,b	;volatile
  5761  00251A  D002               	bra	u16855
  5762  00251C  81C0               	bsf	(_rgb+7)& (0+255),0,b	;volatile
  5763  00251E  D002               	bra	u16857
  5764  002520                     u16855:
  5765  002520  0100               	movlb	0	; () banked
  5766  002522  91C0               	bcf	(_rgb+7)& (0+255),0,b	;volatile
  5767  002524                     u16857:
  5768                           
  5769                           ;newmain.c: 485:     rgb[4].g = rgb[7].g;rgb[7].g = rgb[6].g;
  5770  002524  A3C0               	btfss	(_rgb+7)& (0+255),1,b	;volatile
  5771  002526  D002               	bra	u16865
  5772  002528  83BD               	bsf	(_rgb+4)& (0+255),1,b	;volatile
  5773  00252A  D002               	bra	u16867
  5774  00252C                     u16865:
  5775  00252C  0100               	movlb	0	; () banked
  5776  00252E  93BD               	bcf	(_rgb+4)& (0+255),1,b	;volatile
  5777  002530                     u16867:
  5778  002530  A3BF               	btfss	(_rgb+6)& (0+255),1,b	;volatile
  5779  002532  D002               	bra	u16875
  5780  002534  83C0               	bsf	(_rgb+7)& (0+255),1,b	;volatile
  5781  002536  D002               	bra	u16877
  5782  002538                     u16875:
  5783  002538  0100               	movlb	0	; () banked
  5784  00253A  93C0               	bcf	(_rgb+7)& (0+255),1,b	;volatile
  5785  00253C                     u16877:
  5786                           
  5787                           ;newmain.c: 486:     rgb[4].b = rgb[7].b;rgb[7].b = rgb[6].b;
  5788  00253C  A5C0               	btfss	(_rgb+7)& (0+255),2,b	;volatile
  5789  00253E  D002               	bra	u16885
  5790  002540  85BD               	bsf	(_rgb+4)& (0+255),2,b	;volatile
  5791  002542  D002               	bra	u16887
  5792  002544                     u16885:
  5793  002544  0100               	movlb	0	; () banked
  5794  002546  95BD               	bcf	(_rgb+4)& (0+255),2,b	;volatile
  5795  002548                     u16887:
  5796  002548  A5BF               	btfss	(_rgb+6)& (0+255),2,b	;volatile
  5797  00254A  D002               	bra	u16895
  5798  00254C  85C0               	bsf	(_rgb+7)& (0+255),2,b	;volatile
  5799  00254E  D002               	bra	u16897
  5800  002550                     u16895:
  5801  002550  0100               	movlb	0	; () banked
  5802  002552  95C0               	bcf	(_rgb+7)& (0+255),2,b	;volatile
  5803  002554                     u16897:
  5804                           
  5805                           ;newmain.c: 487:     rgb[6].r = rgb[5].r;rgb[5].r = tempa.r;
  5806  002554  A1BE               	btfss	(_rgb+5)& (0+255),0,b	;volatile
  5807  002556  D002               	bra	u16905
  5808  002558  81BF               	bsf	(_rgb+6)& (0+255),0,b	;volatile
  5809  00255A  D002               	bra	u16907
  5810  00255C                     u16905:
  5811  00255C  0100               	movlb	0	; () banked
  5812  00255E  91BF               	bcf	(_rgb+6)& (0+255),0,b	;volatile
  5813  002560                     u16907:
  5814  002560  0101               	movlb	1	; () banked
  5815  002562  A154               	btfss	rb_u@tempa& (0+255),0,b
  5816  002564  D003               	bra	u16915
  5817  002566  0100               	movlb	0	; () banked
  5818  002568  81BE               	bsf	(_rgb+5)& (0+255),0,b	;volatile
  5819  00256A  D002               	bra	u16917
  5820  00256C                     u16915:
  5821  00256C  0100               	movlb	0	; () banked
  5822  00256E  91BE               	bcf	(_rgb+5)& (0+255),0,b	;volatile
  5823  002570                     u16917:
  5824                           
  5825                           ;newmain.c: 488:     rgb[6].g = rgb[5].g;rgb[5].g = tempa.g;
  5826  002570  A3BE               	btfss	(_rgb+5)& (0+255),1,b	;volatile
  5827  002572  D002               	bra	u16925
  5828  002574  83BF               	bsf	(_rgb+6)& (0+255),1,b	;volatile
  5829  002576  D002               	bra	u16927
  5830  002578                     u16925:
  5831  002578  0100               	movlb	0	; () banked
  5832  00257A  93BF               	bcf	(_rgb+6)& (0+255),1,b	;volatile
  5833  00257C                     u16927:
  5834  00257C  0101               	movlb	1	; () banked
  5835  00257E  A354               	btfss	rb_u@tempa& (0+255),1,b
  5836  002580  D003               	bra	u16935
  5837  002582  0100               	movlb	0	; () banked
  5838  002584  83BE               	bsf	(_rgb+5)& (0+255),1,b	;volatile
  5839  002586  D002               	bra	u16937
  5840  002588                     u16935:
  5841  002588  0100               	movlb	0	; () banked
  5842  00258A  93BE               	bcf	(_rgb+5)& (0+255),1,b	;volatile
  5843  00258C                     u16937:
  5844                           
  5845                           ;newmain.c: 489:     rgb[6].b = rgb[5].b;rgb[5].b = tempa.b;
  5846  00258C  A5BE               	btfss	(_rgb+5)& (0+255),2,b	;volatile
  5847  00258E  D002               	bra	u16945
  5848  002590  85BF               	bsf	(_rgb+6)& (0+255),2,b	;volatile
  5849  002592  D002               	bra	u16947
  5850  002594                     u16945:
  5851  002594  0100               	movlb	0	; () banked
  5852  002596  95BF               	bcf	(_rgb+6)& (0+255),2,b	;volatile
  5853  002598                     u16947:
  5854  002598  0101               	movlb	1	; () banked
  5855  00259A  A554               	btfss	rb_u@tempa& (0+255),2,b
  5856  00259C  D003               	bra	u16955
  5857  00259E  0100               	movlb	0	; () banked
  5858  0025A0  85BE               	bsf	(_rgb+5)& (0+255),2,b	;volatile
  5859  0025A2  D002               	bra	u16957
  5860  0025A4                     u16955:
  5861  0025A4  0100               	movlb	0	; () banked
  5862  0025A6  95BE               	bcf	(_rgb+5)& (0+255),2,b	;volatile
  5863  0025A8                     u16957:
  5864  0025A8                     
  5865                           ; BSR set to: 0
  5866  0025A8  0012               	return		;funcret
  5867  0025AA                     __end_of_rb_u:
  5868                           	opt callstack 0
  5869                           
  5870 ;; *************** function _random_cube *****************
  5871 ;; Defined at:
  5872 ;;		line 643 in file "newmain.c"
  5873 ;; Parameters:    Size  Location     Type
  5874 ;;		None
  5875 ;; Auto vars:     Size  Location     Type
  5876 ;;  r               2   42[BANK1 ] int 
  5877 ;;  j               2   44[BANK1 ] int 
  5878 ;; Return value:  Size  Location     Type
  5879 ;;                  1    wreg      void 
  5880 ;; Registers used:
  5881 ;;		wreg, fsr2l, fsr2h, status,2, status,0, cstack
  5882 ;; Tracked objects:
  5883 ;;		On entry : 0/0
  5884 ;;		On exit  : 0/0
  5885 ;;		Unchanged: 0/0
  5886 ;; Data sizes:     COMRAM   BANK0   BANK1   BANK2   BANK3   BANK4   BANK5
  5887 ;;      Params:         0       0       0       0       0       0       0
  5888 ;;      Locals:         0       0       4       0       0       0       0
  5889 ;;      Temps:          0       0       2       0       0       0       0
  5890 ;;      Totals:         0       0       6       0       0       0       0
  5891 ;;Total ram usage:        6 bytes
  5892 ;; Hardware stack levels used:    1
  5893 ;; Hardware stack levels required when called:    9
  5894 ;; This function calls:
  5895 ;;		___awmod
  5896 ;;		_initial
  5897 ;;		_rand
  5898 ;;		_rb
  5899 ;;		_rl
  5900 ;;		_rr
  5901 ;;		_rsb
  5902 ;;		_rst
  5903 ;;		_rt
  5904 ;; This function is called by:
  5905 ;;		_main
  5906 ;; This function uses a non-reentrant model
  5907 ;;
  5908                           
  5909                           	psect	text13
  5910  003A88                     __ptext13:
  5911                           	opt callstack 0
  5912  003A88                     _random_cube:
  5913                           	opt callstack 21
  5914  003A88                     
  5915                           ;newmain.c: 644:     int j;;newmain.c: 645:     initial();
  5916  003A88  EC07  F00C         	call	_initial	;wreg free
  5917  003A8C                     
  5918                           ;newmain.c: 646:     need_to_check = 1;
  5919  003A8C  0E00               	movlw	0
  5920  003A8E  0100               	movlb	0	; () banked
  5921  003A90  6FDE               	movwf	(_need_to_check+1)& (0+255),b
  5922  003A92  0E01               	movlw	1
  5923  003A94  6FDD               	movwf	_need_to_check& (0+255),b
  5924  003A96                     
  5925                           ; BSR set to: 0
  5926                           ;newmain.c: 647:     for(j = 0;j < 8;j++){
  5927  003A96  0E00               	movlw	0
  5928  003A98  0101               	movlb	1	; () banked
  5929  003A9A  6F7F               	movwf	(random_cube@j+1)& (0+255),b
  5930  003A9C  0E00               	movlw	0
  5931  003A9E  6F7E               	movwf	random_cube@j& (0+255),b
  5932  003AA0                     l3701:
  5933                           
  5934                           ; BSR set to: 1
  5935                           ;newmain.c: 648:         int r = (rand()%6);
  5936  003AA0  ECF4  F019         	call	_rand	;wreg free
  5937  003AA4  C16A  F174         	movff	?_rand,___awmod@dividend
  5938  003AA8  C16B  F175         	movff	?_rand+1,___awmod@dividend+1
  5939  003AAC  0E00               	movlw	0
  5940  003AAE  0101               	movlb	1	; () banked
  5941  003AB0  6F77               	movwf	(___awmod@divisor+1)& (0+255),b
  5942  003AB2  0E06               	movlw	6
  5943  003AB4  6F76               	movwf	___awmod@divisor& (0+255),b
  5944  003AB6  EC7C  F01E         	call	___awmod	;wreg free
  5945  003ABA  C174  F17C         	movff	?___awmod,random_cube@r
  5946  003ABE  C175  F17D         	movff	?___awmod+1,random_cube@r+1
  5947                           
  5948                           ;newmain.c: 649:         switch(r){
  5949  003AC2  EF7B  F01D         	goto	l3717
  5950  003AC6                     l3703:
  5951                           
  5952                           ; BSR set to: 1
  5953                           ;newmain.c: 651:                 rr();
  5954  003AC6  ECAB  F015         	call	_rr	;wreg free
  5955                           
  5956                           ;newmain.c: 652:                 break;
  5957  003ACA  EFA2  F01D         	goto	l3719
  5958  003ACE                     l3705:
  5959                           
  5960                           ; BSR set to: 1
  5961                           ;newmain.c: 654:                 rl();
  5962  003ACE  EC9D  F016         	call	_rl	;wreg free
  5963                           
  5964                           ;newmain.c: 655:                 break;
  5965  003AD2  EFA2  F01D         	goto	l3719
  5966  003AD6                     l3707:
  5967                           
  5968                           ; BSR set to: 1
  5969                           ;newmain.c: 657:                 rt();
  5970  003AD6  ECD5  F012         	call	_rt	;wreg free
  5971                           
  5972                           ;newmain.c: 658:                 break;
  5973  003ADA  EFA2  F01D         	goto	l3719
  5974  003ADE                     l3709:
  5975                           
  5976                           ; BSR set to: 1
  5977                           ;newmain.c: 660:                 rb();
  5978  003ADE  EC8F  F017         	call	_rb	;wreg free
  5979                           
  5980                           ;newmain.c: 661:                 break;
  5981  003AE2  EFA2  F01D         	goto	l3719
  5982  003AE6                     l3711:
  5983                           
  5984                           ; BSR set to: 1
  5985                           ;newmain.c: 663:                 rst();
  5986  003AE6  ECC7  F013         	call	_rst	;wreg free
  5987                           
  5988                           ;newmain.c: 664:                 break;
  5989  003AEA  EFA2  F01D         	goto	l3719
  5990  003AEE                     l3713:
  5991                           
  5992                           ; BSR set to: 1
  5993                           ;newmain.c: 666:                 rsb();
  5994  003AEE  ECB9  F014         	call	_rsb	;wreg free
  5995                           
  5996                           ;newmain.c: 667:                 break;
  5997  003AF2  EFA2  F01D         	goto	l3719
  5998  003AF6                     l3717:
  5999  003AF6  C17C  F17A         	movff	random_cube@r,??_random_cube
  6000  003AFA  C17D  F17B         	movff	random_cube@r+1,??_random_cube+1
  6001                           
  6002                           ; Switch on 2 bytes has been partitioned into a top level switch of size 1, and 1 sub-sw
      +                          itches
  6003                           ; Switch size 1, requested type "simple"
  6004                           ; Number of cases is 1, Range of values is 0 to 0
  6005                           ; switch strategies available:
  6006                           ; Name         Instructions Cycles
  6007                           ; simple_byte            4     3 (average)
  6008                           ;	Chosen strategy is simple_byte
  6009  003AFE  0101               	movlb	1	; () banked
  6010  003B00  517B               	movf	(??_random_cube+1)& (0+255),w,b
  6011  003B02  0A00               	xorlw	0	; case 0
  6012  003B04  B4D8               	btfsc	status,2,c
  6013  003B06  EF87  F01D         	goto	l4057
  6014  003B0A  EFA2  F01D         	goto	l3719
  6015  003B0E                     l4057:
  6016                           
  6017                           ; BSR set to: 1
  6018                           ; Switch size 1, requested type "simple"
  6019                           ; Number of cases is 6, Range of values is 0 to 5
  6020                           ; switch strategies available:
  6021                           ; Name         Instructions Cycles
  6022                           ; simple_byte           19    10 (average)
  6023                           ;	Chosen strategy is simple_byte
  6024  003B0E  517A               	movf	??_random_cube& (0+255),w,b
  6025  003B10  0A00               	xorlw	0	; case 0
  6026  003B12  B4D8               	btfsc	status,2,c
  6027  003B14  EF63  F01D         	goto	l3703
  6028  003B18  0A01               	xorlw	1	; case 1
  6029  003B1A  B4D8               	btfsc	status,2,c
  6030  003B1C  EF67  F01D         	goto	l3705
  6031  003B20  0A03               	xorlw	3	; case 2
  6032  003B22  B4D8               	btfsc	status,2,c
  6033  003B24  EF6B  F01D         	goto	l3707
  6034  003B28  0A01               	xorlw	1	; case 3
  6035  003B2A  B4D8               	btfsc	status,2,c
  6036  003B2C  EF6F  F01D         	goto	l3709
  6037  003B30  0A07               	xorlw	7	; case 4
  6038  003B32  B4D8               	btfsc	status,2,c
  6039  003B34  EF73  F01D         	goto	l3711
  6040  003B38  0A01               	xorlw	1	; case 5
  6041  003B3A  B4D8               	btfsc	status,2,c
  6042  003B3C  EF77  F01D         	goto	l3713
  6043  003B40  EFA2  F01D         	goto	l3719
  6044  003B44                     l3719:
  6045                           
  6046                           ;newmain.c: 669:     }
  6047  003B44  0101               	movlb	1	; () banked
  6048  003B46  4B7E               	infsnz	random_cube@j& (0+255),f,b
  6049  003B48  2B7F               	incf	(random_cube@j+1)& (0+255),f,b
  6050  003B4A                     
  6051                           ; BSR set to: 1
  6052  003B4A  BF7F               	btfsc	(random_cube@j+1)& (0+255),7,b
  6053  003B4C  EFB1  F01D         	goto	u18801
  6054  003B50  517F               	movf	(random_cube@j+1)& (0+255),w,b
  6055  003B52  E109               	bnz	u18800
  6056  003B54  0E08               	movlw	8
  6057  003B56  5D7E               	subwf	random_cube@j& (0+255),w,b
  6058  003B58  A0D8               	btfss	status,0,c
  6059  003B5A  EFB1  F01D         	goto	u18801
  6060  003B5E  EFB3  F01D         	goto	u18800
  6061  003B62                     u18801:
  6062  003B62  EF50  F01D         	goto	l3701
  6063  003B66                     u18800:
  6064  003B66                     
  6065                           ; BSR set to: 1
  6066  003B66  0012               	return		;funcret
  6067  003B68                     __end_of_random_cube:
  6068                           	opt callstack 0
  6069                           
  6070 ;; *************** function _rt *****************
  6071 ;; Defined at:
  6072 ;;		line 378 in file "newmain.c"
  6073 ;; Parameters:    Size  Location     Type
  6074 ;;		None
  6075 ;; Auto vars:     Size  Location     Type
  6076 ;;  tempc           1    2[BANK1 ] struct RGB
  6077 ;;  tempb           1    1[BANK1 ] struct RGB
  6078 ;;  tempa           1    0[BANK1 ] struct RGB
  6079 ;; Return value:  Size  Location     Type
  6080 ;;                  1    wreg      void 
  6081 ;; Registers used:
  6082 ;;		None
  6083 ;; Tracked objects:
  6084 ;;		On entry : 0/0
  6085 ;;		On exit  : 0/0
  6086 ;;		Unchanged: 0/0
  6087 ;; Data sizes:     COMRAM   BANK0   BANK1   BANK2   BANK3   BANK4   BANK5
  6088 ;;      Params:         0       0       0       0       0       0       0
  6089 ;;      Locals:         0       0       3       0       0       0       0
  6090 ;;      Temps:          0       0       0       0       0       0       0
  6091 ;;      Totals:         0       0       3       0       0       0       0
  6092 ;;Total ram usage:        3 bytes
  6093 ;; Hardware stack levels used:    1
  6094 ;; Hardware stack levels required when called:    7
  6095 ;; This function calls:
  6096 ;;		Nothing
  6097 ;; This function is called by:
  6098 ;;		_rotate_top
  6099 ;;		_random_cube
  6100 ;; This function uses a non-reentrant model
  6101 ;;
  6102                           
  6103                           	psect	text14
  6104  0025AA                     __ptext14:
  6105                           	opt callstack 0
  6106  0025AA                     _rt:
  6107                           	opt callstack 22
  6108  0025AA                     
  6109                           ;newmain.c: 379:     rgbarray tempa = rgb[0];
  6110  0025AA  C0B9  F152         	movff	_rgb,rt@tempa	;volatile
  6111                           
  6112                           ;newmain.c: 380:     rgbarray tempb = rgb[3];
  6113  0025AE  C0BC  F153         	movff	_rgb+3,rt@tempb	;volatile
  6114                           
  6115                           ;newmain.c: 381:     rgb[0].r = rgb[17].r;rgb[3].r = rgb[16].r;
  6116  0025B2  0100               	movlb	0	; () banked
  6117  0025B4  A1CA               	btfss	(_rgb+17)& (0+255),0,b	;volatile
  6118  0025B6  D002               	bra	u15525
  6119  0025B8  81B9               	bsf	_rgb& (0+255),0,b	;volatile
  6120  0025BA  D002               	bra	u15527
  6121  0025BC                     u15525:
  6122  0025BC  0100               	movlb	0	; () banked
  6123  0025BE  91B9               	bcf	_rgb& (0+255),0,b	;volatile
  6124  0025C0                     u15527:
  6125  0025C0  A1C9               	btfss	(_rgb+16)& (0+255),0,b	;volatile
  6126  0025C2  D002               	bra	u15535
  6127  0025C4  81BC               	bsf	(_rgb+3)& (0+255),0,b	;volatile
  6128  0025C6  D002               	bra	u15537
  6129  0025C8                     u15535:
  6130  0025C8  0100               	movlb	0	; () banked
  6131  0025CA  91BC               	bcf	(_rgb+3)& (0+255),0,b	;volatile
  6132  0025CC                     u15537:
  6133                           
  6134                           ;newmain.c: 382:     rgb[0].g = rgb[17].g;rgb[3].g = rgb[16].g;
  6135  0025CC  A3CA               	btfss	(_rgb+17)& (0+255),1,b	;volatile
  6136  0025CE  D002               	bra	u15545
  6137  0025D0  83B9               	bsf	_rgb& (0+255),1,b	;volatile
  6138  0025D2  D002               	bra	u15547
  6139  0025D4                     u15545:
  6140  0025D4  0100               	movlb	0	; () banked
  6141  0025D6  93B9               	bcf	_rgb& (0+255),1,b	;volatile
  6142  0025D8                     u15547:
  6143  0025D8  A3C9               	btfss	(_rgb+16)& (0+255),1,b	;volatile
  6144  0025DA  D002               	bra	u15555
  6145  0025DC  83BC               	bsf	(_rgb+3)& (0+255),1,b	;volatile
  6146  0025DE  D002               	bra	u15557
  6147  0025E0                     u15555:
  6148  0025E0  0100               	movlb	0	; () banked
  6149  0025E2  93BC               	bcf	(_rgb+3)& (0+255),1,b	;volatile
  6150  0025E4                     u15557:
  6151                           
  6152                           ;newmain.c: 383:     rgb[0].b = rgb[17].b;rgb[3].b = rgb[16].b;
  6153  0025E4  A5CA               	btfss	(_rgb+17)& (0+255),2,b	;volatile
  6154  0025E6  D002               	bra	u15565
  6155  0025E8  85B9               	bsf	_rgb& (0+255),2,b	;volatile
  6156  0025EA  D002               	bra	u15567
  6157  0025EC                     u15565:
  6158  0025EC  0100               	movlb	0	; () banked
  6159  0025EE  95B9               	bcf	_rgb& (0+255),2,b	;volatile
  6160  0025F0                     u15567:
  6161  0025F0  A5C9               	btfss	(_rgb+16)& (0+255),2,b	;volatile
  6162  0025F2  D002               	bra	u15575
  6163  0025F4  85BC               	bsf	(_rgb+3)& (0+255),2,b	;volatile
  6164  0025F6  D002               	bra	u15577
  6165  0025F8                     u15575:
  6166  0025F8  0100               	movlb	0	; () banked
  6167  0025FA  95BC               	bcf	(_rgb+3)& (0+255),2,b	;volatile
  6168  0025FC                     u15577:
  6169                           
  6170                           ;newmain.c: 384:     rgb[17].r = rgb[10].r;rgb[16].r = rgb[9].r;
  6171  0025FC  A1C3               	btfss	(_rgb+10)& (0+255),0,b	;volatile
  6172  0025FE  D002               	bra	u15585
  6173  002600  81CA               	bsf	(_rgb+17)& (0+255),0,b	;volatile
  6174  002602  D002               	bra	u15587
  6175  002604                     u15585:
  6176  002604  0100               	movlb	0	; () banked
  6177  002606  91CA               	bcf	(_rgb+17)& (0+255),0,b	;volatile
  6178  002608                     u15587:
  6179  002608  A1C2               	btfss	(_rgb+9)& (0+255),0,b	;volatile
  6180  00260A  D002               	bra	u15595
  6181  00260C  81C9               	bsf	(_rgb+16)& (0+255),0,b	;volatile
  6182  00260E  D002               	bra	u15597
  6183  002610                     u15595:
  6184  002610  0100               	movlb	0	; () banked
  6185  002612  91C9               	bcf	(_rgb+16)& (0+255),0,b	;volatile
  6186  002614                     u15597:
  6187                           
  6188                           ;newmain.c: 385:     rgb[17].g = rgb[10].g;rgb[16].g = rgb[9].g;
  6189  002614  A3C3               	btfss	(_rgb+10)& (0+255),1,b	;volatile
  6190  002616  D002               	bra	u15605
  6191  002618  83CA               	bsf	(_rgb+17)& (0+255),1,b	;volatile
  6192  00261A  D002               	bra	u15607
  6193  00261C                     u15605:
  6194  00261C  0100               	movlb	0	; () banked
  6195  00261E  93CA               	bcf	(_rgb+17)& (0+255),1,b	;volatile
  6196  002620                     u15607:
  6197  002620  A3C2               	btfss	(_rgb+9)& (0+255),1,b	;volatile
  6198  002622  D002               	bra	u15615
  6199  002624  83C9               	bsf	(_rgb+16)& (0+255),1,b	;volatile
  6200  002626  D002               	bra	u15617
  6201  002628                     u15615:
  6202  002628  0100               	movlb	0	; () banked
  6203  00262A  93C9               	bcf	(_rgb+16)& (0+255),1,b	;volatile
  6204  00262C                     u15617:
  6205                           
  6206                           ;newmain.c: 386:     rgb[17].b = rgb[10].b;rgb[16].b = rgb[9].b;
  6207  00262C  A5C3               	btfss	(_rgb+10)& (0+255),2,b	;volatile
  6208  00262E  D002               	bra	u15625
  6209  002630  85CA               	bsf	(_rgb+17)& (0+255),2,b	;volatile
  6210  002632  D002               	bra	u15627
  6211  002634                     u15625:
  6212  002634  0100               	movlb	0	; () banked
  6213  002636  95CA               	bcf	(_rgb+17)& (0+255),2,b	;volatile
  6214  002638                     u15627:
  6215  002638  A5C2               	btfss	(_rgb+9)& (0+255),2,b	;volatile
  6216  00263A  D002               	bra	u15635
  6217  00263C  85C9               	bsf	(_rgb+16)& (0+255),2,b	;volatile
  6218  00263E  D002               	bra	u15637
  6219  002640                     u15635:
  6220  002640  0100               	movlb	0	; () banked
  6221  002642  95C9               	bcf	(_rgb+16)& (0+255),2,b	;volatile
  6222  002644                     u15637:
  6223                           
  6224                           ;newmain.c: 387:     rgb[10].r = rgb[23].r;rgb[9].r = rgb[22].r;
  6225  002644  A1D0               	btfss	(_rgb+23)& (0+255),0,b	;volatile
  6226  002646  D002               	bra	u15645
  6227  002648  81C3               	bsf	(_rgb+10)& (0+255),0,b	;volatile
  6228  00264A  D002               	bra	u15647
  6229  00264C                     u15645:
  6230  00264C  0100               	movlb	0	; () banked
  6231  00264E  91C3               	bcf	(_rgb+10)& (0+255),0,b	;volatile
  6232  002650                     u15647:
  6233  002650  A1CF               	btfss	(_rgb+22)& (0+255),0,b	;volatile
  6234  002652  D002               	bra	u15655
  6235  002654  81C2               	bsf	(_rgb+9)& (0+255),0,b	;volatile
  6236  002656  D002               	bra	u15657
  6237  002658                     u15655:
  6238  002658  0100               	movlb	0	; () banked
  6239  00265A  91C2               	bcf	(_rgb+9)& (0+255),0,b	;volatile
  6240  00265C                     u15657:
  6241                           
  6242                           ;newmain.c: 388:     rgb[10].g = rgb[23].g;rgb[9].g = rgb[22].g;
  6243  00265C  A3D0               	btfss	(_rgb+23)& (0+255),1,b	;volatile
  6244  00265E  D002               	bra	u15665
  6245  002660  83C3               	bsf	(_rgb+10)& (0+255),1,b	;volatile
  6246  002662  D002               	bra	u15667
  6247  002664                     u15665:
  6248  002664  0100               	movlb	0	; () banked
  6249  002666  93C3               	bcf	(_rgb+10)& (0+255),1,b	;volatile
  6250  002668                     u15667:
  6251  002668  A3CF               	btfss	(_rgb+22)& (0+255),1,b	;volatile
  6252  00266A  D002               	bra	u15675
  6253  00266C  83C2               	bsf	(_rgb+9)& (0+255),1,b	;volatile
  6254  00266E  D002               	bra	u15677
  6255  002670                     u15675:
  6256  002670  0100               	movlb	0	; () banked
  6257  002672  93C2               	bcf	(_rgb+9)& (0+255),1,b	;volatile
  6258  002674                     u15677:
  6259                           
  6260                           ;newmain.c: 389:     rgb[10].b = rgb[23].b;rgb[9].b = rgb[22].b;
  6261  002674  A5D0               	btfss	(_rgb+23)& (0+255),2,b	;volatile
  6262  002676  D002               	bra	u15685
  6263  002678  85C3               	bsf	(_rgb+10)& (0+255),2,b	;volatile
  6264  00267A  D002               	bra	u15687
  6265  00267C                     u15685:
  6266  00267C  0100               	movlb	0	; () banked
  6267  00267E  95C3               	bcf	(_rgb+10)& (0+255),2,b	;volatile
  6268  002680                     u15687:
  6269  002680  A5CF               	btfss	(_rgb+22)& (0+255),2,b	;volatile
  6270  002682  D002               	bra	u15695
  6271  002684  85C2               	bsf	(_rgb+9)& (0+255),2,b	;volatile
  6272  002686  D002               	bra	u15697
  6273  002688                     u15695:
  6274  002688  0100               	movlb	0	; () banked
  6275  00268A  95C2               	bcf	(_rgb+9)& (0+255),2,b	;volatile
  6276  00268C                     u15697:
  6277                           
  6278                           ;newmain.c: 390:     rgb[23].r = tempa.r;rgb[22].r = tempb.r;
  6279  00268C  0101               	movlb	1	; () banked
  6280  00268E  A152               	btfss	rt@tempa& (0+255),0,b
  6281  002690  D003               	bra	u15705
  6282  002692  0100               	movlb	0	; () banked
  6283  002694  81D0               	bsf	(_rgb+23)& (0+255),0,b	;volatile
  6284  002696  D002               	bra	u15707
  6285  002698                     u15705:
  6286  002698  0100               	movlb	0	; () banked
  6287  00269A  91D0               	bcf	(_rgb+23)& (0+255),0,b	;volatile
  6288  00269C                     u15707:
  6289  00269C  0101               	movlb	1	; () banked
  6290  00269E  A153               	btfss	rt@tempb& (0+255),0,b
  6291  0026A0  D003               	bra	u15715
  6292  0026A2  0100               	movlb	0	; () banked
  6293  0026A4  81CF               	bsf	(_rgb+22)& (0+255),0,b	;volatile
  6294  0026A6  D002               	bra	u15717
  6295  0026A8                     u15715:
  6296  0026A8  0100               	movlb	0	; () banked
  6297  0026AA  91CF               	bcf	(_rgb+22)& (0+255),0,b	;volatile
  6298  0026AC                     u15717:
  6299                           
  6300                           ;newmain.c: 391:     rgb[23].g = tempa.g;rgb[22].g = tempb.g;
  6301  0026AC  0101               	movlb	1	; () banked
  6302  0026AE  A352               	btfss	rt@tempa& (0+255),1,b
  6303  0026B0  D003               	bra	u15725
  6304  0026B2  0100               	movlb	0	; () banked
  6305  0026B4  83D0               	bsf	(_rgb+23)& (0+255),1,b	;volatile
  6306  0026B6  D002               	bra	u15727
  6307  0026B8                     u15725:
  6308  0026B8  0100               	movlb	0	; () banked
  6309  0026BA  93D0               	bcf	(_rgb+23)& (0+255),1,b	;volatile
  6310  0026BC                     u15727:
  6311  0026BC  0101               	movlb	1	; () banked
  6312  0026BE  A353               	btfss	rt@tempb& (0+255),1,b
  6313  0026C0  D003               	bra	u15735
  6314  0026C2  0100               	movlb	0	; () banked
  6315  0026C4  83CF               	bsf	(_rgb+22)& (0+255),1,b	;volatile
  6316  0026C6  D002               	bra	u15737
  6317  0026C8                     u15735:
  6318  0026C8  0100               	movlb	0	; () banked
  6319  0026CA  93CF               	bcf	(_rgb+22)& (0+255),1,b	;volatile
  6320  0026CC                     u15737:
  6321                           
  6322                           ;newmain.c: 392:     rgb[23].b = tempa.b;rgb[22].b = tempb.b;
  6323  0026CC  0101               	movlb	1	; () banked
  6324  0026CE  A552               	btfss	rt@tempa& (0+255),2,b
  6325  0026D0  D003               	bra	u15745
  6326  0026D2  0100               	movlb	0	; () banked
  6327  0026D4  85D0               	bsf	(_rgb+23)& (0+255),2,b	;volatile
  6328  0026D6  D002               	bra	u15747
  6329  0026D8                     u15745:
  6330  0026D8  0100               	movlb	0	; () banked
  6331  0026DA  95D0               	bcf	(_rgb+23)& (0+255),2,b	;volatile
  6332  0026DC                     u15747:
  6333  0026DC  0101               	movlb	1	; () banked
  6334  0026DE  A553               	btfss	rt@tempb& (0+255),2,b
  6335  0026E0  D003               	bra	u15755
  6336  0026E2  0100               	movlb	0	; () banked
  6337  0026E4  85CF               	bsf	(_rgb+22)& (0+255),2,b	;volatile
  6338  0026E6  D002               	bra	u15757
  6339  0026E8                     u15755:
  6340  0026E8  0100               	movlb	0	; () banked
  6341  0026EA  95CF               	bcf	(_rgb+22)& (0+255),2,b	;volatile
  6342  0026EC                     u15757:
  6343                           
  6344                           ;newmain.c: 393:     rgbarray tempc = rgb[13];
  6345  0026EC  C0C6  F154         	movff	_rgb+13,rt@tempc	;volatile
  6346                           
  6347                           ;newmain.c: 394:     rgb[13].r = rgb[12].r;rgb[12].r = rgb[15].r;
  6348  0026F0  A1C5               	btfss	(_rgb+12)& (0+255),0,b	;volatile
  6349  0026F2  D002               	bra	u15765
  6350  0026F4  81C6               	bsf	(_rgb+13)& (0+255),0,b	;volatile
  6351  0026F6  D002               	bra	u15767
  6352  0026F8                     u15765:
  6353  0026F8  0100               	movlb	0	; () banked
  6354  0026FA  91C6               	bcf	(_rgb+13)& (0+255),0,b	;volatile
  6355  0026FC                     u15767:
  6356  0026FC  A1C8               	btfss	(_rgb+15)& (0+255),0,b	;volatile
  6357  0026FE  D002               	bra	u15775
  6358  002700  81C5               	bsf	(_rgb+12)& (0+255),0,b	;volatile
  6359  002702  D002               	bra	u15777
  6360  002704                     u15775:
  6361  002704  0100               	movlb	0	; () banked
  6362  002706  91C5               	bcf	(_rgb+12)& (0+255),0,b	;volatile
  6363  002708                     u15777:
  6364                           
  6365                           ;newmain.c: 395:     rgb[13].g = rgb[12].g;rgb[12].g = rgb[15].g;
  6366  002708  A3C5               	btfss	(_rgb+12)& (0+255),1,b	;volatile
  6367  00270A  D002               	bra	u15785
  6368  00270C  83C6               	bsf	(_rgb+13)& (0+255),1,b	;volatile
  6369  00270E  D002               	bra	u15787
  6370  002710                     u15785:
  6371  002710  0100               	movlb	0	; () banked
  6372  002712  93C6               	bcf	(_rgb+13)& (0+255),1,b	;volatile
  6373  002714                     u15787:
  6374  002714  A3C8               	btfss	(_rgb+15)& (0+255),1,b	;volatile
  6375  002716  D002               	bra	u15795
  6376  002718  83C5               	bsf	(_rgb+12)& (0+255),1,b	;volatile
  6377  00271A  D002               	bra	u15797
  6378  00271C                     u15795:
  6379  00271C  0100               	movlb	0	; () banked
  6380  00271E  93C5               	bcf	(_rgb+12)& (0+255),1,b	;volatile
  6381  002720                     u15797:
  6382                           
  6383                           ;newmain.c: 396:     rgb[13].b = rgb[12].b;rgb[12].b = rgb[15].b;
  6384  002720  A5C5               	btfss	(_rgb+12)& (0+255),2,b	;volatile
  6385  002722  D002               	bra	u15805
  6386  002724  85C6               	bsf	(_rgb+13)& (0+255),2,b	;volatile
  6387  002726  D002               	bra	u15807
  6388  002728                     u15805:
  6389  002728  0100               	movlb	0	; () banked
  6390  00272A  95C6               	bcf	(_rgb+13)& (0+255),2,b	;volatile
  6391  00272C                     u15807:
  6392  00272C  A5C8               	btfss	(_rgb+15)& (0+255),2,b	;volatile
  6393  00272E  D002               	bra	u15815
  6394  002730  85C5               	bsf	(_rgb+12)& (0+255),2,b	;volatile
  6395  002732  D002               	bra	u15817
  6396  002734                     u15815:
  6397  002734  0100               	movlb	0	; () banked
  6398  002736  95C5               	bcf	(_rgb+12)& (0+255),2,b	;volatile
  6399  002738                     u15817:
  6400                           
  6401                           ;newmain.c: 397:     rgb[15].r = rgb[14].r;rgb[14].r = tempc.r;
  6402  002738  A1C7               	btfss	(_rgb+14)& (0+255),0,b	;volatile
  6403  00273A  D002               	bra	u15825
  6404  00273C  81C8               	bsf	(_rgb+15)& (0+255),0,b	;volatile
  6405  00273E  D002               	bra	u15827
  6406  002740                     u15825:
  6407  002740  0100               	movlb	0	; () banked
  6408  002742  91C8               	bcf	(_rgb+15)& (0+255),0,b	;volatile
  6409  002744                     u15827:
  6410  002744  0101               	movlb	1	; () banked
  6411  002746  A154               	btfss	rt@tempc& (0+255),0,b
  6412  002748  D003               	bra	u15835
  6413  00274A  0100               	movlb	0	; () banked
  6414  00274C  81C7               	bsf	(_rgb+14)& (0+255),0,b	;volatile
  6415  00274E  D002               	bra	u15837
  6416  002750                     u15835:
  6417  002750  0100               	movlb	0	; () banked
  6418  002752  91C7               	bcf	(_rgb+14)& (0+255),0,b	;volatile
  6419  002754                     u15837:
  6420                           
  6421                           ;newmain.c: 398:     rgb[15].g = rgb[14].g;rgb[14].g = tempc.g;
  6422  002754  A3C7               	btfss	(_rgb+14)& (0+255),1,b	;volatile
  6423  002756  D002               	bra	u15845
  6424  002758  83C8               	bsf	(_rgb+15)& (0+255),1,b	;volatile
  6425  00275A  D002               	bra	u15847
  6426  00275C                     u15845:
  6427  00275C  0100               	movlb	0	; () banked
  6428  00275E  93C8               	bcf	(_rgb+15)& (0+255),1,b	;volatile
  6429  002760                     u15847:
  6430  002760  0101               	movlb	1	; () banked
  6431  002762  A354               	btfss	rt@tempc& (0+255),1,b
  6432  002764  D003               	bra	u15855
  6433  002766  0100               	movlb	0	; () banked
  6434  002768  83C7               	bsf	(_rgb+14)& (0+255),1,b	;volatile
  6435  00276A  D002               	bra	u15857
  6436  00276C                     u15855:
  6437  00276C  0100               	movlb	0	; () banked
  6438  00276E  93C7               	bcf	(_rgb+14)& (0+255),1,b	;volatile
  6439  002770                     u15857:
  6440                           
  6441                           ;newmain.c: 399:     rgb[15].b = rgb[14].b;rgb[14].b = tempc.b;
  6442  002770  A5C7               	btfss	(_rgb+14)& (0+255),2,b	;volatile
  6443  002772  D002               	bra	u15865
  6444  002774  85C8               	bsf	(_rgb+15)& (0+255),2,b	;volatile
  6445  002776  D002               	bra	u15867
  6446  002778                     u15865:
  6447  002778  0100               	movlb	0	; () banked
  6448  00277A  95C8               	bcf	(_rgb+15)& (0+255),2,b	;volatile
  6449  00277C                     u15867:
  6450  00277C  0101               	movlb	1	; () banked
  6451  00277E  A554               	btfss	rt@tempc& (0+255),2,b
  6452  002780  D003               	bra	u15875
  6453  002782  0100               	movlb	0	; () banked
  6454  002784  85C7               	bsf	(_rgb+14)& (0+255),2,b	;volatile
  6455  002786  D002               	bra	u15877
  6456  002788                     u15875:
  6457  002788  0100               	movlb	0	; () banked
  6458  00278A  95C7               	bcf	(_rgb+14)& (0+255),2,b	;volatile
  6459  00278C                     u15877:
  6460  00278C                     
  6461                           ; BSR set to: 0
  6462  00278C  0012               	return		;funcret
  6463  00278E                     __end_of_rt:
  6464                           	opt callstack 0
  6465                           
  6466 ;; *************** function _rst *****************
  6467 ;; Defined at:
  6468 ;;		line 511 in file "newmain.c"
  6469 ;; Parameters:    Size  Location     Type
  6470 ;;		None
  6471 ;; Auto vars:     Size  Location     Type
  6472 ;;  tempc           1    2[BANK1 ] struct RGB
  6473 ;;  tempb           1    1[BANK1 ] struct RGB
  6474 ;;  tempa           1    0[BANK1 ] struct RGB
  6475 ;; Return value:  Size  Location     Type
  6476 ;;                  1    wreg      void 
  6477 ;; Registers used:
  6478 ;;		None
  6479 ;; Tracked objects:
  6480 ;;		On entry : 0/0
  6481 ;;		On exit  : 0/0
  6482 ;;		Unchanged: 0/0
  6483 ;; Data sizes:     COMRAM   BANK0   BANK1   BANK2   BANK3   BANK4   BANK5
  6484 ;;      Params:         0       0       0       0       0       0       0
  6485 ;;      Locals:         0       0       3       0       0       0       0
  6486 ;;      Temps:          0       0       0       0       0       0       0
  6487 ;;      Totals:         0       0       3       0       0       0       0
  6488 ;;Total ram usage:        3 bytes
  6489 ;; Hardware stack levels used:    1
  6490 ;; Hardware stack levels required when called:    7
  6491 ;; This function calls:
  6492 ;;		Nothing
  6493 ;; This function is called by:
  6494 ;;		_rotate_sidetop
  6495 ;;		_random_cube
  6496 ;; This function uses a non-reentrant model
  6497 ;;
  6498                           
  6499                           	psect	text15
  6500  00278E                     __ptext15:
  6501                           	opt callstack 0
  6502  00278E                     _rst:
  6503                           	opt callstack 22
  6504  00278E                     
  6505                           ;newmain.c: 512:     rgbarray tempa = rgb[4];
  6506  00278E  C0BD  F152         	movff	_rgb+4,rst@tempa	;volatile
  6507                           
  6508                           ;newmain.c: 513:     rgbarray tempb = rgb[7];
  6509  002792  C0C0  F153         	movff	_rgb+7,rst@tempb	;volatile
  6510                           
  6511                           ;newmain.c: 514:     rgb[4].r = rgb[16].r;rgb[7].r = rgb[19].r;
  6512  002796  0100               	movlb	0	; () banked
  6513  002798  A1C9               	btfss	(_rgb+16)& (0+255),0,b	;volatile
  6514  00279A  D002               	bra	u16965
  6515  00279C  81BD               	bsf	(_rgb+4)& (0+255),0,b	;volatile
  6516  00279E  D002               	bra	u16967
  6517  0027A0                     u16965:
  6518  0027A0  0100               	movlb	0	; () banked
  6519  0027A2  91BD               	bcf	(_rgb+4)& (0+255),0,b	;volatile
  6520  0027A4                     u16967:
  6521  0027A4  A1CC               	btfss	(_rgb+19)& (0+255),0,b	;volatile
  6522  0027A6  D002               	bra	u16975
  6523  0027A8  81C0               	bsf	(_rgb+7)& (0+255),0,b	;volatile
  6524  0027AA  D002               	bra	u16977
  6525  0027AC                     u16975:
  6526  0027AC  0100               	movlb	0	; () banked
  6527  0027AE  91C0               	bcf	(_rgb+7)& (0+255),0,b	;volatile
  6528  0027B0                     u16977:
  6529                           
  6530                           ;newmain.c: 515:     rgb[4].g = rgb[16].g;rgb[7].g = rgb[19].g;
  6531  0027B0  A3C9               	btfss	(_rgb+16)& (0+255),1,b	;volatile
  6532  0027B2  D002               	bra	u16985
  6533  0027B4  83BD               	bsf	(_rgb+4)& (0+255),1,b	;volatile
  6534  0027B6  D002               	bra	u16987
  6535  0027B8                     u16985:
  6536  0027B8  0100               	movlb	0	; () banked
  6537  0027BA  93BD               	bcf	(_rgb+4)& (0+255),1,b	;volatile
  6538  0027BC                     u16987:
  6539  0027BC  A3CC               	btfss	(_rgb+19)& (0+255),1,b	;volatile
  6540  0027BE  D002               	bra	u16995
  6541  0027C0  83C0               	bsf	(_rgb+7)& (0+255),1,b	;volatile
  6542  0027C2  D002               	bra	u16997
  6543  0027C4                     u16995:
  6544  0027C4  0100               	movlb	0	; () banked
  6545  0027C6  93C0               	bcf	(_rgb+7)& (0+255),1,b	;volatile
  6546  0027C8                     u16997:
  6547                           
  6548                           ;newmain.c: 516:     rgb[4].b = rgb[16].b;rgb[7].b = rgb[19].b;
  6549  0027C8  A5C9               	btfss	(_rgb+16)& (0+255),2,b	;volatile
  6550  0027CA  D002               	bra	u17005
  6551  0027CC  85BD               	bsf	(_rgb+4)& (0+255),2,b	;volatile
  6552  0027CE  D002               	bra	u17007
  6553  0027D0                     u17005:
  6554  0027D0  0100               	movlb	0	; () banked
  6555  0027D2  95BD               	bcf	(_rgb+4)& (0+255),2,b	;volatile
  6556  0027D4                     u17007:
  6557  0027D4  A5CC               	btfss	(_rgb+19)& (0+255),2,b	;volatile
  6558  0027D6  D002               	bra	u17015
  6559  0027D8  85C0               	bsf	(_rgb+7)& (0+255),2,b	;volatile
  6560  0027DA  D002               	bra	u17017
  6561  0027DC                     u17015:
  6562  0027DC  0100               	movlb	0	; () banked
  6563  0027DE  95C0               	bcf	(_rgb+7)& (0+255),2,b	;volatile
  6564  0027E0                     u17017:
  6565                           
  6566                           ;newmain.c: 517:     rgb[16].r = rgb[14].r;rgb[19].r = rgb[13].r;
  6567  0027E0  A1C7               	btfss	(_rgb+14)& (0+255),0,b	;volatile
  6568  0027E2  D002               	bra	u17025
  6569  0027E4  81C9               	bsf	(_rgb+16)& (0+255),0,b	;volatile
  6570  0027E6  D002               	bra	u17027
  6571  0027E8                     u17025:
  6572  0027E8  0100               	movlb	0	; () banked
  6573  0027EA  91C9               	bcf	(_rgb+16)& (0+255),0,b	;volatile
  6574  0027EC                     u17027:
  6575  0027EC  A1C6               	btfss	(_rgb+13)& (0+255),0,b	;volatile
  6576  0027EE  D002               	bra	u17035
  6577  0027F0  81CC               	bsf	(_rgb+19)& (0+255),0,b	;volatile
  6578  0027F2  D002               	bra	u17037
  6579  0027F4                     u17035:
  6580  0027F4  0100               	movlb	0	; () banked
  6581  0027F6  91CC               	bcf	(_rgb+19)& (0+255),0,b	;volatile
  6582  0027F8                     u17037:
  6583                           
  6584                           ;newmain.c: 518:     rgb[16].g = rgb[14].g;rgb[19].g = rgb[13].g;
  6585  0027F8  A3C7               	btfss	(_rgb+14)& (0+255),1,b	;volatile
  6586  0027FA  D002               	bra	u17045
  6587  0027FC  83C9               	bsf	(_rgb+16)& (0+255),1,b	;volatile
  6588  0027FE  D002               	bra	u17047
  6589  002800                     u17045:
  6590  002800  0100               	movlb	0	; () banked
  6591  002802  93C9               	bcf	(_rgb+16)& (0+255),1,b	;volatile
  6592  002804                     u17047:
  6593  002804  A3C6               	btfss	(_rgb+13)& (0+255),1,b	;volatile
  6594  002806  D002               	bra	u17055
  6595  002808  83CC               	bsf	(_rgb+19)& (0+255),1,b	;volatile
  6596  00280A  D002               	bra	u17057
  6597  00280C                     u17055:
  6598  00280C  0100               	movlb	0	; () banked
  6599  00280E  93CC               	bcf	(_rgb+19)& (0+255),1,b	;volatile
  6600  002810                     u17057:
  6601                           
  6602                           ;newmain.c: 519:     rgb[16].b = rgb[14].b;rgb[19].b = rgb[13].b;
  6603  002810  A5C7               	btfss	(_rgb+14)& (0+255),2,b	;volatile
  6604  002812  D002               	bra	u17065
  6605  002814  85C9               	bsf	(_rgb+16)& (0+255),2,b	;volatile
  6606  002816  D002               	bra	u17067
  6607  002818                     u17065:
  6608  002818  0100               	movlb	0	; () banked
  6609  00281A  95C9               	bcf	(_rgb+16)& (0+255),2,b	;volatile
  6610  00281C                     u17067:
  6611  00281C  A5C6               	btfss	(_rgb+13)& (0+255),2,b	;volatile
  6612  00281E  D002               	bra	u17075
  6613  002820  85CC               	bsf	(_rgb+19)& (0+255),2,b	;volatile
  6614  002822  D002               	bra	u17077
  6615  002824                     u17075:
  6616  002824  0100               	movlb	0	; () banked
  6617  002826  95CC               	bcf	(_rgb+19)& (0+255),2,b	;volatile
  6618  002828                     u17077:
  6619                           
  6620                           ;newmain.c: 520:     rgb[14].r = rgb[20].r;rgb[13].r = rgb[23].r;
  6621  002828  A1CD               	btfss	(_rgb+20)& (0+255),0,b	;volatile
  6622  00282A  D002               	bra	u17085
  6623  00282C  81C7               	bsf	(_rgb+14)& (0+255),0,b	;volatile
  6624  00282E  D002               	bra	u17087
  6625  002830                     u17085:
  6626  002830  0100               	movlb	0	; () banked
  6627  002832  91C7               	bcf	(_rgb+14)& (0+255),0,b	;volatile
  6628  002834                     u17087:
  6629  002834  A1D0               	btfss	(_rgb+23)& (0+255),0,b	;volatile
  6630  002836  D002               	bra	u17095
  6631  002838  81C6               	bsf	(_rgb+13)& (0+255),0,b	;volatile
  6632  00283A  D002               	bra	u17097
  6633  00283C                     u17095:
  6634  00283C  0100               	movlb	0	; () banked
  6635  00283E  91C6               	bcf	(_rgb+13)& (0+255),0,b	;volatile
  6636  002840                     u17097:
  6637                           
  6638                           ;newmain.c: 521:     rgb[14].g = rgb[20].g;rgb[13].g = rgb[23].g;
  6639  002840  A3CD               	btfss	(_rgb+20)& (0+255),1,b	;volatile
  6640  002842  D002               	bra	u17105
  6641  002844  83C7               	bsf	(_rgb+14)& (0+255),1,b	;volatile
  6642  002846  D002               	bra	u17107
  6643  002848                     u17105:
  6644  002848  0100               	movlb	0	; () banked
  6645  00284A  93C7               	bcf	(_rgb+14)& (0+255),1,b	;volatile
  6646  00284C                     u17107:
  6647  00284C  A3D0               	btfss	(_rgb+23)& (0+255),1,b	;volatile
  6648  00284E  D002               	bra	u17115
  6649  002850  83C6               	bsf	(_rgb+13)& (0+255),1,b	;volatile
  6650  002852  D002               	bra	u17117
  6651  002854                     u17115:
  6652  002854  0100               	movlb	0	; () banked
  6653  002856  93C6               	bcf	(_rgb+13)& (0+255),1,b	;volatile
  6654  002858                     u17117:
  6655                           
  6656                           ;newmain.c: 522:     rgb[14].b = rgb[20].b;rgb[13].b = rgb[23].b;
  6657  002858  A5CD               	btfss	(_rgb+20)& (0+255),2,b	;volatile
  6658  00285A  D002               	bra	u17125
  6659  00285C  85C7               	bsf	(_rgb+14)& (0+255),2,b	;volatile
  6660  00285E  D002               	bra	u17127
  6661  002860                     u17125:
  6662  002860  0100               	movlb	0	; () banked
  6663  002862  95C7               	bcf	(_rgb+14)& (0+255),2,b	;volatile
  6664  002864                     u17127:
  6665  002864  A5D0               	btfss	(_rgb+23)& (0+255),2,b	;volatile
  6666  002866  D002               	bra	u17135
  6667  002868  85C6               	bsf	(_rgb+13)& (0+255),2,b	;volatile
  6668  00286A  D002               	bra	u17137
  6669  00286C                     u17135:
  6670  00286C  0100               	movlb	0	; () banked
  6671  00286E  95C6               	bcf	(_rgb+13)& (0+255),2,b	;volatile
  6672  002870                     u17137:
  6673                           
  6674                           ;newmain.c: 523:     rgb[20].r = tempa.r;rgb[23].r = tempb.r;
  6675  002870  0101               	movlb	1	; () banked
  6676  002872  A152               	btfss	rst@tempa& (0+255),0,b
  6677  002874  D003               	bra	u17145
  6678  002876  0100               	movlb	0	; () banked
  6679  002878  81CD               	bsf	(_rgb+20)& (0+255),0,b	;volatile
  6680  00287A  D002               	bra	u17147
  6681  00287C                     u17145:
  6682  00287C  0100               	movlb	0	; () banked
  6683  00287E  91CD               	bcf	(_rgb+20)& (0+255),0,b	;volatile
  6684  002880                     u17147:
  6685  002880  0101               	movlb	1	; () banked
  6686  002882  A153               	btfss	rst@tempb& (0+255),0,b
  6687  002884  D003               	bra	u17155
  6688  002886  0100               	movlb	0	; () banked
  6689  002888  81D0               	bsf	(_rgb+23)& (0+255),0,b	;volatile
  6690  00288A  D002               	bra	u17157
  6691  00288C                     u17155:
  6692  00288C  0100               	movlb	0	; () banked
  6693  00288E  91D0               	bcf	(_rgb+23)& (0+255),0,b	;volatile
  6694  002890                     u17157:
  6695                           
  6696                           ;newmain.c: 524:     rgb[20].g = tempa.g;rgb[23].g = tempb.g;
  6697  002890  0101               	movlb	1	; () banked
  6698  002892  A352               	btfss	rst@tempa& (0+255),1,b
  6699  002894  D003               	bra	u17165
  6700  002896  0100               	movlb	0	; () banked
  6701  002898  83CD               	bsf	(_rgb+20)& (0+255),1,b	;volatile
  6702  00289A  D002               	bra	u17167
  6703  00289C                     u17165:
  6704  00289C  0100               	movlb	0	; () banked
  6705  00289E  93CD               	bcf	(_rgb+20)& (0+255),1,b	;volatile
  6706  0028A0                     u17167:
  6707  0028A0  0101               	movlb	1	; () banked
  6708  0028A2  A353               	btfss	rst@tempb& (0+255),1,b
  6709  0028A4  D003               	bra	u17175
  6710  0028A6  0100               	movlb	0	; () banked
  6711  0028A8  83D0               	bsf	(_rgb+23)& (0+255),1,b	;volatile
  6712  0028AA  D002               	bra	u17177
  6713  0028AC                     u17175:
  6714  0028AC  0100               	movlb	0	; () banked
  6715  0028AE  93D0               	bcf	(_rgb+23)& (0+255),1,b	;volatile
  6716  0028B0                     u17177:
  6717                           
  6718                           ;newmain.c: 525:     rgb[20].b = tempa.b;rgb[23].b = tempb.b;
  6719  0028B0  0101               	movlb	1	; () banked
  6720  0028B2  A552               	btfss	rst@tempa& (0+255),2,b
  6721  0028B4  D003               	bra	u17185
  6722  0028B6  0100               	movlb	0	; () banked
  6723  0028B8  85CD               	bsf	(_rgb+20)& (0+255),2,b	;volatile
  6724  0028BA  D002               	bra	u17187
  6725  0028BC                     u17185:
  6726  0028BC  0100               	movlb	0	; () banked
  6727  0028BE  95CD               	bcf	(_rgb+20)& (0+255),2,b	;volatile
  6728  0028C0                     u17187:
  6729  0028C0  0101               	movlb	1	; () banked
  6730  0028C2  A553               	btfss	rst@tempb& (0+255),2,b
  6731  0028C4  D003               	bra	u17195
  6732  0028C6  0100               	movlb	0	; () banked
  6733  0028C8  85D0               	bsf	(_rgb+23)& (0+255),2,b	;volatile
  6734  0028CA  D002               	bra	u17197
  6735  0028CC                     u17195:
  6736  0028CC  0100               	movlb	0	; () banked
  6737  0028CE  95D0               	bcf	(_rgb+23)& (0+255),2,b	;volatile
  6738  0028D0                     u17197:
  6739                           
  6740                           ;newmain.c: 526:     rgbarray tempc = rgb[1];
  6741  0028D0  C0BA  F154         	movff	_rgb+1,rst@tempc	;volatile
  6742                           
  6743                           ;newmain.c: 527:     rgb[1].r = rgb[0].r;rgb[0].r = rgb[3].r;
  6744  0028D4  A1B9               	btfss	_rgb& (0+255),0,b	;volatile
  6745  0028D6  D002               	bra	u17205
  6746  0028D8  81BA               	bsf	(_rgb+1)& (0+255),0,b	;volatile
  6747  0028DA  D002               	bra	u17207
  6748  0028DC                     u17205:
  6749  0028DC  0100               	movlb	0	; () banked
  6750  0028DE  91BA               	bcf	(_rgb+1)& (0+255),0,b	;volatile
  6751  0028E0                     u17207:
  6752  0028E0  A1BC               	btfss	(_rgb+3)& (0+255),0,b	;volatile
  6753  0028E2  D002               	bra	u17215
  6754  0028E4  81B9               	bsf	_rgb& (0+255),0,b	;volatile
  6755  0028E6  D002               	bra	u17217
  6756  0028E8                     u17215:
  6757  0028E8  0100               	movlb	0	; () banked
  6758  0028EA  91B9               	bcf	_rgb& (0+255),0,b	;volatile
  6759  0028EC                     u17217:
  6760                           
  6761                           ;newmain.c: 528:     rgb[1].g = rgb[0].g;rgb[0].g = rgb[3].g;
  6762  0028EC  A3B9               	btfss	_rgb& (0+255),1,b	;volatile
  6763  0028EE  D002               	bra	u17225
  6764  0028F0  83BA               	bsf	(_rgb+1)& (0+255),1,b	;volatile
  6765  0028F2  D002               	bra	u17227
  6766  0028F4                     u17225:
  6767  0028F4  0100               	movlb	0	; () banked
  6768  0028F6  93BA               	bcf	(_rgb+1)& (0+255),1,b	;volatile
  6769  0028F8                     u17227:
  6770  0028F8  A3BC               	btfss	(_rgb+3)& (0+255),1,b	;volatile
  6771  0028FA  D002               	bra	u17235
  6772  0028FC  83B9               	bsf	_rgb& (0+255),1,b	;volatile
  6773  0028FE  D002               	bra	u17237
  6774  002900                     u17235:
  6775  002900  0100               	movlb	0	; () banked
  6776  002902  93B9               	bcf	_rgb& (0+255),1,b	;volatile
  6777  002904                     u17237:
  6778                           
  6779                           ;newmain.c: 529:     rgb[1].b = rgb[0].b;rgb[0].b = rgb[3].b;
  6780  002904  A5B9               	btfss	_rgb& (0+255),2,b	;volatile
  6781  002906  D002               	bra	u17245
  6782  002908  85BA               	bsf	(_rgb+1)& (0+255),2,b	;volatile
  6783  00290A  D002               	bra	u17247
  6784  00290C                     u17245:
  6785  00290C  0100               	movlb	0	; () banked
  6786  00290E  95BA               	bcf	(_rgb+1)& (0+255),2,b	;volatile
  6787  002910                     u17247:
  6788  002910  A5BC               	btfss	(_rgb+3)& (0+255),2,b	;volatile
  6789  002912  D002               	bra	u17255
  6790  002914  85B9               	bsf	_rgb& (0+255),2,b	;volatile
  6791  002916  D002               	bra	u17257
  6792  002918                     u17255:
  6793  002918  0100               	movlb	0	; () banked
  6794  00291A  95B9               	bcf	_rgb& (0+255),2,b	;volatile
  6795  00291C                     u17257:
  6796                           
  6797                           ;newmain.c: 530:     rgb[3].r = rgb[2].r;rgb[2].r = tempc.r;
  6798  00291C  A1BB               	btfss	(_rgb+2)& (0+255),0,b	;volatile
  6799  00291E  D002               	bra	u17265
  6800  002920  81BC               	bsf	(_rgb+3)& (0+255),0,b	;volatile
  6801  002922  D002               	bra	u17267
  6802  002924                     u17265:
  6803  002924  0100               	movlb	0	; () banked
  6804  002926  91BC               	bcf	(_rgb+3)& (0+255),0,b	;volatile
  6805  002928                     u17267:
  6806  002928  0101               	movlb	1	; () banked
  6807  00292A  A154               	btfss	rst@tempc& (0+255),0,b
  6808  00292C  D003               	bra	u17275
  6809  00292E  0100               	movlb	0	; () banked
  6810  002930  81BB               	bsf	(_rgb+2)& (0+255),0,b	;volatile
  6811  002932  D002               	bra	u17277
  6812  002934                     u17275:
  6813  002934  0100               	movlb	0	; () banked
  6814  002936  91BB               	bcf	(_rgb+2)& (0+255),0,b	;volatile
  6815  002938                     u17277:
  6816                           
  6817                           ;newmain.c: 531:     rgb[3].g = rgb[2].g;rgb[2].g = tempc.g;
  6818  002938  A3BB               	btfss	(_rgb+2)& (0+255),1,b	;volatile
  6819  00293A  D002               	bra	u17285
  6820  00293C  83BC               	bsf	(_rgb+3)& (0+255),1,b	;volatile
  6821  00293E  D002               	bra	u17287
  6822  002940                     u17285:
  6823  002940  0100               	movlb	0	; () banked
  6824  002942  93BC               	bcf	(_rgb+3)& (0+255),1,b	;volatile
  6825  002944                     u17287:
  6826  002944  0101               	movlb	1	; () banked
  6827  002946  A354               	btfss	rst@tempc& (0+255),1,b
  6828  002948  D003               	bra	u17295
  6829  00294A  0100               	movlb	0	; () banked
  6830  00294C  83BB               	bsf	(_rgb+2)& (0+255),1,b	;volatile
  6831  00294E  D002               	bra	u17297
  6832  002950                     u17295:
  6833  002950  0100               	movlb	0	; () banked
  6834  002952  93BB               	bcf	(_rgb+2)& (0+255),1,b	;volatile
  6835  002954                     u17297:
  6836                           
  6837                           ;newmain.c: 532:     rgb[3].b = rgb[2].b;rgb[2].b = tempc.b;
  6838  002954  A5BB               	btfss	(_rgb+2)& (0+255),2,b	;volatile
  6839  002956  D002               	bra	u17305
  6840  002958  85BC               	bsf	(_rgb+3)& (0+255),2,b	;volatile
  6841  00295A  D002               	bra	u17307
  6842  00295C                     u17305:
  6843  00295C  0100               	movlb	0	; () banked
  6844  00295E  95BC               	bcf	(_rgb+3)& (0+255),2,b	;volatile
  6845  002960                     u17307:
  6846  002960  0101               	movlb	1	; () banked
  6847  002962  A554               	btfss	rst@tempc& (0+255),2,b
  6848  002964  D003               	bra	u17315
  6849  002966  0100               	movlb	0	; () banked
  6850  002968  85BB               	bsf	(_rgb+2)& (0+255),2,b	;volatile
  6851  00296A  D002               	bra	u17317
  6852  00296C                     u17315:
  6853  00296C  0100               	movlb	0	; () banked
  6854  00296E  95BB               	bcf	(_rgb+2)& (0+255),2,b	;volatile
  6855  002970                     u17317:
  6856  002970                     
  6857                           ; BSR set to: 0
  6858  002970  0012               	return		;funcret
  6859  002972                     __end_of_rst:
  6860                           	opt callstack 0
  6861                           
  6862 ;; *************** function _rsb *****************
  6863 ;; Defined at:
  6864 ;;		line 577 in file "newmain.c"
  6865 ;; Parameters:    Size  Location     Type
  6866 ;;		None
  6867 ;; Auto vars:     Size  Location     Type
  6868 ;;  tempc           1    2[BANK1 ] struct RGB
  6869 ;;  tempb           1    1[BANK1 ] struct RGB
  6870 ;;  tempa           1    0[BANK1 ] struct RGB
  6871 ;; Return value:  Size  Location     Type
  6872 ;;                  1    wreg      void 
  6873 ;; Registers used:
  6874 ;;		None
  6875 ;; Tracked objects:
  6876 ;;		On entry : 0/0
  6877 ;;		On exit  : 0/0
  6878 ;;		Unchanged: 0/0
  6879 ;; Data sizes:     COMRAM   BANK0   BANK1   BANK2   BANK3   BANK4   BANK5
  6880 ;;      Params:         0       0       0       0       0       0       0
  6881 ;;      Locals:         0       0       3       0       0       0       0
  6882 ;;      Temps:          0       0       0       0       0       0       0
  6883 ;;      Totals:         0       0       3       0       0       0       0
  6884 ;;Total ram usage:        3 bytes
  6885 ;; Hardware stack levels used:    1
  6886 ;; Hardware stack levels required when called:    7
  6887 ;; This function calls:
  6888 ;;		Nothing
  6889 ;; This function is called by:
  6890 ;;		_rotate_sidebot
  6891 ;;		_random_cube
  6892 ;; This function uses a non-reentrant model
  6893 ;;
  6894                           
  6895                           	psect	text16
  6896  002972                     __ptext16:
  6897                           	opt callstack 0
  6898  002972                     _rsb:
  6899                           	opt callstack 22
  6900  002972                     
  6901                           ;newmain.c: 578:     rgbarray tempa = rgb[5];
  6902  002972  C0BE  F152         	movff	_rgb+5,rsb@tempa	;volatile
  6903                           
  6904                           ;newmain.c: 579:     rgbarray tempb = rgb[6];
  6905  002976  C0BF  F153         	movff	_rgb+6,rsb@tempb	;volatile
  6906                           
  6907                           ;newmain.c: 580:     rgb[5].r = rgb[17].r;rgb[6].r = rgb[18].r;
  6908  00297A  0100               	movlb	0	; () banked
  6909  00297C  A1CA               	btfss	(_rgb+17)& (0+255),0,b	;volatile
  6910  00297E  D002               	bra	u17685
  6911  002980  81BE               	bsf	(_rgb+5)& (0+255),0,b	;volatile
  6912  002982  D002               	bra	u17687
  6913  002984                     u17685:
  6914  002984  0100               	movlb	0	; () banked
  6915  002986  91BE               	bcf	(_rgb+5)& (0+255),0,b	;volatile
  6916  002988                     u17687:
  6917  002988  A1CB               	btfss	(_rgb+18)& (0+255),0,b	;volatile
  6918  00298A  D002               	bra	u17695
  6919  00298C  81BF               	bsf	(_rgb+6)& (0+255),0,b	;volatile
  6920  00298E  D002               	bra	u17697
  6921  002990                     u17695:
  6922  002990  0100               	movlb	0	; () banked
  6923  002992  91BF               	bcf	(_rgb+6)& (0+255),0,b	;volatile
  6924  002994                     u17697:
  6925                           
  6926                           ;newmain.c: 581:     rgb[5].g = rgb[17].g;rgb[6].g = rgb[18].g;
  6927  002994  A3CA               	btfss	(_rgb+17)& (0+255),1,b	;volatile
  6928  002996  D002               	bra	u17705
  6929  002998  83BE               	bsf	(_rgb+5)& (0+255),1,b	;volatile
  6930  00299A  D002               	bra	u17707
  6931  00299C                     u17705:
  6932  00299C  0100               	movlb	0	; () banked
  6933  00299E  93BE               	bcf	(_rgb+5)& (0+255),1,b	;volatile
  6934  0029A0                     u17707:
  6935  0029A0  A3CB               	btfss	(_rgb+18)& (0+255),1,b	;volatile
  6936  0029A2  D002               	bra	u17715
  6937  0029A4  83BF               	bsf	(_rgb+6)& (0+255),1,b	;volatile
  6938  0029A6  D002               	bra	u17717
  6939  0029A8                     u17715:
  6940  0029A8  0100               	movlb	0	; () banked
  6941  0029AA  93BF               	bcf	(_rgb+6)& (0+255),1,b	;volatile
  6942  0029AC                     u17717:
  6943                           
  6944                           ;newmain.c: 582:     rgb[5].b = rgb[17].b;rgb[6].b = rgb[18].b;
  6945  0029AC  A5CA               	btfss	(_rgb+17)& (0+255),2,b	;volatile
  6946  0029AE  D002               	bra	u17725
  6947  0029B0  85BE               	bsf	(_rgb+5)& (0+255),2,b	;volatile
  6948  0029B2  D002               	bra	u17727
  6949  0029B4                     u17725:
  6950  0029B4  0100               	movlb	0	; () banked
  6951  0029B6  95BE               	bcf	(_rgb+5)& (0+255),2,b	;volatile
  6952  0029B8                     u17727:
  6953  0029B8  A5CB               	btfss	(_rgb+18)& (0+255),2,b	;volatile
  6954  0029BA  D002               	bra	u17735
  6955  0029BC  85BF               	bsf	(_rgb+6)& (0+255),2,b	;volatile
  6956  0029BE  D002               	bra	u17737
  6957  0029C0                     u17735:
  6958  0029C0  0100               	movlb	0	; () banked
  6959  0029C2  95BF               	bcf	(_rgb+6)& (0+255),2,b	;volatile
  6960  0029C4                     u17737:
  6961                           
  6962                           ;newmain.c: 583:     rgb[17].r = rgb[15].r;rgb[18].r = rgb[12].r;
  6963  0029C4  A1C8               	btfss	(_rgb+15)& (0+255),0,b	;volatile
  6964  0029C6  D002               	bra	u17745
  6965  0029C8  81CA               	bsf	(_rgb+17)& (0+255),0,b	;volatile
  6966  0029CA  D002               	bra	u17747
  6967  0029CC                     u17745:
  6968  0029CC  0100               	movlb	0	; () banked
  6969  0029CE  91CA               	bcf	(_rgb+17)& (0+255),0,b	;volatile
  6970  0029D0                     u17747:
  6971  0029D0  A1C5               	btfss	(_rgb+12)& (0+255),0,b	;volatile
  6972  0029D2  D002               	bra	u17755
  6973  0029D4  81CB               	bsf	(_rgb+18)& (0+255),0,b	;volatile
  6974  0029D6  D002               	bra	u17757
  6975  0029D8                     u17755:
  6976  0029D8  0100               	movlb	0	; () banked
  6977  0029DA  91CB               	bcf	(_rgb+18)& (0+255),0,b	;volatile
  6978  0029DC                     u17757:
  6979                           
  6980                           ;newmain.c: 584:     rgb[17].g = rgb[15].g;rgb[18].g = rgb[12].g;
  6981  0029DC  A3C8               	btfss	(_rgb+15)& (0+255),1,b	;volatile
  6982  0029DE  D002               	bra	u17765
  6983  0029E0  83CA               	bsf	(_rgb+17)& (0+255),1,b	;volatile
  6984  0029E2  D002               	bra	u17767
  6985  0029E4                     u17765:
  6986  0029E4  0100               	movlb	0	; () banked
  6987  0029E6  93CA               	bcf	(_rgb+17)& (0+255),1,b	;volatile
  6988  0029E8                     u17767:
  6989  0029E8  A3C5               	btfss	(_rgb+12)& (0+255),1,b	;volatile
  6990  0029EA  D002               	bra	u17775
  6991  0029EC  83CB               	bsf	(_rgb+18)& (0+255),1,b	;volatile
  6992  0029EE  D002               	bra	u17777
  6993  0029F0                     u17775:
  6994  0029F0  0100               	movlb	0	; () banked
  6995  0029F2  93CB               	bcf	(_rgb+18)& (0+255),1,b	;volatile
  6996  0029F4                     u17777:
  6997                           
  6998                           ;newmain.c: 585:     rgb[17].b = rgb[15].b;rgb[18].b = rgb[12].b;
  6999  0029F4  A5C8               	btfss	(_rgb+15)& (0+255),2,b	;volatile
  7000  0029F6  D002               	bra	u17785
  7001  0029F8  85CA               	bsf	(_rgb+17)& (0+255),2,b	;volatile
  7002  0029FA  D002               	bra	u17787
  7003  0029FC                     u17785:
  7004  0029FC  0100               	movlb	0	; () banked
  7005  0029FE  95CA               	bcf	(_rgb+17)& (0+255),2,b	;volatile
  7006  002A00                     u17787:
  7007  002A00  A5C5               	btfss	(_rgb+12)& (0+255),2,b	;volatile
  7008  002A02  D002               	bra	u17795
  7009  002A04  85CB               	bsf	(_rgb+18)& (0+255),2,b	;volatile
  7010  002A06  D002               	bra	u17797
  7011  002A08                     u17795:
  7012  002A08  0100               	movlb	0	; () banked
  7013  002A0A  95CB               	bcf	(_rgb+18)& (0+255),2,b	;volatile
  7014  002A0C                     u17797:
  7015                           
  7016                           ;newmain.c: 586:     rgb[15].r = rgb[21].r;rgb[12].r = rgb[22].r;
  7017  002A0C  A1CE               	btfss	(_rgb+21)& (0+255),0,b	;volatile
  7018  002A0E  D002               	bra	u17805
  7019  002A10  81C8               	bsf	(_rgb+15)& (0+255),0,b	;volatile
  7020  002A12  D002               	bra	u17807
  7021  002A14                     u17805:
  7022  002A14  0100               	movlb	0	; () banked
  7023  002A16  91C8               	bcf	(_rgb+15)& (0+255),0,b	;volatile
  7024  002A18                     u17807:
  7025  002A18  A1CF               	btfss	(_rgb+22)& (0+255),0,b	;volatile
  7026  002A1A  D002               	bra	u17815
  7027  002A1C  81C5               	bsf	(_rgb+12)& (0+255),0,b	;volatile
  7028  002A1E  D002               	bra	u17817
  7029  002A20                     u17815:
  7030  002A20  0100               	movlb	0	; () banked
  7031  002A22  91C5               	bcf	(_rgb+12)& (0+255),0,b	;volatile
  7032  002A24                     u17817:
  7033                           
  7034                           ;newmain.c: 587:     rgb[15].g = rgb[21].g;rgb[12].g = rgb[22].g;
  7035  002A24  A3CE               	btfss	(_rgb+21)& (0+255),1,b	;volatile
  7036  002A26  D002               	bra	u17825
  7037  002A28  83C8               	bsf	(_rgb+15)& (0+255),1,b	;volatile
  7038  002A2A  D002               	bra	u17827
  7039  002A2C                     u17825:
  7040  002A2C  0100               	movlb	0	; () banked
  7041  002A2E  93C8               	bcf	(_rgb+15)& (0+255),1,b	;volatile
  7042  002A30                     u17827:
  7043  002A30  A3CF               	btfss	(_rgb+22)& (0+255),1,b	;volatile
  7044  002A32  D002               	bra	u17835
  7045  002A34  83C5               	bsf	(_rgb+12)& (0+255),1,b	;volatile
  7046  002A36  D002               	bra	u17837
  7047  002A38                     u17835:
  7048  002A38  0100               	movlb	0	; () banked
  7049  002A3A  93C5               	bcf	(_rgb+12)& (0+255),1,b	;volatile
  7050  002A3C                     u17837:
  7051                           
  7052                           ;newmain.c: 588:     rgb[15].b = rgb[21].b;rgb[12].b = rgb[22].b;
  7053  002A3C  A5CE               	btfss	(_rgb+21)& (0+255),2,b	;volatile
  7054  002A3E  D002               	bra	u17845
  7055  002A40  85C8               	bsf	(_rgb+15)& (0+255),2,b	;volatile
  7056  002A42  D002               	bra	u17847
  7057  002A44                     u17845:
  7058  002A44  0100               	movlb	0	; () banked
  7059  002A46  95C8               	bcf	(_rgb+15)& (0+255),2,b	;volatile
  7060  002A48                     u17847:
  7061  002A48  A5CF               	btfss	(_rgb+22)& (0+255),2,b	;volatile
  7062  002A4A  D002               	bra	u17855
  7063  002A4C  85C5               	bsf	(_rgb+12)& (0+255),2,b	;volatile
  7064  002A4E  D002               	bra	u17857
  7065  002A50                     u17855:
  7066  002A50  0100               	movlb	0	; () banked
  7067  002A52  95C5               	bcf	(_rgb+12)& (0+255),2,b	;volatile
  7068  002A54                     u17857:
  7069                           
  7070                           ;newmain.c: 589:     rgb[21].r = tempa.r;rgb[22].r = tempb.r;
  7071  002A54  0101               	movlb	1	; () banked
  7072  002A56  A152               	btfss	rsb@tempa& (0+255),0,b
  7073  002A58  D003               	bra	u17865
  7074  002A5A  0100               	movlb	0	; () banked
  7075  002A5C  81CE               	bsf	(_rgb+21)& (0+255),0,b	;volatile
  7076  002A5E  D002               	bra	u17867
  7077  002A60                     u17865:
  7078  002A60  0100               	movlb	0	; () banked
  7079  002A62  91CE               	bcf	(_rgb+21)& (0+255),0,b	;volatile
  7080  002A64                     u17867:
  7081  002A64  0101               	movlb	1	; () banked
  7082  002A66  A153               	btfss	rsb@tempb& (0+255),0,b
  7083  002A68  D003               	bra	u17875
  7084  002A6A  0100               	movlb	0	; () banked
  7085  002A6C  81CF               	bsf	(_rgb+22)& (0+255),0,b	;volatile
  7086  002A6E  D002               	bra	u17877
  7087  002A70                     u17875:
  7088  002A70  0100               	movlb	0	; () banked
  7089  002A72  91CF               	bcf	(_rgb+22)& (0+255),0,b	;volatile
  7090  002A74                     u17877:
  7091                           
  7092                           ;newmain.c: 590:     rgb[21].g = tempa.g;rgb[22].g = tempb.g;
  7093  002A74  0101               	movlb	1	; () banked
  7094  002A76  A352               	btfss	rsb@tempa& (0+255),1,b
  7095  002A78  D003               	bra	u17885
  7096  002A7A  0100               	movlb	0	; () banked
  7097  002A7C  83CE               	bsf	(_rgb+21)& (0+255),1,b	;volatile
  7098  002A7E  D002               	bra	u17887
  7099  002A80                     u17885:
  7100  002A80  0100               	movlb	0	; () banked
  7101  002A82  93CE               	bcf	(_rgb+21)& (0+255),1,b	;volatile
  7102  002A84                     u17887:
  7103  002A84  0101               	movlb	1	; () banked
  7104  002A86  A353               	btfss	rsb@tempb& (0+255),1,b
  7105  002A88  D003               	bra	u17895
  7106  002A8A  0100               	movlb	0	; () banked
  7107  002A8C  83CF               	bsf	(_rgb+22)& (0+255),1,b	;volatile
  7108  002A8E  D002               	bra	u17897
  7109  002A90                     u17895:
  7110  002A90  0100               	movlb	0	; () banked
  7111  002A92  93CF               	bcf	(_rgb+22)& (0+255),1,b	;volatile
  7112  002A94                     u17897:
  7113                           
  7114                           ;newmain.c: 591:     rgb[21].b = tempa.b;rgb[22].b = tempb.b;
  7115  002A94  0101               	movlb	1	; () banked
  7116  002A96  A552               	btfss	rsb@tempa& (0+255),2,b
  7117  002A98  D003               	bra	u17905
  7118  002A9A  0100               	movlb	0	; () banked
  7119  002A9C  85CE               	bsf	(_rgb+21)& (0+255),2,b	;volatile
  7120  002A9E  D002               	bra	u17907
  7121  002AA0                     u17905:
  7122  002AA0  0100               	movlb	0	; () banked
  7123  002AA2  95CE               	bcf	(_rgb+21)& (0+255),2,b	;volatile
  7124  002AA4                     u17907:
  7125  002AA4  0101               	movlb	1	; () banked
  7126  002AA6  A553               	btfss	rsb@tempb& (0+255),2,b
  7127  002AA8  D003               	bra	u17915
  7128  002AAA  0100               	movlb	0	; () banked
  7129  002AAC  85CF               	bsf	(_rgb+22)& (0+255),2,b	;volatile
  7130  002AAE  D002               	bra	u17917
  7131  002AB0                     u17915:
  7132  002AB0  0100               	movlb	0	; () banked
  7133  002AB2  95CF               	bcf	(_rgb+22)& (0+255),2,b	;volatile
  7134  002AB4                     u17917:
  7135                           
  7136                           ;newmain.c: 592:     rgbarray tempc = rgb[8];
  7137  002AB4  C0C1  F154         	movff	_rgb+8,rsb@tempc	;volatile
  7138                           
  7139                           ;newmain.c: 593:     rgb[8].r = rgb[9].r;rgb[9].r = rgb[10].r;
  7140  002AB8  A1C2               	btfss	(_rgb+9)& (0+255),0,b	;volatile
  7141  002ABA  D002               	bra	u17925
  7142  002ABC  81C1               	bsf	(_rgb+8)& (0+255),0,b	;volatile
  7143  002ABE  D002               	bra	u17927
  7144  002AC0                     u17925:
  7145  002AC0  0100               	movlb	0	; () banked
  7146  002AC2  91C1               	bcf	(_rgb+8)& (0+255),0,b	;volatile
  7147  002AC4                     u17927:
  7148  002AC4  A1C3               	btfss	(_rgb+10)& (0+255),0,b	;volatile
  7149  002AC6  D002               	bra	u17935
  7150  002AC8  81C2               	bsf	(_rgb+9)& (0+255),0,b	;volatile
  7151  002ACA  D002               	bra	u17937
  7152  002ACC                     u17935:
  7153  002ACC  0100               	movlb	0	; () banked
  7154  002ACE  91C2               	bcf	(_rgb+9)& (0+255),0,b	;volatile
  7155  002AD0                     u17937:
  7156                           
  7157                           ;newmain.c: 594:     rgb[8].g = rgb[9].g;rgb[9].g = rgb[10].g;
  7158  002AD0  A3C2               	btfss	(_rgb+9)& (0+255),1,b	;volatile
  7159  002AD2  D002               	bra	u17945
  7160  002AD4  83C1               	bsf	(_rgb+8)& (0+255),1,b	;volatile
  7161  002AD6  D002               	bra	u17947
  7162  002AD8                     u17945:
  7163  002AD8  0100               	movlb	0	; () banked
  7164  002ADA  93C1               	bcf	(_rgb+8)& (0+255),1,b	;volatile
  7165  002ADC                     u17947:
  7166  002ADC  A3C3               	btfss	(_rgb+10)& (0+255),1,b	;volatile
  7167  002ADE  D002               	bra	u17955
  7168  002AE0  83C2               	bsf	(_rgb+9)& (0+255),1,b	;volatile
  7169  002AE2  D002               	bra	u17957
  7170  002AE4                     u17955:
  7171  002AE4  0100               	movlb	0	; () banked
  7172  002AE6  93C2               	bcf	(_rgb+9)& (0+255),1,b	;volatile
  7173  002AE8                     u17957:
  7174                           
  7175                           ;newmain.c: 595:     rgb[8].b = rgb[9].b;rgb[9].b = rgb[10].b;
  7176  002AE8  A5C2               	btfss	(_rgb+9)& (0+255),2,b	;volatile
  7177  002AEA  D002               	bra	u17965
  7178  002AEC  85C1               	bsf	(_rgb+8)& (0+255),2,b	;volatile
  7179  002AEE  D002               	bra	u17967
  7180  002AF0                     u17965:
  7181  002AF0  0100               	movlb	0	; () banked
  7182  002AF2  95C1               	bcf	(_rgb+8)& (0+255),2,b	;volatile
  7183  002AF4                     u17967:
  7184  002AF4  A5C3               	btfss	(_rgb+10)& (0+255),2,b	;volatile
  7185  002AF6  D002               	bra	u17975
  7186  002AF8  85C2               	bsf	(_rgb+9)& (0+255),2,b	;volatile
  7187  002AFA  D002               	bra	u17977
  7188  002AFC                     u17975:
  7189  002AFC  0100               	movlb	0	; () banked
  7190  002AFE  95C2               	bcf	(_rgb+9)& (0+255),2,b	;volatile
  7191  002B00                     u17977:
  7192                           
  7193                           ;newmain.c: 596:     rgb[10].r = rgb[11].r;rgb[11].r = tempc.r;
  7194  002B00  A1C4               	btfss	(_rgb+11)& (0+255),0,b	;volatile
  7195  002B02  D002               	bra	u17985
  7196  002B04  81C3               	bsf	(_rgb+10)& (0+255),0,b	;volatile
  7197  002B06  D002               	bra	u17987
  7198  002B08                     u17985:
  7199  002B08  0100               	movlb	0	; () banked
  7200  002B0A  91C3               	bcf	(_rgb+10)& (0+255),0,b	;volatile
  7201  002B0C                     u17987:
  7202  002B0C  0101               	movlb	1	; () banked
  7203  002B0E  A154               	btfss	rsb@tempc& (0+255),0,b
  7204  002B10  D003               	bra	u17995
  7205  002B12  0100               	movlb	0	; () banked
  7206  002B14  81C4               	bsf	(_rgb+11)& (0+255),0,b	;volatile
  7207  002B16  D002               	bra	u17997
  7208  002B18                     u17995:
  7209  002B18  0100               	movlb	0	; () banked
  7210  002B1A  91C4               	bcf	(_rgb+11)& (0+255),0,b	;volatile
  7211  002B1C                     u17997:
  7212                           
  7213                           ;newmain.c: 597:     rgb[10].g = rgb[11].g;rgb[11].g = tempc.g;
  7214  002B1C  A3C4               	btfss	(_rgb+11)& (0+255),1,b	;volatile
  7215  002B1E  D002               	bra	u18005
  7216  002B20  83C3               	bsf	(_rgb+10)& (0+255),1,b	;volatile
  7217  002B22  D002               	bra	u18007
  7218  002B24                     u18005:
  7219  002B24  0100               	movlb	0	; () banked
  7220  002B26  93C3               	bcf	(_rgb+10)& (0+255),1,b	;volatile
  7221  002B28                     u18007:
  7222  002B28  0101               	movlb	1	; () banked
  7223  002B2A  A354               	btfss	rsb@tempc& (0+255),1,b
  7224  002B2C  D003               	bra	u18015
  7225  002B2E  0100               	movlb	0	; () banked
  7226  002B30  83C4               	bsf	(_rgb+11)& (0+255),1,b	;volatile
  7227  002B32  D002               	bra	u18017
  7228  002B34                     u18015:
  7229  002B34  0100               	movlb	0	; () banked
  7230  002B36  93C4               	bcf	(_rgb+11)& (0+255),1,b	;volatile
  7231  002B38                     u18017:
  7232                           
  7233                           ;newmain.c: 598:     rgb[10].b = rgb[11].b;rgb[11].b = tempc.b;
  7234  002B38  A5C4               	btfss	(_rgb+11)& (0+255),2,b	;volatile
  7235  002B3A  D002               	bra	u18025
  7236  002B3C  85C3               	bsf	(_rgb+10)& (0+255),2,b	;volatile
  7237  002B3E  D002               	bra	u18027
  7238  002B40                     u18025:
  7239  002B40  0100               	movlb	0	; () banked
  7240  002B42  95C3               	bcf	(_rgb+10)& (0+255),2,b	;volatile
  7241  002B44                     u18027:
  7242  002B44  0101               	movlb	1	; () banked
  7243  002B46  A554               	btfss	rsb@tempc& (0+255),2,b
  7244  002B48  D003               	bra	u18035
  7245  002B4A  0100               	movlb	0	; () banked
  7246  002B4C  85C4               	bsf	(_rgb+11)& (0+255),2,b	;volatile
  7247  002B4E  D002               	bra	u18037
  7248  002B50                     u18035:
  7249  002B50  0100               	movlb	0	; () banked
  7250  002B52  95C4               	bcf	(_rgb+11)& (0+255),2,b	;volatile
  7251  002B54                     u18037:
  7252  002B54                     
  7253                           ; BSR set to: 0
  7254  002B54  0012               	return		;funcret
  7255  002B56                     __end_of_rsb:
  7256                           	opt callstack 0
  7257                           
  7258 ;; *************** function _rr *****************
  7259 ;; Defined at:
  7260 ;;		line 245 in file "newmain.c"
  7261 ;; Parameters:    Size  Location     Type
  7262 ;;		None
  7263 ;; Auto vars:     Size  Location     Type
  7264 ;;  tempc           1    2[BANK1 ] struct RGB
  7265 ;;  tempb           1    1[BANK1 ] struct RGB
  7266 ;;  tempa           1    0[BANK1 ] struct RGB
  7267 ;; Return value:  Size  Location     Type
  7268 ;;                  1    wreg      void 
  7269 ;; Registers used:
  7270 ;;		None
  7271 ;; Tracked objects:
  7272 ;;		On entry : 0/0
  7273 ;;		On exit  : 0/0
  7274 ;;		Unchanged: 0/0
  7275 ;; Data sizes:     COMRAM   BANK0   BANK1   BANK2   BANK3   BANK4   BANK5
  7276 ;;      Params:         0       0       0       0       0       0       0
  7277 ;;      Locals:         0       0       3       0       0       0       0
  7278 ;;      Temps:          0       0       0       0       0       0       0
  7279 ;;      Totals:         0       0       3       0       0       0       0
  7280 ;;Total ram usage:        3 bytes
  7281 ;; Hardware stack levels used:    1
  7282 ;; Hardware stack levels required when called:    7
  7283 ;; This function calls:
  7284 ;;		Nothing
  7285 ;; This function is called by:
  7286 ;;		_rotate_r
  7287 ;;		_random_cube
  7288 ;; This function uses a non-reentrant model
  7289 ;;
  7290                           
  7291                           	psect	text17
  7292  002B56                     __ptext17:
  7293                           	opt callstack 0
  7294  002B56                     _rr:
  7295                           	opt callstack 22
  7296  002B56                     
  7297                           ;newmain.c: 246:     rgbarray tempa = rgb[2];
  7298  002B56  C0BB  F152         	movff	_rgb+2,rr@tempa	;volatile
  7299                           
  7300                           ;newmain.c: 247:     rgbarray tempb = rgb[3];
  7301  002B5A  C0BC  F153         	movff	_rgb+3,rr@tempb	;volatile
  7302                           
  7303                           ;newmain.c: 248:     rgb[2].r = rgb[6].r;rgb[3].r = rgb[7].r;
  7304  002B5E  0100               	movlb	0	; () banked
  7305  002B60  A1BF               	btfss	(_rgb+6)& (0+255),0,b	;volatile
  7306  002B62  D002               	bra	u14085
  7307  002B64  81BB               	bsf	(_rgb+2)& (0+255),0,b	;volatile
  7308  002B66  D002               	bra	u14087
  7309  002B68                     u14085:
  7310  002B68  0100               	movlb	0	; () banked
  7311  002B6A  91BB               	bcf	(_rgb+2)& (0+255),0,b	;volatile
  7312  002B6C                     u14087:
  7313  002B6C  A1C0               	btfss	(_rgb+7)& (0+255),0,b	;volatile
  7314  002B6E  D002               	bra	u14095
  7315  002B70  81BC               	bsf	(_rgb+3)& (0+255),0,b	;volatile
  7316  002B72  D002               	bra	u14097
  7317  002B74                     u14095:
  7318  002B74  0100               	movlb	0	; () banked
  7319  002B76  91BC               	bcf	(_rgb+3)& (0+255),0,b	;volatile
  7320  002B78                     u14097:
  7321                           
  7322                           ;newmain.c: 249:     rgb[2].g = rgb[6].g;rgb[3].g = rgb[7].g;
  7323  002B78  A3BF               	btfss	(_rgb+6)& (0+255),1,b	;volatile
  7324  002B7A  D002               	bra	u14105
  7325  002B7C  83BB               	bsf	(_rgb+2)& (0+255),1,b	;volatile
  7326  002B7E  D002               	bra	u14107
  7327  002B80                     u14105:
  7328  002B80  0100               	movlb	0	; () banked
  7329  002B82  93BB               	bcf	(_rgb+2)& (0+255),1,b	;volatile
  7330  002B84                     u14107:
  7331  002B84  A3C0               	btfss	(_rgb+7)& (0+255),1,b	;volatile
  7332  002B86  D002               	bra	u14115
  7333  002B88  83BC               	bsf	(_rgb+3)& (0+255),1,b	;volatile
  7334  002B8A  D002               	bra	u14117
  7335  002B8C                     u14115:
  7336  002B8C  0100               	movlb	0	; () banked
  7337  002B8E  93BC               	bcf	(_rgb+3)& (0+255),1,b	;volatile
  7338  002B90                     u14117:
  7339                           
  7340                           ;newmain.c: 250:     rgb[2].b = rgb[6].b;rgb[3].b = rgb[7].b;
  7341  002B90  A5BF               	btfss	(_rgb+6)& (0+255),2,b	;volatile
  7342  002B92  D002               	bra	u14125
  7343  002B94  85BB               	bsf	(_rgb+2)& (0+255),2,b	;volatile
  7344  002B96  D002               	bra	u14127
  7345  002B98                     u14125:
  7346  002B98  0100               	movlb	0	; () banked
  7347  002B9A  95BB               	bcf	(_rgb+2)& (0+255),2,b	;volatile
  7348  002B9C                     u14127:
  7349  002B9C  A5C0               	btfss	(_rgb+7)& (0+255),2,b	;volatile
  7350  002B9E  D002               	bra	u14135
  7351  002BA0  85BC               	bsf	(_rgb+3)& (0+255),2,b	;volatile
  7352  002BA2  D002               	bra	u14137
  7353  002BA4                     u14135:
  7354  002BA4  0100               	movlb	0	; () banked
  7355  002BA6  95BC               	bcf	(_rgb+3)& (0+255),2,b	;volatile
  7356  002BA8                     u14137:
  7357                           
  7358                           ;newmain.c: 251:     rgb[6].r = rgb[10].r;rgb[7].r = rgb[11].r;
  7359  002BA8  A1C3               	btfss	(_rgb+10)& (0+255),0,b	;volatile
  7360  002BAA  D002               	bra	u14145
  7361  002BAC  81BF               	bsf	(_rgb+6)& (0+255),0,b	;volatile
  7362  002BAE  D002               	bra	u14147
  7363  002BB0                     u14145:
  7364  002BB0  0100               	movlb	0	; () banked
  7365  002BB2  91BF               	bcf	(_rgb+6)& (0+255),0,b	;volatile
  7366  002BB4                     u14147:
  7367  002BB4  A1C4               	btfss	(_rgb+11)& (0+255),0,b	;volatile
  7368  002BB6  D002               	bra	u14155
  7369  002BB8  81C0               	bsf	(_rgb+7)& (0+255),0,b	;volatile
  7370  002BBA  D002               	bra	u14157
  7371  002BBC                     u14155:
  7372  002BBC  0100               	movlb	0	; () banked
  7373  002BBE  91C0               	bcf	(_rgb+7)& (0+255),0,b	;volatile
  7374  002BC0                     u14157:
  7375                           
  7376                           ;newmain.c: 252:     rgb[6].g = rgb[10].g;rgb[7].g = rgb[11].g;
  7377  002BC0  A3C3               	btfss	(_rgb+10)& (0+255),1,b	;volatile
  7378  002BC2  D002               	bra	u14165
  7379  002BC4  83BF               	bsf	(_rgb+6)& (0+255),1,b	;volatile
  7380  002BC6  D002               	bra	u14167
  7381  002BC8                     u14165:
  7382  002BC8  0100               	movlb	0	; () banked
  7383  002BCA  93BF               	bcf	(_rgb+6)& (0+255),1,b	;volatile
  7384  002BCC                     u14167:
  7385  002BCC  A3C4               	btfss	(_rgb+11)& (0+255),1,b	;volatile
  7386  002BCE  D002               	bra	u14175
  7387  002BD0  83C0               	bsf	(_rgb+7)& (0+255),1,b	;volatile
  7388  002BD2  D002               	bra	u14177
  7389  002BD4                     u14175:
  7390  002BD4  0100               	movlb	0	; () banked
  7391  002BD6  93C0               	bcf	(_rgb+7)& (0+255),1,b	;volatile
  7392  002BD8                     u14177:
  7393                           
  7394                           ;newmain.c: 253:     rgb[6].b = rgb[10].b;rgb[7].b = rgb[11].b;
  7395  002BD8  A5C3               	btfss	(_rgb+10)& (0+255),2,b	;volatile
  7396  002BDA  D002               	bra	u14185
  7397  002BDC  85BF               	bsf	(_rgb+6)& (0+255),2,b	;volatile
  7398  002BDE  D002               	bra	u14187
  7399  002BE0                     u14185:
  7400  002BE0  0100               	movlb	0	; () banked
  7401  002BE2  95BF               	bcf	(_rgb+6)& (0+255),2,b	;volatile
  7402  002BE4                     u14187:
  7403  002BE4  A5C4               	btfss	(_rgb+11)& (0+255),2,b	;volatile
  7404  002BE6  D002               	bra	u14195
  7405  002BE8  85C0               	bsf	(_rgb+7)& (0+255),2,b	;volatile
  7406  002BEA  D002               	bra	u14197
  7407  002BEC                     u14195:
  7408  002BEC  0100               	movlb	0	; () banked
  7409  002BEE  95C0               	bcf	(_rgb+7)& (0+255),2,b	;volatile
  7410  002BF0                     u14197:
  7411                           
  7412                           ;newmain.c: 254:     rgb[10].r = rgb[14].r;rgb[11].r = rgb[15].r;
  7413  002BF0  A1C7               	btfss	(_rgb+14)& (0+255),0,b	;volatile
  7414  002BF2  D002               	bra	u14205
  7415  002BF4  81C3               	bsf	(_rgb+10)& (0+255),0,b	;volatile
  7416  002BF6  D002               	bra	u14207
  7417  002BF8                     u14205:
  7418  002BF8  0100               	movlb	0	; () banked
  7419  002BFA  91C3               	bcf	(_rgb+10)& (0+255),0,b	;volatile
  7420  002BFC                     u14207:
  7421  002BFC  A1C8               	btfss	(_rgb+15)& (0+255),0,b	;volatile
  7422  002BFE  D002               	bra	u14215
  7423  002C00  81C4               	bsf	(_rgb+11)& (0+255),0,b	;volatile
  7424  002C02  D002               	bra	u14217
  7425  002C04                     u14215:
  7426  002C04  0100               	movlb	0	; () banked
  7427  002C06  91C4               	bcf	(_rgb+11)& (0+255),0,b	;volatile
  7428  002C08                     u14217:
  7429                           
  7430                           ;newmain.c: 255:     rgb[10].g = rgb[14].g;rgb[11].g = rgb[15].g;
  7431  002C08  A3C7               	btfss	(_rgb+14)& (0+255),1,b	;volatile
  7432  002C0A  D002               	bra	u14225
  7433  002C0C  83C3               	bsf	(_rgb+10)& (0+255),1,b	;volatile
  7434  002C0E  D002               	bra	u14227
  7435  002C10                     u14225:
  7436  002C10  0100               	movlb	0	; () banked
  7437  002C12  93C3               	bcf	(_rgb+10)& (0+255),1,b	;volatile
  7438  002C14                     u14227:
  7439  002C14  A3C8               	btfss	(_rgb+15)& (0+255),1,b	;volatile
  7440  002C16  D002               	bra	u14235
  7441  002C18  83C4               	bsf	(_rgb+11)& (0+255),1,b	;volatile
  7442  002C1A  D002               	bra	u14237
  7443  002C1C                     u14235:
  7444  002C1C  0100               	movlb	0	; () banked
  7445  002C1E  93C4               	bcf	(_rgb+11)& (0+255),1,b	;volatile
  7446  002C20                     u14237:
  7447                           
  7448                           ;newmain.c: 256:     rgb[10].b = rgb[14].b;rgb[11].b = rgb[15].b;
  7449  002C20  A5C7               	btfss	(_rgb+14)& (0+255),2,b	;volatile
  7450  002C22  D002               	bra	u14245
  7451  002C24  85C3               	bsf	(_rgb+10)& (0+255),2,b	;volatile
  7452  002C26  D002               	bra	u14247
  7453  002C28                     u14245:
  7454  002C28  0100               	movlb	0	; () banked
  7455  002C2A  95C3               	bcf	(_rgb+10)& (0+255),2,b	;volatile
  7456  002C2C                     u14247:
  7457  002C2C  A5C8               	btfss	(_rgb+15)& (0+255),2,b	;volatile
  7458  002C2E  D002               	bra	u14255
  7459  002C30  85C4               	bsf	(_rgb+11)& (0+255),2,b	;volatile
  7460  002C32  D002               	bra	u14257
  7461  002C34                     u14255:
  7462  002C34  0100               	movlb	0	; () banked
  7463  002C36  95C4               	bcf	(_rgb+11)& (0+255),2,b	;volatile
  7464  002C38                     u14257:
  7465                           
  7466                           ;newmain.c: 257:     rgb[14].r = tempa.r;rgb[15].r = tempb.r;
  7467  002C38  0101               	movlb	1	; () banked
  7468  002C3A  A152               	btfss	rr@tempa& (0+255),0,b
  7469  002C3C  D003               	bra	u14265
  7470  002C3E  0100               	movlb	0	; () banked
  7471  002C40  81C7               	bsf	(_rgb+14)& (0+255),0,b	;volatile
  7472  002C42  D002               	bra	u14267
  7473  002C44                     u14265:
  7474  002C44  0100               	movlb	0	; () banked
  7475  002C46  91C7               	bcf	(_rgb+14)& (0+255),0,b	;volatile
  7476  002C48                     u14267:
  7477  002C48  0101               	movlb	1	; () banked
  7478  002C4A  A153               	btfss	rr@tempb& (0+255),0,b
  7479  002C4C  D003               	bra	u14275
  7480  002C4E  0100               	movlb	0	; () banked
  7481  002C50  81C8               	bsf	(_rgb+15)& (0+255),0,b	;volatile
  7482  002C52  D002               	bra	u14277
  7483  002C54                     u14275:
  7484  002C54  0100               	movlb	0	; () banked
  7485  002C56  91C8               	bcf	(_rgb+15)& (0+255),0,b	;volatile
  7486  002C58                     u14277:
  7487                           
  7488                           ;newmain.c: 258:     rgb[14].g = tempa.g;rgb[15].g = tempb.g;
  7489  002C58  0101               	movlb	1	; () banked
  7490  002C5A  A352               	btfss	rr@tempa& (0+255),1,b
  7491  002C5C  D003               	bra	u14285
  7492  002C5E  0100               	movlb	0	; () banked
  7493  002C60  83C7               	bsf	(_rgb+14)& (0+255),1,b	;volatile
  7494  002C62  D002               	bra	u14287
  7495  002C64                     u14285:
  7496  002C64  0100               	movlb	0	; () banked
  7497  002C66  93C7               	bcf	(_rgb+14)& (0+255),1,b	;volatile
  7498  002C68                     u14287:
  7499  002C68  0101               	movlb	1	; () banked
  7500  002C6A  A353               	btfss	rr@tempb& (0+255),1,b
  7501  002C6C  D003               	bra	u14295
  7502  002C6E  0100               	movlb	0	; () banked
  7503  002C70  83C8               	bsf	(_rgb+15)& (0+255),1,b	;volatile
  7504  002C72  D002               	bra	u14297
  7505  002C74                     u14295:
  7506  002C74  0100               	movlb	0	; () banked
  7507  002C76  93C8               	bcf	(_rgb+15)& (0+255),1,b	;volatile
  7508  002C78                     u14297:
  7509                           
  7510                           ;newmain.c: 259:     rgb[14].b = tempa.b;rgb[15].b = tempb.b;
  7511  002C78  0101               	movlb	1	; () banked
  7512  002C7A  A552               	btfss	rr@tempa& (0+255),2,b
  7513  002C7C  D003               	bra	u14305
  7514  002C7E  0100               	movlb	0	; () banked
  7515  002C80  85C7               	bsf	(_rgb+14)& (0+255),2,b	;volatile
  7516  002C82  D002               	bra	u14307
  7517  002C84                     u14305:
  7518  002C84  0100               	movlb	0	; () banked
  7519  002C86  95C7               	bcf	(_rgb+14)& (0+255),2,b	;volatile
  7520  002C88                     u14307:
  7521  002C88  0101               	movlb	1	; () banked
  7522  002C8A  A553               	btfss	rr@tempb& (0+255),2,b
  7523  002C8C  D003               	bra	u14315
  7524  002C8E  0100               	movlb	0	; () banked
  7525  002C90  85C8               	bsf	(_rgb+15)& (0+255),2,b	;volatile
  7526  002C92  D002               	bra	u14317
  7527  002C94                     u14315:
  7528  002C94  0100               	movlb	0	; () banked
  7529  002C96  95C8               	bcf	(_rgb+15)& (0+255),2,b	;volatile
  7530  002C98                     u14317:
  7531                           
  7532                           ;newmain.c: 260:     rgbarray tempc = rgb[20];
  7533  002C98  C0CD  F154         	movff	_rgb+20,rr@tempc	;volatile
  7534                           
  7535                           ;newmain.c: 261:     rgb[20].r = rgb[21].r;rgb[21].r = rgb[22].r;
  7536  002C9C  A1CE               	btfss	(_rgb+21)& (0+255),0,b	;volatile
  7537  002C9E  D002               	bra	u14325
  7538  002CA0  81CD               	bsf	(_rgb+20)& (0+255),0,b	;volatile
  7539  002CA2  D002               	bra	u14327
  7540  002CA4                     u14325:
  7541  002CA4  0100               	movlb	0	; () banked
  7542  002CA6  91CD               	bcf	(_rgb+20)& (0+255),0,b	;volatile
  7543  002CA8                     u14327:
  7544  002CA8  A1CF               	btfss	(_rgb+22)& (0+255),0,b	;volatile
  7545  002CAA  D002               	bra	u14335
  7546  002CAC  81CE               	bsf	(_rgb+21)& (0+255),0,b	;volatile
  7547  002CAE  D002               	bra	u14337
  7548  002CB0                     u14335:
  7549  002CB0  0100               	movlb	0	; () banked
  7550  002CB2  91CE               	bcf	(_rgb+21)& (0+255),0,b	;volatile
  7551  002CB4                     u14337:
  7552                           
  7553                           ;newmain.c: 262:     rgb[20].g = rgb[21].g;rgb[21].g = rgb[22].g;
  7554  002CB4  A3CE               	btfss	(_rgb+21)& (0+255),1,b	;volatile
  7555  002CB6  D002               	bra	u14345
  7556  002CB8  83CD               	bsf	(_rgb+20)& (0+255),1,b	;volatile
  7557  002CBA  D002               	bra	u14347
  7558  002CBC                     u14345:
  7559  002CBC  0100               	movlb	0	; () banked
  7560  002CBE  93CD               	bcf	(_rgb+20)& (0+255),1,b	;volatile
  7561  002CC0                     u14347:
  7562  002CC0  A3CF               	btfss	(_rgb+22)& (0+255),1,b	;volatile
  7563  002CC2  D002               	bra	u14355
  7564  002CC4  83CE               	bsf	(_rgb+21)& (0+255),1,b	;volatile
  7565  002CC6  D002               	bra	u14357
  7566  002CC8                     u14355:
  7567  002CC8  0100               	movlb	0	; () banked
  7568  002CCA  93CE               	bcf	(_rgb+21)& (0+255),1,b	;volatile
  7569  002CCC                     u14357:
  7570                           
  7571                           ;newmain.c: 263:     rgb[20].b = rgb[21].b;rgb[21].b = rgb[22].b;
  7572  002CCC  A5CE               	btfss	(_rgb+21)& (0+255),2,b	;volatile
  7573  002CCE  D002               	bra	u14365
  7574  002CD0  85CD               	bsf	(_rgb+20)& (0+255),2,b	;volatile
  7575  002CD2  D002               	bra	u14367
  7576  002CD4                     u14365:
  7577  002CD4  0100               	movlb	0	; () banked
  7578  002CD6  95CD               	bcf	(_rgb+20)& (0+255),2,b	;volatile
  7579  002CD8                     u14367:
  7580  002CD8  A5CF               	btfss	(_rgb+22)& (0+255),2,b	;volatile
  7581  002CDA  D002               	bra	u14375
  7582  002CDC  85CE               	bsf	(_rgb+21)& (0+255),2,b	;volatile
  7583  002CDE  D002               	bra	u14377
  7584  002CE0                     u14375:
  7585  002CE0  0100               	movlb	0	; () banked
  7586  002CE2  95CE               	bcf	(_rgb+21)& (0+255),2,b	;volatile
  7587  002CE4                     u14377:
  7588                           
  7589                           ;newmain.c: 264:     rgb[22].r = rgb[23].r;rgb[23].r = tempc.r;
  7590  002CE4  A1D0               	btfss	(_rgb+23)& (0+255),0,b	;volatile
  7591  002CE6  D002               	bra	u14385
  7592  002CE8  81CF               	bsf	(_rgb+22)& (0+255),0,b	;volatile
  7593  002CEA  D002               	bra	u14387
  7594  002CEC                     u14385:
  7595  002CEC  0100               	movlb	0	; () banked
  7596  002CEE  91CF               	bcf	(_rgb+22)& (0+255),0,b	;volatile
  7597  002CF0                     u14387:
  7598  002CF0  0101               	movlb	1	; () banked
  7599  002CF2  A154               	btfss	rr@tempc& (0+255),0,b
  7600  002CF4  D003               	bra	u14395
  7601  002CF6  0100               	movlb	0	; () banked
  7602  002CF8  81D0               	bsf	(_rgb+23)& (0+255),0,b	;volatile
  7603  002CFA  D002               	bra	u14397
  7604  002CFC                     u14395:
  7605  002CFC  0100               	movlb	0	; () banked
  7606  002CFE  91D0               	bcf	(_rgb+23)& (0+255),0,b	;volatile
  7607  002D00                     u14397:
  7608                           
  7609                           ;newmain.c: 265:     rgb[22].g = rgb[23].g;rgb[23].g = tempc.g;
  7610  002D00  A3D0               	btfss	(_rgb+23)& (0+255),1,b	;volatile
  7611  002D02  D002               	bra	u14405
  7612  002D04  83CF               	bsf	(_rgb+22)& (0+255),1,b	;volatile
  7613  002D06  D002               	bra	u14407
  7614  002D08                     u14405:
  7615  002D08  0100               	movlb	0	; () banked
  7616  002D0A  93CF               	bcf	(_rgb+22)& (0+255),1,b	;volatile
  7617  002D0C                     u14407:
  7618  002D0C  0101               	movlb	1	; () banked
  7619  002D0E  A354               	btfss	rr@tempc& (0+255),1,b
  7620  002D10  D003               	bra	u14415
  7621  002D12  0100               	movlb	0	; () banked
  7622  002D14  83D0               	bsf	(_rgb+23)& (0+255),1,b	;volatile
  7623  002D16  D002               	bra	u14417
  7624  002D18                     u14415:
  7625  002D18  0100               	movlb	0	; () banked
  7626  002D1A  93D0               	bcf	(_rgb+23)& (0+255),1,b	;volatile
  7627  002D1C                     u14417:
  7628                           
  7629                           ;newmain.c: 266:     rgb[22].b = rgb[23].b;rgb[23].b = tempc.b;
  7630  002D1C  A5D0               	btfss	(_rgb+23)& (0+255),2,b	;volatile
  7631  002D1E  D002               	bra	u14425
  7632  002D20  85CF               	bsf	(_rgb+22)& (0+255),2,b	;volatile
  7633  002D22  D002               	bra	u14427
  7634  002D24                     u14425:
  7635  002D24  0100               	movlb	0	; () banked
  7636  002D26  95CF               	bcf	(_rgb+22)& (0+255),2,b	;volatile
  7637  002D28                     u14427:
  7638  002D28  0101               	movlb	1	; () banked
  7639  002D2A  A554               	btfss	rr@tempc& (0+255),2,b
  7640  002D2C  D003               	bra	u14435
  7641  002D2E  0100               	movlb	0	; () banked
  7642  002D30  85D0               	bsf	(_rgb+23)& (0+255),2,b	;volatile
  7643  002D32  D002               	bra	u14437
  7644  002D34                     u14435:
  7645  002D34  0100               	movlb	0	; () banked
  7646  002D36  95D0               	bcf	(_rgb+23)& (0+255),2,b	;volatile
  7647  002D38                     u14437:
  7648  002D38                     
  7649                           ; BSR set to: 0
  7650  002D38  0012               	return		;funcret
  7651  002D3A                     __end_of_rr:
  7652                           	opt callstack 0
  7653                           
  7654 ;; *************** function _rl *****************
  7655 ;; Defined at:
  7656 ;;		line 312 in file "newmain.c"
  7657 ;; Parameters:    Size  Location     Type
  7658 ;;		None
  7659 ;; Auto vars:     Size  Location     Type
  7660 ;;  tempf           1    2[BANK1 ] struct RGB
  7661 ;;  tempb           1    1[BANK1 ] struct RGB
  7662 ;;  tempa           1    0[BANK1 ] struct RGB
  7663 ;; Return value:  Size  Location     Type
  7664 ;;                  1    wreg      void 
  7665 ;; Registers used:
  7666 ;;		None
  7667 ;; Tracked objects:
  7668 ;;		On entry : 0/0
  7669 ;;		On exit  : 0/0
  7670 ;;		Unchanged: 0/0
  7671 ;; Data sizes:     COMRAM   BANK0   BANK1   BANK2   BANK3   BANK4   BANK5
  7672 ;;      Params:         0       0       0       0       0       0       0
  7673 ;;      Locals:         0       0       3       0       0       0       0
  7674 ;;      Temps:          0       0       0       0       0       0       0
  7675 ;;      Totals:         0       0       3       0       0       0       0
  7676 ;;Total ram usage:        3 bytes
  7677 ;; Hardware stack levels used:    1
  7678 ;; Hardware stack levels required when called:    7
  7679 ;; This function calls:
  7680 ;;		Nothing
  7681 ;; This function is called by:
  7682 ;;		_rotate_l
  7683 ;;		_random_cube
  7684 ;; This function uses a non-reentrant model
  7685 ;;
  7686                           
  7687                           	psect	text18
  7688  002D3A                     __ptext18:
  7689                           	opt callstack 0
  7690  002D3A                     _rl:
  7691                           	opt callstack 22
  7692  002D3A                     
  7693                           ;newmain.c: 313:     rgbarray tempa = rgb[0];
  7694  002D3A  C0B9  F152         	movff	_rgb,rl@tempa	;volatile
  7695                           
  7696                           ;newmain.c: 314:     rgbarray tempb = rgb[1];
  7697  002D3E  C0BA  F153         	movff	_rgb+1,rl@tempb	;volatile
  7698                           
  7699                           ;newmain.c: 315:     rgb[0].r = rgb[4].r;rgb[1].r = rgb[5].r;
  7700  002D42  0100               	movlb	0	; () banked
  7701  002D44  A1BD               	btfss	(_rgb+4)& (0+255),0,b	;volatile
  7702  002D46  D002               	bra	u14805
  7703  002D48  81B9               	bsf	_rgb& (0+255),0,b	;volatile
  7704  002D4A  D002               	bra	u14807
  7705  002D4C                     u14805:
  7706  002D4C  0100               	movlb	0	; () banked
  7707  002D4E  91B9               	bcf	_rgb& (0+255),0,b	;volatile
  7708  002D50                     u14807:
  7709  002D50  A1BE               	btfss	(_rgb+5)& (0+255),0,b	;volatile
  7710  002D52  D002               	bra	u14815
  7711  002D54  81BA               	bsf	(_rgb+1)& (0+255),0,b	;volatile
  7712  002D56  D002               	bra	u14817
  7713  002D58                     u14815:
  7714  002D58  0100               	movlb	0	; () banked
  7715  002D5A  91BA               	bcf	(_rgb+1)& (0+255),0,b	;volatile
  7716  002D5C                     u14817:
  7717                           
  7718                           ;newmain.c: 316:     rgb[0].g = rgb[4].g;rgb[1].g = rgb[5].g;
  7719  002D5C  A3BD               	btfss	(_rgb+4)& (0+255),1,b	;volatile
  7720  002D5E  D002               	bra	u14825
  7721  002D60  83B9               	bsf	_rgb& (0+255),1,b	;volatile
  7722  002D62  D002               	bra	u14827
  7723  002D64                     u14825:
  7724  002D64  0100               	movlb	0	; () banked
  7725  002D66  93B9               	bcf	_rgb& (0+255),1,b	;volatile
  7726  002D68                     u14827:
  7727  002D68  A3BE               	btfss	(_rgb+5)& (0+255),1,b	;volatile
  7728  002D6A  D002               	bra	u14835
  7729  002D6C  83BA               	bsf	(_rgb+1)& (0+255),1,b	;volatile
  7730  002D6E  D002               	bra	u14837
  7731  002D70                     u14835:
  7732  002D70  0100               	movlb	0	; () banked
  7733  002D72  93BA               	bcf	(_rgb+1)& (0+255),1,b	;volatile
  7734  002D74                     u14837:
  7735                           
  7736                           ;newmain.c: 317:     rgb[0].b = rgb[4].b;rgb[1].b = rgb[5].b;
  7737  002D74  A5BD               	btfss	(_rgb+4)& (0+255),2,b	;volatile
  7738  002D76  D002               	bra	u14845
  7739  002D78  85B9               	bsf	_rgb& (0+255),2,b	;volatile
  7740  002D7A  D002               	bra	u14847
  7741  002D7C                     u14845:
  7742  002D7C  0100               	movlb	0	; () banked
  7743  002D7E  95B9               	bcf	_rgb& (0+255),2,b	;volatile
  7744  002D80                     u14847:
  7745  002D80  A5BE               	btfss	(_rgb+5)& (0+255),2,b	;volatile
  7746  002D82  D002               	bra	u14855
  7747  002D84  85BA               	bsf	(_rgb+1)& (0+255),2,b	;volatile
  7748  002D86  D002               	bra	u14857
  7749  002D88                     u14855:
  7750  002D88  0100               	movlb	0	; () banked
  7751  002D8A  95BA               	bcf	(_rgb+1)& (0+255),2,b	;volatile
  7752  002D8C                     u14857:
  7753                           
  7754                           ;newmain.c: 318:     rgb[4].r = rgb[8].r;rgb[5].r = rgb[9].r;
  7755  002D8C  A1C1               	btfss	(_rgb+8)& (0+255),0,b	;volatile
  7756  002D8E  D002               	bra	u14865
  7757  002D90  81BD               	bsf	(_rgb+4)& (0+255),0,b	;volatile
  7758  002D92  D002               	bra	u14867
  7759  002D94                     u14865:
  7760  002D94  0100               	movlb	0	; () banked
  7761  002D96  91BD               	bcf	(_rgb+4)& (0+255),0,b	;volatile
  7762  002D98                     u14867:
  7763  002D98  A1C2               	btfss	(_rgb+9)& (0+255),0,b	;volatile
  7764  002D9A  D002               	bra	u14875
  7765  002D9C  81BE               	bsf	(_rgb+5)& (0+255),0,b	;volatile
  7766  002D9E  D002               	bra	u14877
  7767  002DA0                     u14875:
  7768  002DA0  0100               	movlb	0	; () banked
  7769  002DA2  91BE               	bcf	(_rgb+5)& (0+255),0,b	;volatile
  7770  002DA4                     u14877:
  7771                           
  7772                           ;newmain.c: 319:     rgb[4].g = rgb[8].g;rgb[5].g = rgb[9].g;
  7773  002DA4  A3C1               	btfss	(_rgb+8)& (0+255),1,b	;volatile
  7774  002DA6  D002               	bra	u14885
  7775  002DA8  83BD               	bsf	(_rgb+4)& (0+255),1,b	;volatile
  7776  002DAA  D002               	bra	u14887
  7777  002DAC                     u14885:
  7778  002DAC  0100               	movlb	0	; () banked
  7779  002DAE  93BD               	bcf	(_rgb+4)& (0+255),1,b	;volatile
  7780  002DB0                     u14887:
  7781  002DB0  A3C2               	btfss	(_rgb+9)& (0+255),1,b	;volatile
  7782  002DB2  D002               	bra	u14895
  7783  002DB4  83BE               	bsf	(_rgb+5)& (0+255),1,b	;volatile
  7784  002DB6  D002               	bra	u14897
  7785  002DB8                     u14895:
  7786  002DB8  0100               	movlb	0	; () banked
  7787  002DBA  93BE               	bcf	(_rgb+5)& (0+255),1,b	;volatile
  7788  002DBC                     u14897:
  7789                           
  7790                           ;newmain.c: 320:     rgb[4].b = rgb[8].b;rgb[5].b = rgb[9].b;
  7791  002DBC  A5C1               	btfss	(_rgb+8)& (0+255),2,b	;volatile
  7792  002DBE  D002               	bra	u14905
  7793  002DC0  85BD               	bsf	(_rgb+4)& (0+255),2,b	;volatile
  7794  002DC2  D002               	bra	u14907
  7795  002DC4                     u14905:
  7796  002DC4  0100               	movlb	0	; () banked
  7797  002DC6  95BD               	bcf	(_rgb+4)& (0+255),2,b	;volatile
  7798  002DC8                     u14907:
  7799  002DC8  A5C2               	btfss	(_rgb+9)& (0+255),2,b	;volatile
  7800  002DCA  D002               	bra	u14915
  7801  002DCC  85BE               	bsf	(_rgb+5)& (0+255),2,b	;volatile
  7802  002DCE  D002               	bra	u14917
  7803  002DD0                     u14915:
  7804  002DD0  0100               	movlb	0	; () banked
  7805  002DD2  95BE               	bcf	(_rgb+5)& (0+255),2,b	;volatile
  7806  002DD4                     u14917:
  7807                           
  7808                           ;newmain.c: 321:     rgb[8].r = rgb[12].r;rgb[9].r = rgb[13].r;
  7809  002DD4  A1C5               	btfss	(_rgb+12)& (0+255),0,b	;volatile
  7810  002DD6  D002               	bra	u14925
  7811  002DD8  81C1               	bsf	(_rgb+8)& (0+255),0,b	;volatile
  7812  002DDA  D002               	bra	u14927
  7813  002DDC                     u14925:
  7814  002DDC  0100               	movlb	0	; () banked
  7815  002DDE  91C1               	bcf	(_rgb+8)& (0+255),0,b	;volatile
  7816  002DE0                     u14927:
  7817  002DE0  A1C6               	btfss	(_rgb+13)& (0+255),0,b	;volatile
  7818  002DE2  D002               	bra	u14935
  7819  002DE4  81C2               	bsf	(_rgb+9)& (0+255),0,b	;volatile
  7820  002DE6  D002               	bra	u14937
  7821  002DE8                     u14935:
  7822  002DE8  0100               	movlb	0	; () banked
  7823  002DEA  91C2               	bcf	(_rgb+9)& (0+255),0,b	;volatile
  7824  002DEC                     u14937:
  7825                           
  7826                           ;newmain.c: 322:     rgb[8].g = rgb[12].g;rgb[9].g = rgb[13].g;
  7827  002DEC  A3C5               	btfss	(_rgb+12)& (0+255),1,b	;volatile
  7828  002DEE  D002               	bra	u14945
  7829  002DF0  83C1               	bsf	(_rgb+8)& (0+255),1,b	;volatile
  7830  002DF2  D002               	bra	u14947
  7831  002DF4                     u14945:
  7832  002DF4  0100               	movlb	0	; () banked
  7833  002DF6  93C1               	bcf	(_rgb+8)& (0+255),1,b	;volatile
  7834  002DF8                     u14947:
  7835  002DF8  A3C6               	btfss	(_rgb+13)& (0+255),1,b	;volatile
  7836  002DFA  D002               	bra	u14955
  7837  002DFC  83C2               	bsf	(_rgb+9)& (0+255),1,b	;volatile
  7838  002DFE  D002               	bra	u14957
  7839  002E00                     u14955:
  7840  002E00  0100               	movlb	0	; () banked
  7841  002E02  93C2               	bcf	(_rgb+9)& (0+255),1,b	;volatile
  7842  002E04                     u14957:
  7843                           
  7844                           ;newmain.c: 323:     rgb[8].b = rgb[12].b;rgb[9].b = rgb[13].b;
  7845  002E04  A5C5               	btfss	(_rgb+12)& (0+255),2,b	;volatile
  7846  002E06  D002               	bra	u14965
  7847  002E08  85C1               	bsf	(_rgb+8)& (0+255),2,b	;volatile
  7848  002E0A  D002               	bra	u14967
  7849  002E0C                     u14965:
  7850  002E0C  0100               	movlb	0	; () banked
  7851  002E0E  95C1               	bcf	(_rgb+8)& (0+255),2,b	;volatile
  7852  002E10                     u14967:
  7853  002E10  A5C6               	btfss	(_rgb+13)& (0+255),2,b	;volatile
  7854  002E12  D002               	bra	u14975
  7855  002E14  85C2               	bsf	(_rgb+9)& (0+255),2,b	;volatile
  7856  002E16  D002               	bra	u14977
  7857  002E18                     u14975:
  7858  002E18  0100               	movlb	0	; () banked
  7859  002E1A  95C2               	bcf	(_rgb+9)& (0+255),2,b	;volatile
  7860  002E1C                     u14977:
  7861                           
  7862                           ;newmain.c: 324:     rgb[12].r = tempa.r;rgb[13].r = tempb.r;
  7863  002E1C  0101               	movlb	1	; () banked
  7864  002E1E  A152               	btfss	rl@tempa& (0+255),0,b
  7865  002E20  D003               	bra	u14985
  7866  002E22  0100               	movlb	0	; () banked
  7867  002E24  81C5               	bsf	(_rgb+12)& (0+255),0,b	;volatile
  7868  002E26  D002               	bra	u14987
  7869  002E28                     u14985:
  7870  002E28  0100               	movlb	0	; () banked
  7871  002E2A  91C5               	bcf	(_rgb+12)& (0+255),0,b	;volatile
  7872  002E2C                     u14987:
  7873  002E2C  0101               	movlb	1	; () banked
  7874  002E2E  A153               	btfss	rl@tempb& (0+255),0,b
  7875  002E30  D003               	bra	u14995
  7876  002E32  0100               	movlb	0	; () banked
  7877  002E34  81C6               	bsf	(_rgb+13)& (0+255),0,b	;volatile
  7878  002E36  D002               	bra	u14997
  7879  002E38                     u14995:
  7880  002E38  0100               	movlb	0	; () banked
  7881  002E3A  91C6               	bcf	(_rgb+13)& (0+255),0,b	;volatile
  7882  002E3C                     u14997:
  7883                           
  7884                           ;newmain.c: 325:     rgb[12].g = tempa.g;rgb[13].g = tempb.g;
  7885  002E3C  0101               	movlb	1	; () banked
  7886  002E3E  A352               	btfss	rl@tempa& (0+255),1,b
  7887  002E40  D003               	bra	u15005
  7888  002E42  0100               	movlb	0	; () banked
  7889  002E44  83C5               	bsf	(_rgb+12)& (0+255),1,b	;volatile
  7890  002E46  D002               	bra	u15007
  7891  002E48                     u15005:
  7892  002E48  0100               	movlb	0	; () banked
  7893  002E4A  93C5               	bcf	(_rgb+12)& (0+255),1,b	;volatile
  7894  002E4C                     u15007:
  7895  002E4C  0101               	movlb	1	; () banked
  7896  002E4E  A353               	btfss	rl@tempb& (0+255),1,b
  7897  002E50  D003               	bra	u15015
  7898  002E52  0100               	movlb	0	; () banked
  7899  002E54  83C6               	bsf	(_rgb+13)& (0+255),1,b	;volatile
  7900  002E56  D002               	bra	u15017
  7901  002E58                     u15015:
  7902  002E58  0100               	movlb	0	; () banked
  7903  002E5A  93C6               	bcf	(_rgb+13)& (0+255),1,b	;volatile
  7904  002E5C                     u15017:
  7905                           
  7906                           ;newmain.c: 326:     rgb[12].b = tempa.b;rgb[13].b = tempb.b;
  7907  002E5C  0101               	movlb	1	; () banked
  7908  002E5E  A552               	btfss	rl@tempa& (0+255),2,b
  7909  002E60  D003               	bra	u15025
  7910  002E62  0100               	movlb	0	; () banked
  7911  002E64  85C5               	bsf	(_rgb+12)& (0+255),2,b	;volatile
  7912  002E66  D002               	bra	u15027
  7913  002E68                     u15025:
  7914  002E68  0100               	movlb	0	; () banked
  7915  002E6A  95C5               	bcf	(_rgb+12)& (0+255),2,b	;volatile
  7916  002E6C                     u15027:
  7917  002E6C  0101               	movlb	1	; () banked
  7918  002E6E  A553               	btfss	rl@tempb& (0+255),2,b
  7919  002E70  D003               	bra	u15035
  7920  002E72  0100               	movlb	0	; () banked
  7921  002E74  85C6               	bsf	(_rgb+13)& (0+255),2,b	;volatile
  7922  002E76  D002               	bra	u15037
  7923  002E78                     u15035:
  7924  002E78  0100               	movlb	0	; () banked
  7925  002E7A  95C6               	bcf	(_rgb+13)& (0+255),2,b	;volatile
  7926  002E7C                     u15037:
  7927                           
  7928                           ;newmain.c: 327:     rgbarray tempf = rgb[16];
  7929  002E7C  C0C9  F154         	movff	_rgb+16,rl@tempf	;volatile
  7930                           
  7931                           ;newmain.c: 328:     rgb[16].r = rgb[19].r;rgb[19].r = rgb[18].r;
  7932  002E80  A1CC               	btfss	(_rgb+19)& (0+255),0,b	;volatile
  7933  002E82  D002               	bra	u15045
  7934  002E84  81C9               	bsf	(_rgb+16)& (0+255),0,b	;volatile
  7935  002E86  D002               	bra	u15047
  7936  002E88                     u15045:
  7937  002E88  0100               	movlb	0	; () banked
  7938  002E8A  91C9               	bcf	(_rgb+16)& (0+255),0,b	;volatile
  7939  002E8C                     u15047:
  7940  002E8C  A1CB               	btfss	(_rgb+18)& (0+255),0,b	;volatile
  7941  002E8E  D002               	bra	u15055
  7942  002E90  81CC               	bsf	(_rgb+19)& (0+255),0,b	;volatile
  7943  002E92  D002               	bra	u15057
  7944  002E94                     u15055:
  7945  002E94  0100               	movlb	0	; () banked
  7946  002E96  91CC               	bcf	(_rgb+19)& (0+255),0,b	;volatile
  7947  002E98                     u15057:
  7948                           
  7949                           ;newmain.c: 329:     rgb[16].g = rgb[19].g;rgb[19].g = rgb[18].g;
  7950  002E98  A3CC               	btfss	(_rgb+19)& (0+255),1,b	;volatile
  7951  002E9A  D002               	bra	u15065
  7952  002E9C  83C9               	bsf	(_rgb+16)& (0+255),1,b	;volatile
  7953  002E9E  D002               	bra	u15067
  7954  002EA0                     u15065:
  7955  002EA0  0100               	movlb	0	; () banked
  7956  002EA2  93C9               	bcf	(_rgb+16)& (0+255),1,b	;volatile
  7957  002EA4                     u15067:
  7958  002EA4  A3CB               	btfss	(_rgb+18)& (0+255),1,b	;volatile
  7959  002EA6  D002               	bra	u15075
  7960  002EA8  83CC               	bsf	(_rgb+19)& (0+255),1,b	;volatile
  7961  002EAA  D002               	bra	u15077
  7962  002EAC                     u15075:
  7963  002EAC  0100               	movlb	0	; () banked
  7964  002EAE  93CC               	bcf	(_rgb+19)& (0+255),1,b	;volatile
  7965  002EB0                     u15077:
  7966                           
  7967                           ;newmain.c: 330:     rgb[16].b = rgb[19].b;rgb[19].b = rgb[18].b;
  7968  002EB0  A5CC               	btfss	(_rgb+19)& (0+255),2,b	;volatile
  7969  002EB2  D002               	bra	u15085
  7970  002EB4  85C9               	bsf	(_rgb+16)& (0+255),2,b	;volatile
  7971  002EB6  D002               	bra	u15087
  7972  002EB8                     u15085:
  7973  002EB8  0100               	movlb	0	; () banked
  7974  002EBA  95C9               	bcf	(_rgb+16)& (0+255),2,b	;volatile
  7975  002EBC                     u15087:
  7976  002EBC  A5CB               	btfss	(_rgb+18)& (0+255),2,b	;volatile
  7977  002EBE  D002               	bra	u15095
  7978  002EC0  85CC               	bsf	(_rgb+19)& (0+255),2,b	;volatile
  7979  002EC2  D002               	bra	u15097
  7980  002EC4                     u15095:
  7981  002EC4  0100               	movlb	0	; () banked
  7982  002EC6  95CC               	bcf	(_rgb+19)& (0+255),2,b	;volatile
  7983  002EC8                     u15097:
  7984                           
  7985                           ;newmain.c: 331:     rgb[18].r = rgb[17].r;rgb[17].r = tempf.r;
  7986  002EC8  A1CA               	btfss	(_rgb+17)& (0+255),0,b	;volatile
  7987  002ECA  D002               	bra	u15105
  7988  002ECC  81CB               	bsf	(_rgb+18)& (0+255),0,b	;volatile
  7989  002ECE  D002               	bra	u15107
  7990  002ED0                     u15105:
  7991  002ED0  0100               	movlb	0	; () banked
  7992  002ED2  91CB               	bcf	(_rgb+18)& (0+255),0,b	;volatile
  7993  002ED4                     u15107:
  7994  002ED4  0101               	movlb	1	; () banked
  7995  002ED6  A154               	btfss	rl@tempf& (0+255),0,b
  7996  002ED8  D003               	bra	u15115
  7997  002EDA  0100               	movlb	0	; () banked
  7998  002EDC  81CA               	bsf	(_rgb+17)& (0+255),0,b	;volatile
  7999  002EDE  D002               	bra	u15117
  8000  002EE0                     u15115:
  8001  002EE0  0100               	movlb	0	; () banked
  8002  002EE2  91CA               	bcf	(_rgb+17)& (0+255),0,b	;volatile
  8003  002EE4                     u15117:
  8004                           
  8005                           ;newmain.c: 332:     rgb[18].g = rgb[17].g;rgb[17].g = tempf.g;
  8006  002EE4  A3CA               	btfss	(_rgb+17)& (0+255),1,b	;volatile
  8007  002EE6  D002               	bra	u15125
  8008  002EE8  83CB               	bsf	(_rgb+18)& (0+255),1,b	;volatile
  8009  002EEA  D002               	bra	u15127
  8010  002EEC                     u15125:
  8011  002EEC  0100               	movlb	0	; () banked
  8012  002EEE  93CB               	bcf	(_rgb+18)& (0+255),1,b	;volatile
  8013  002EF0                     u15127:
  8014  002EF0  0101               	movlb	1	; () banked
  8015  002EF2  A354               	btfss	rl@tempf& (0+255),1,b
  8016  002EF4  D003               	bra	u15135
  8017  002EF6  0100               	movlb	0	; () banked
  8018  002EF8  83CA               	bsf	(_rgb+17)& (0+255),1,b	;volatile
  8019  002EFA  D002               	bra	u15137
  8020  002EFC                     u15135:
  8021  002EFC  0100               	movlb	0	; () banked
  8022  002EFE  93CA               	bcf	(_rgb+17)& (0+255),1,b	;volatile
  8023  002F00                     u15137:
  8024                           
  8025                           ;newmain.c: 333:     rgb[18].b = rgb[17].b;rgb[17].b = tempf.b;
  8026  002F00  A5CA               	btfss	(_rgb+17)& (0+255),2,b	;volatile
  8027  002F02  D002               	bra	u15145
  8028  002F04  85CB               	bsf	(_rgb+18)& (0+255),2,b	;volatile
  8029  002F06  D002               	bra	u15147
  8030  002F08                     u15145:
  8031  002F08  0100               	movlb	0	; () banked
  8032  002F0A  95CB               	bcf	(_rgb+18)& (0+255),2,b	;volatile
  8033  002F0C                     u15147:
  8034  002F0C  0101               	movlb	1	; () banked
  8035  002F0E  A554               	btfss	rl@tempf& (0+255),2,b
  8036  002F10  D003               	bra	u15155
  8037  002F12  0100               	movlb	0	; () banked
  8038  002F14  85CA               	bsf	(_rgb+17)& (0+255),2,b	;volatile
  8039  002F16  D002               	bra	u15157
  8040  002F18                     u15155:
  8041  002F18  0100               	movlb	0	; () banked
  8042  002F1A  95CA               	bcf	(_rgb+17)& (0+255),2,b	;volatile
  8043  002F1C                     u15157:
  8044  002F1C                     
  8045                           ; BSR set to: 0
  8046  002F1C  0012               	return		;funcret
  8047  002F1E                     __end_of_rl:
  8048                           	opt callstack 0
  8049                           
  8050 ;; *************** function _rb *****************
  8051 ;; Defined at:
  8052 ;;		line 445 in file "newmain.c"
  8053 ;; Parameters:    Size  Location     Type
  8054 ;;		None
  8055 ;; Auto vars:     Size  Location     Type
  8056 ;;  tempc           1    2[BANK1 ] struct RGB
  8057 ;;  tempb           1    1[BANK1 ] struct RGB
  8058 ;;  tempa           1    0[BANK1 ] struct RGB
  8059 ;; Return value:  Size  Location     Type
  8060 ;;                  1    wreg      void 
  8061 ;; Registers used:
  8062 ;;		None
  8063 ;; Tracked objects:
  8064 ;;		On entry : 0/0
  8065 ;;		On exit  : 0/0
  8066 ;;		Unchanged: 0/0
  8067 ;; Data sizes:     COMRAM   BANK0   BANK1   BANK2   BANK3   BANK4   BANK5
  8068 ;;      Params:         0       0       0       0       0       0       0
  8069 ;;      Locals:         0       0       3       0       0       0       0
  8070 ;;      Temps:          0       0       0       0       0       0       0
  8071 ;;      Totals:         0       0       3       0       0       0       0
  8072 ;;Total ram usage:        3 bytes
  8073 ;; Hardware stack levels used:    1
  8074 ;; Hardware stack levels required when called:    7
  8075 ;; This function calls:
  8076 ;;		Nothing
  8077 ;; This function is called by:
  8078 ;;		_rotate_bot
  8079 ;;		_random_cube
  8080 ;; This function uses a non-reentrant model
  8081 ;;
  8082                           
  8083                           	psect	text19
  8084  002F1E                     __ptext19:
  8085                           	opt callstack 0
  8086  002F1E                     _rb:
  8087                           	opt callstack 22
  8088  002F1E                     
  8089                           ;newmain.c: 446:     rgbarray tempa = rgb[1];
  8090  002F1E  C0BA  F152         	movff	_rgb+1,rb@tempa	;volatile
  8091                           
  8092                           ;newmain.c: 447:     rgbarray tempb = rgb[2];
  8093  002F22  C0BB  F153         	movff	_rgb+2,rb@tempb	;volatile
  8094                           
  8095                           ;newmain.c: 448:     rgb[1].r = rgb[18].r;rgb[2].r = rgb[19].r;
  8096  002F26  0100               	movlb	0	; () banked
  8097  002F28  A1CB               	btfss	(_rgb+18)& (0+255),0,b	;volatile
  8098  002F2A  D002               	bra	u16245
  8099  002F2C  81BA               	bsf	(_rgb+1)& (0+255),0,b	;volatile
  8100  002F2E  D002               	bra	u16247
  8101  002F30                     u16245:
  8102  002F30  0100               	movlb	0	; () banked
  8103  002F32  91BA               	bcf	(_rgb+1)& (0+255),0,b	;volatile
  8104  002F34                     u16247:
  8105  002F34  A1CC               	btfss	(_rgb+19)& (0+255),0,b	;volatile
  8106  002F36  D002               	bra	u16255
  8107  002F38  81BB               	bsf	(_rgb+2)& (0+255),0,b	;volatile
  8108  002F3A  D002               	bra	u16257
  8109  002F3C                     u16255:
  8110  002F3C  0100               	movlb	0	; () banked
  8111  002F3E  91BB               	bcf	(_rgb+2)& (0+255),0,b	;volatile
  8112  002F40                     u16257:
  8113                           
  8114                           ;newmain.c: 449:     rgb[1].g = rgb[18].g;rgb[2].g = rgb[19].g;
  8115  002F40  A3CB               	btfss	(_rgb+18)& (0+255),1,b	;volatile
  8116  002F42  D002               	bra	u16265
  8117  002F44  83BA               	bsf	(_rgb+1)& (0+255),1,b	;volatile
  8118  002F46  D002               	bra	u16267
  8119  002F48                     u16265:
  8120  002F48  0100               	movlb	0	; () banked
  8121  002F4A  93BA               	bcf	(_rgb+1)& (0+255),1,b	;volatile
  8122  002F4C                     u16267:
  8123  002F4C  A3CC               	btfss	(_rgb+19)& (0+255),1,b	;volatile
  8124  002F4E  D002               	bra	u16275
  8125  002F50  83BB               	bsf	(_rgb+2)& (0+255),1,b	;volatile
  8126  002F52  D002               	bra	u16277
  8127  002F54                     u16275:
  8128  002F54  0100               	movlb	0	; () banked
  8129  002F56  93BB               	bcf	(_rgb+2)& (0+255),1,b	;volatile
  8130  002F58                     u16277:
  8131                           
  8132                           ;newmain.c: 450:     rgb[1].b = rgb[18].b;rgb[2].b = rgb[19].b;
  8133  002F58  A5CB               	btfss	(_rgb+18)& (0+255),2,b	;volatile
  8134  002F5A  D002               	bra	u16285
  8135  002F5C  85BA               	bsf	(_rgb+1)& (0+255),2,b	;volatile
  8136  002F5E  D002               	bra	u16287
  8137  002F60                     u16285:
  8138  002F60  0100               	movlb	0	; () banked
  8139  002F62  95BA               	bcf	(_rgb+1)& (0+255),2,b	;volatile
  8140  002F64                     u16287:
  8141  002F64  A5CC               	btfss	(_rgb+19)& (0+255),2,b	;volatile
  8142  002F66  D002               	bra	u16295
  8143  002F68  85BB               	bsf	(_rgb+2)& (0+255),2,b	;volatile
  8144  002F6A  D002               	bra	u16297
  8145  002F6C                     u16295:
  8146  002F6C  0100               	movlb	0	; () banked
  8147  002F6E  95BB               	bcf	(_rgb+2)& (0+255),2,b	;volatile
  8148  002F70                     u16297:
  8149                           
  8150                           ;newmain.c: 451:     rgb[18].r = rgb[11].r;rgb[19].r = rgb[8].r;
  8151  002F70  A1C4               	btfss	(_rgb+11)& (0+255),0,b	;volatile
  8152  002F72  D002               	bra	u16305
  8153  002F74  81CB               	bsf	(_rgb+18)& (0+255),0,b	;volatile
  8154  002F76  D002               	bra	u16307
  8155  002F78                     u16305:
  8156  002F78  0100               	movlb	0	; () banked
  8157  002F7A  91CB               	bcf	(_rgb+18)& (0+255),0,b	;volatile
  8158  002F7C                     u16307:
  8159  002F7C  A1C1               	btfss	(_rgb+8)& (0+255),0,b	;volatile
  8160  002F7E  D002               	bra	u16315
  8161  002F80  81CC               	bsf	(_rgb+19)& (0+255),0,b	;volatile
  8162  002F82  D002               	bra	u16317
  8163  002F84                     u16315:
  8164  002F84  0100               	movlb	0	; () banked
  8165  002F86  91CC               	bcf	(_rgb+19)& (0+255),0,b	;volatile
  8166  002F88                     u16317:
  8167                           
  8168                           ;newmain.c: 452:     rgb[18].g = rgb[11].g;rgb[19].g = rgb[8].g;
  8169  002F88  A3C4               	btfss	(_rgb+11)& (0+255),1,b	;volatile
  8170  002F8A  D002               	bra	u16325
  8171  002F8C  83CB               	bsf	(_rgb+18)& (0+255),1,b	;volatile
  8172  002F8E  D002               	bra	u16327
  8173  002F90                     u16325:
  8174  002F90  0100               	movlb	0	; () banked
  8175  002F92  93CB               	bcf	(_rgb+18)& (0+255),1,b	;volatile
  8176  002F94                     u16327:
  8177  002F94  A3C1               	btfss	(_rgb+8)& (0+255),1,b	;volatile
  8178  002F96  D002               	bra	u16335
  8179  002F98  83CC               	bsf	(_rgb+19)& (0+255),1,b	;volatile
  8180  002F9A  D002               	bra	u16337
  8181  002F9C                     u16335:
  8182  002F9C  0100               	movlb	0	; () banked
  8183  002F9E  93CC               	bcf	(_rgb+19)& (0+255),1,b	;volatile
  8184  002FA0                     u16337:
  8185                           
  8186                           ;newmain.c: 453:     rgb[18].b = rgb[11].b;rgb[19].b = rgb[8].b;
  8187  002FA0  A5C4               	btfss	(_rgb+11)& (0+255),2,b	;volatile
  8188  002FA2  D002               	bra	u16345
  8189  002FA4  85CB               	bsf	(_rgb+18)& (0+255),2,b	;volatile
  8190  002FA6  D002               	bra	u16347
  8191  002FA8                     u16345:
  8192  002FA8  0100               	movlb	0	; () banked
  8193  002FAA  95CB               	bcf	(_rgb+18)& (0+255),2,b	;volatile
  8194  002FAC                     u16347:
  8195  002FAC  A5C1               	btfss	(_rgb+8)& (0+255),2,b	;volatile
  8196  002FAE  D002               	bra	u16355
  8197  002FB0  85CC               	bsf	(_rgb+19)& (0+255),2,b	;volatile
  8198  002FB2  D002               	bra	u16357
  8199  002FB4                     u16355:
  8200  002FB4  0100               	movlb	0	; () banked
  8201  002FB6  95CC               	bcf	(_rgb+19)& (0+255),2,b	;volatile
  8202  002FB8                     u16357:
  8203                           
  8204                           ;newmain.c: 454:     rgb[11].r = rgb[20].r;rgb[8].r = rgb[21].r;
  8205  002FB8  A1CD               	btfss	(_rgb+20)& (0+255),0,b	;volatile
  8206  002FBA  D002               	bra	u16365
  8207  002FBC  81C4               	bsf	(_rgb+11)& (0+255),0,b	;volatile
  8208  002FBE  D002               	bra	u16367
  8209  002FC0                     u16365:
  8210  002FC0  0100               	movlb	0	; () banked
  8211  002FC2  91C4               	bcf	(_rgb+11)& (0+255),0,b	;volatile
  8212  002FC4                     u16367:
  8213  002FC4  A1CE               	btfss	(_rgb+21)& (0+255),0,b	;volatile
  8214  002FC6  D002               	bra	u16375
  8215  002FC8  81C1               	bsf	(_rgb+8)& (0+255),0,b	;volatile
  8216  002FCA  D002               	bra	u16377
  8217  002FCC                     u16375:
  8218  002FCC  0100               	movlb	0	; () banked
  8219  002FCE  91C1               	bcf	(_rgb+8)& (0+255),0,b	;volatile
  8220  002FD0                     u16377:
  8221                           
  8222                           ;newmain.c: 455:     rgb[11].g = rgb[20].g;rgb[8].g = rgb[21].g;
  8223  002FD0  A3CD               	btfss	(_rgb+20)& (0+255),1,b	;volatile
  8224  002FD2  D002               	bra	u16385
  8225  002FD4  83C4               	bsf	(_rgb+11)& (0+255),1,b	;volatile
  8226  002FD6  D002               	bra	u16387
  8227  002FD8                     u16385:
  8228  002FD8  0100               	movlb	0	; () banked
  8229  002FDA  93C4               	bcf	(_rgb+11)& (0+255),1,b	;volatile
  8230  002FDC                     u16387:
  8231  002FDC  A3CE               	btfss	(_rgb+21)& (0+255),1,b	;volatile
  8232  002FDE  D002               	bra	u16395
  8233  002FE0  83C1               	bsf	(_rgb+8)& (0+255),1,b	;volatile
  8234  002FE2  D002               	bra	u16397
  8235  002FE4                     u16395:
  8236  002FE4  0100               	movlb	0	; () banked
  8237  002FE6  93C1               	bcf	(_rgb+8)& (0+255),1,b	;volatile
  8238  002FE8                     u16397:
  8239                           
  8240                           ;newmain.c: 456:     rgb[11].b = rgb[20].b;rgb[8].b = rgb[21].b;
  8241  002FE8  A5CD               	btfss	(_rgb+20)& (0+255),2,b	;volatile
  8242  002FEA  D002               	bra	u16405
  8243  002FEC  85C4               	bsf	(_rgb+11)& (0+255),2,b	;volatile
  8244  002FEE  D002               	bra	u16407
  8245  002FF0                     u16405:
  8246  002FF0  0100               	movlb	0	; () banked
  8247  002FF2  95C4               	bcf	(_rgb+11)& (0+255),2,b	;volatile
  8248  002FF4                     u16407:
  8249  002FF4  A5CE               	btfss	(_rgb+21)& (0+255),2,b	;volatile
  8250  002FF6  D002               	bra	u16415
  8251  002FF8  85C1               	bsf	(_rgb+8)& (0+255),2,b	;volatile
  8252  002FFA  D002               	bra	u16417
  8253  002FFC                     u16415:
  8254  002FFC  0100               	movlb	0	; () banked
  8255  002FFE  95C1               	bcf	(_rgb+8)& (0+255),2,b	;volatile
  8256  003000                     u16417:
  8257                           
  8258                           ;newmain.c: 457:     rgb[20].r = tempa.r;rgb[21].r = tempb.r;
  8259  003000  0101               	movlb	1	; () banked
  8260  003002  A152               	btfss	rb@tempa& (0+255),0,b
  8261  003004  D003               	bra	u16425
  8262  003006  0100               	movlb	0	; () banked
  8263  003008  81CD               	bsf	(_rgb+20)& (0+255),0,b	;volatile
  8264  00300A  D002               	bra	u16427
  8265  00300C                     u16425:
  8266  00300C  0100               	movlb	0	; () banked
  8267  00300E  91CD               	bcf	(_rgb+20)& (0+255),0,b	;volatile
  8268  003010                     u16427:
  8269  003010  0101               	movlb	1	; () banked
  8270  003012  A153               	btfss	rb@tempb& (0+255),0,b
  8271  003014  D003               	bra	u16435
  8272  003016  0100               	movlb	0	; () banked
  8273  003018  81CE               	bsf	(_rgb+21)& (0+255),0,b	;volatile
  8274  00301A  D002               	bra	u16437
  8275  00301C                     u16435:
  8276  00301C  0100               	movlb	0	; () banked
  8277  00301E  91CE               	bcf	(_rgb+21)& (0+255),0,b	;volatile
  8278  003020                     u16437:
  8279                           
  8280                           ;newmain.c: 458:     rgb[20].g = tempa.g;rgb[21].g = tempb.g;
  8281  003020  0101               	movlb	1	; () banked
  8282  003022  A352               	btfss	rb@tempa& (0+255),1,b
  8283  003024  D003               	bra	u16445
  8284  003026  0100               	movlb	0	; () banked
  8285  003028  83CD               	bsf	(_rgb+20)& (0+255),1,b	;volatile
  8286  00302A  D002               	bra	u16447
  8287  00302C                     u16445:
  8288  00302C  0100               	movlb	0	; () banked
  8289  00302E  93CD               	bcf	(_rgb+20)& (0+255),1,b	;volatile
  8290  003030                     u16447:
  8291  003030  0101               	movlb	1	; () banked
  8292  003032  A353               	btfss	rb@tempb& (0+255),1,b
  8293  003034  D003               	bra	u16455
  8294  003036  0100               	movlb	0	; () banked
  8295  003038  83CE               	bsf	(_rgb+21)& (0+255),1,b	;volatile
  8296  00303A  D002               	bra	u16457
  8297  00303C                     u16455:
  8298  00303C  0100               	movlb	0	; () banked
  8299  00303E  93CE               	bcf	(_rgb+21)& (0+255),1,b	;volatile
  8300  003040                     u16457:
  8301                           
  8302                           ;newmain.c: 459:     rgb[20].b = tempa.b;rgb[21].b = tempb.b;
  8303  003040  0101               	movlb	1	; () banked
  8304  003042  A552               	btfss	rb@tempa& (0+255),2,b
  8305  003044  D003               	bra	u16465
  8306  003046  0100               	movlb	0	; () banked
  8307  003048  85CD               	bsf	(_rgb+20)& (0+255),2,b	;volatile
  8308  00304A  D002               	bra	u16467
  8309  00304C                     u16465:
  8310  00304C  0100               	movlb	0	; () banked
  8311  00304E  95CD               	bcf	(_rgb+20)& (0+255),2,b	;volatile
  8312  003050                     u16467:
  8313  003050  0101               	movlb	1	; () banked
  8314  003052  A553               	btfss	rb@tempb& (0+255),2,b
  8315  003054  D003               	bra	u16475
  8316  003056  0100               	movlb	0	; () banked
  8317  003058  85CE               	bsf	(_rgb+21)& (0+255),2,b	;volatile
  8318  00305A  D002               	bra	u16477
  8319  00305C                     u16475:
  8320  00305C  0100               	movlb	0	; () banked
  8321  00305E  95CE               	bcf	(_rgb+21)& (0+255),2,b	;volatile
  8322  003060                     u16477:
  8323                           
  8324                           ;newmain.c: 460:     rgbarray tempc = rgb[4];
  8325  003060  C0BD  F154         	movff	_rgb+4,rb@tempc	;volatile
  8326                           
  8327                           ;newmain.c: 461:     rgb[4].r = rgb[5].r;rgb[5].r = rgb[6].r;
  8328  003064  A1BE               	btfss	(_rgb+5)& (0+255),0,b	;volatile
  8329  003066  D002               	bra	u16485
  8330  003068  81BD               	bsf	(_rgb+4)& (0+255),0,b	;volatile
  8331  00306A  D002               	bra	u16487
  8332  00306C                     u16485:
  8333  00306C  0100               	movlb	0	; () banked
  8334  00306E  91BD               	bcf	(_rgb+4)& (0+255),0,b	;volatile
  8335  003070                     u16487:
  8336  003070  A1BF               	btfss	(_rgb+6)& (0+255),0,b	;volatile
  8337  003072  D002               	bra	u16495
  8338  003074  81BE               	bsf	(_rgb+5)& (0+255),0,b	;volatile
  8339  003076  D002               	bra	u16497
  8340  003078                     u16495:
  8341  003078  0100               	movlb	0	; () banked
  8342  00307A  91BE               	bcf	(_rgb+5)& (0+255),0,b	;volatile
  8343  00307C                     u16497:
  8344                           
  8345                           ;newmain.c: 462:     rgb[4].g = rgb[5].g;rgb[5].g = rgb[6].g;
  8346  00307C  A3BE               	btfss	(_rgb+5)& (0+255),1,b	;volatile
  8347  00307E  D002               	bra	u16505
  8348  003080  83BD               	bsf	(_rgb+4)& (0+255),1,b	;volatile
  8349  003082  D002               	bra	u16507
  8350  003084                     u16505:
  8351  003084  0100               	movlb	0	; () banked
  8352  003086  93BD               	bcf	(_rgb+4)& (0+255),1,b	;volatile
  8353  003088                     u16507:
  8354  003088  A3BF               	btfss	(_rgb+6)& (0+255),1,b	;volatile
  8355  00308A  D002               	bra	u16515
  8356  00308C  83BE               	bsf	(_rgb+5)& (0+255),1,b	;volatile
  8357  00308E  D002               	bra	u16517
  8358  003090                     u16515:
  8359  003090  0100               	movlb	0	; () banked
  8360  003092  93BE               	bcf	(_rgb+5)& (0+255),1,b	;volatile
  8361  003094                     u16517:
  8362                           
  8363                           ;newmain.c: 463:     rgb[4].b = rgb[5].b;rgb[5].b = rgb[6].b;
  8364  003094  A5BE               	btfss	(_rgb+5)& (0+255),2,b	;volatile
  8365  003096  D002               	bra	u16525
  8366  003098  85BD               	bsf	(_rgb+4)& (0+255),2,b	;volatile
  8367  00309A  D002               	bra	u16527
  8368  00309C                     u16525:
  8369  00309C  0100               	movlb	0	; () banked
  8370  00309E  95BD               	bcf	(_rgb+4)& (0+255),2,b	;volatile
  8371  0030A0                     u16527:
  8372  0030A0  A5BF               	btfss	(_rgb+6)& (0+255),2,b	;volatile
  8373  0030A2  D002               	bra	u16535
  8374  0030A4  85BE               	bsf	(_rgb+5)& (0+255),2,b	;volatile
  8375  0030A6  D002               	bra	u16537
  8376  0030A8                     u16535:
  8377  0030A8  0100               	movlb	0	; () banked
  8378  0030AA  95BE               	bcf	(_rgb+5)& (0+255),2,b	;volatile
  8379  0030AC                     u16537:
  8380                           
  8381                           ;newmain.c: 464:     rgb[6].r = rgb[7].r;rgb[7].r = tempc.r;
  8382  0030AC  A1C0               	btfss	(_rgb+7)& (0+255),0,b	;volatile
  8383  0030AE  D002               	bra	u16545
  8384  0030B0  81BF               	bsf	(_rgb+6)& (0+255),0,b	;volatile
  8385  0030B2  D002               	bra	u16547
  8386  0030B4                     u16545:
  8387  0030B4  0100               	movlb	0	; () banked
  8388  0030B6  91BF               	bcf	(_rgb+6)& (0+255),0,b	;volatile
  8389  0030B8                     u16547:
  8390  0030B8  0101               	movlb	1	; () banked
  8391  0030BA  A154               	btfss	rb@tempc& (0+255),0,b
  8392  0030BC  D003               	bra	u16555
  8393  0030BE  0100               	movlb	0	; () banked
  8394  0030C0  81C0               	bsf	(_rgb+7)& (0+255),0,b	;volatile
  8395  0030C2  D002               	bra	u16557
  8396  0030C4                     u16555:
  8397  0030C4  0100               	movlb	0	; () banked
  8398  0030C6  91C0               	bcf	(_rgb+7)& (0+255),0,b	;volatile
  8399  0030C8                     u16557:
  8400                           
  8401                           ;newmain.c: 465:     rgb[6].g = rgb[7].g;rgb[7].g = tempc.g;
  8402  0030C8  A3C0               	btfss	(_rgb+7)& (0+255),1,b	;volatile
  8403  0030CA  D002               	bra	u16565
  8404  0030CC  83BF               	bsf	(_rgb+6)& (0+255),1,b	;volatile
  8405  0030CE  D002               	bra	u16567
  8406  0030D0                     u16565:
  8407  0030D0  0100               	movlb	0	; () banked
  8408  0030D2  93BF               	bcf	(_rgb+6)& (0+255),1,b	;volatile
  8409  0030D4                     u16567:
  8410  0030D4  0101               	movlb	1	; () banked
  8411  0030D6  A354               	btfss	rb@tempc& (0+255),1,b
  8412  0030D8  D003               	bra	u16575
  8413  0030DA  0100               	movlb	0	; () banked
  8414  0030DC  83C0               	bsf	(_rgb+7)& (0+255),1,b	;volatile
  8415  0030DE  D002               	bra	u16577
  8416  0030E0                     u16575:
  8417  0030E0  0100               	movlb	0	; () banked
  8418  0030E2  93C0               	bcf	(_rgb+7)& (0+255),1,b	;volatile
  8419  0030E4                     u16577:
  8420                           
  8421                           ;newmain.c: 466:     rgb[6].b = rgb[7].b;rgb[7].b = tempc.b;
  8422  0030E4  A5C0               	btfss	(_rgb+7)& (0+255),2,b	;volatile
  8423  0030E6  D002               	bra	u16585
  8424  0030E8  85BF               	bsf	(_rgb+6)& (0+255),2,b	;volatile
  8425  0030EA  D002               	bra	u16587
  8426  0030EC                     u16585:
  8427  0030EC  0100               	movlb	0	; () banked
  8428  0030EE  95BF               	bcf	(_rgb+6)& (0+255),2,b	;volatile
  8429  0030F0                     u16587:
  8430  0030F0  0101               	movlb	1	; () banked
  8431  0030F2  A554               	btfss	rb@tempc& (0+255),2,b
  8432  0030F4  D003               	bra	u16595
  8433  0030F6  0100               	movlb	0	; () banked
  8434  0030F8  85C0               	bsf	(_rgb+7)& (0+255),2,b	;volatile
  8435  0030FA  D002               	bra	u16597
  8436  0030FC                     u16595:
  8437  0030FC  0100               	movlb	0	; () banked
  8438  0030FE  95C0               	bcf	(_rgb+7)& (0+255),2,b	;volatile
  8439  003100                     u16597:
  8440  003100                     
  8441                           ; BSR set to: 0
  8442  003100  0012               	return		;funcret
  8443  003102                     __end_of_rb:
  8444                           	opt callstack 0
  8445                           
  8446 ;; *************** function _rand *****************
  8447 ;; Defined at:
  8448 ;;		line 15 in file "C:\Program Files (x86)\Microchip\xc8\v2.10\pic\sources\c99\common\rand.c"
  8449 ;; Parameters:    Size  Location     Type
  8450 ;;		None
  8451 ;; Auto vars:     Size  Location     Type
  8452 ;;		None
  8453 ;; Return value:  Size  Location     Type
  8454 ;;                  2   24[BANK1 ] int 
  8455 ;; Registers used:
  8456 ;;		wreg, fsr2l, fsr2h, status,2, status,0, cstack
  8457 ;; Tracked objects:
  8458 ;;		On entry : 0/0
  8459 ;;		On exit  : 0/0
  8460 ;;		Unchanged: 0/0
  8461 ;; Data sizes:     COMRAM   BANK0   BANK1   BANK2   BANK3   BANK4   BANK5
  8462 ;;      Params:         0       0       2       0       0       0       0
  8463 ;;      Locals:         0       0       0       0       0       0       0
  8464 ;;      Temps:          0       0       8       0       0       0       0
  8465 ;;      Totals:         0       0      10       0       0       0       0
  8466 ;;Total ram usage:       10 bytes
  8467 ;; Hardware stack levels used:    1
  8468 ;; Hardware stack levels required when called:    8
  8469 ;; This function calls:
  8470 ;;		___omul
  8471 ;; This function is called by:
  8472 ;;		_random_cube
  8473 ;; This function uses a non-reentrant model
  8474 ;;
  8475                           
  8476                           	psect	text20
  8477  0033E8                     __ptext20:
  8478                           	opt callstack 0
  8479  0033E8                     _rand:
  8480                           	opt callstack 21
  8481  0033E8  C0E1  F152         	movff	_seed,___omul@multiplier
  8482  0033EC  C0E2  F153         	movff	_seed+1,___omul@multiplier+1
  8483  0033F0  C0E3  F154         	movff	_seed+2,___omul@multiplier+2
  8484  0033F4  C0E4  F155         	movff	_seed+3,___omul@multiplier+3
  8485  0033F8  C0E5  F156         	movff	_seed+4,___omul@multiplier+4
  8486  0033FC  C0E6  F157         	movff	_seed+5,___omul@multiplier+5
  8487  003400  C0E7  F158         	movff	_seed+6,___omul@multiplier+6
  8488  003404  C0E8  F159         	movff	_seed+7,___omul@multiplier+7
  8489  003408  0E2D               	movlw	45
  8490  00340A  0101               	movlb	1	; () banked
  8491  00340C  6F5A               	movwf	___omul@multiplicand& (0+255),b
  8492  00340E  0E7F               	movlw	127
  8493  003410  6F5B               	movwf	(___omul@multiplicand+1)& (0+255),b
  8494  003412  0E95               	movlw	149
  8495  003414  6F5C               	movwf	(___omul@multiplicand+2)& (0+255),b
  8496  003416  0E4C               	movlw	76
  8497  003418  6F5D               	movwf	(___omul@multiplicand+3)& (0+255),b
  8498  00341A  0E2D               	movlw	45
  8499  00341C  6F5E               	movwf	(___omul@multiplicand+4)& (0+255),b
  8500  00341E  0EF4               	movlw	244
  8501  003420  6F5F               	movwf	(___omul@multiplicand+5)& (0+255),b
  8502  003422  0E51               	movlw	81
  8503  003424  6F60               	movwf	(___omul@multiplicand+6)& (0+255),b
  8504  003426  0E58               	movlw	88
  8505  003428  6F61               	movwf	(___omul@multiplicand+7)& (0+255),b
  8506  00342A  EC2D  F01F         	call	___omul	;wreg free
  8507  00342E  C152  F16C         	movff	?___omul,??_rand
  8508  003432  C153  F16D         	movff	?___omul+1,??_rand+1
  8509  003436  C154  F16E         	movff	?___omul+2,??_rand+2
  8510  00343A  C155  F16F         	movff	?___omul+3,??_rand+3
  8511  00343E  C156  F170         	movff	?___omul+4,??_rand+4
  8512  003442  C157  F171         	movff	?___omul+5,??_rand+5
  8513  003446  C158  F172         	movff	?___omul+6,??_rand+6
  8514  00344A  C159  F173         	movff	?___omul+7,??_rand+7
  8515  00344E  0E01               	movlw	1
  8516  003450  0101               	movlb	1	; () banked
  8517  003452  256C               	addwf	??_rand& (0+255),w,b
  8518  003454  0100               	movlb	0	; () banked
  8519  003456  6FE1               	movwf	_seed& (0+255),b
  8520  003458  0E00               	movlw	0
  8521  00345A  0101               	movlb	1	; () banked
  8522  00345C  216D               	addwfc	(??_rand+1)& (0+255),w,b
  8523  00345E  0100               	movlb	0	; () banked
  8524  003460  6FE2               	movwf	(_seed+1)& (0+255),b
  8525  003462  0E00               	movlw	0
  8526  003464  0101               	movlb	1	; () banked
  8527  003466  216E               	addwfc	(??_rand+2)& (0+255),w,b
  8528  003468  0100               	movlb	0	; () banked
  8529  00346A  6FE3               	movwf	(_seed+2)& (0+255),b
  8530  00346C  0E00               	movlw	0
  8531  00346E  0101               	movlb	1	; () banked
  8532  003470  216F               	addwfc	(??_rand+3)& (0+255),w,b
  8533  003472  0100               	movlb	0	; () banked
  8534  003474  6FE4               	movwf	(_seed+3)& (0+255),b
  8535  003476  0E00               	movlw	0
  8536  003478  0101               	movlb	1	; () banked
  8537  00347A  2170               	addwfc	(??_rand+4)& (0+255),w,b
  8538  00347C  0100               	movlb	0	; () banked
  8539  00347E  6FE5               	movwf	(_seed+4)& (0+255),b
  8540  003480  0E00               	movlw	0
  8541  003482  0101               	movlb	1	; () banked
  8542  003484  2171               	addwfc	(??_rand+5)& (0+255),w,b
  8543  003486  0100               	movlb	0	; () banked
  8544  003488  6FE6               	movwf	(_seed+5)& (0+255),b
  8545  00348A  0E00               	movlw	0
  8546  00348C  0101               	movlb	1	; () banked
  8547  00348E  2172               	addwfc	(??_rand+6)& (0+255),w,b
  8548  003490  0100               	movlb	0	; () banked
  8549  003492  6FE7               	movwf	(_seed+6)& (0+255),b
  8550  003494  0E00               	movlw	0
  8551  003496  0101               	movlb	1	; () banked
  8552  003498  2173               	addwfc	(??_rand+7)& (0+255),w,b
  8553  00349A  0100               	movlb	0	; () banked
  8554  00349C  6FE8               	movwf	(_seed+7)& (0+255),b
  8555  00349E                     
  8556                           ; BSR set to: 0
  8557  00349E  C0E1  F16C         	movff	_seed,??_rand
  8558  0034A2  C0E2  F16D         	movff	_seed+1,??_rand+1
  8559  0034A6  C0E3  F16E         	movff	_seed+2,??_rand+2
  8560  0034AA  C0E4  F16F         	movff	_seed+3,??_rand+3
  8561  0034AE  C0E5  F170         	movff	_seed+4,??_rand+4
  8562  0034B2  C0E6  F171         	movff	_seed+5,??_rand+5
  8563  0034B6  C0E7  F172         	movff	_seed+6,??_rand+6
  8564  0034BA  C0E8  F173         	movff	_seed+7,??_rand+7
  8565  0034BE  0E32               	movlw	50
  8566  0034C0  EF6C  F01A         	goto	u18400
  8567  0034C4                     u18405:
  8568  0034C4  0101               	movlb	1	; () banked
  8569  0034C6  90D8               	bcf	status,0,c
  8570  0034C8  3373               	rrcf	(??_rand+7)& (0+255),f,b
  8571  0034CA  3372               	rrcf	(??_rand+6)& (0+255),f,b
  8572  0034CC  3371               	rrcf	(??_rand+5)& (0+255),f,b
  8573  0034CE  3370               	rrcf	(??_rand+4)& (0+255),f,b
  8574  0034D0  336F               	rrcf	(??_rand+3)& (0+255),f,b
  8575  0034D2  336E               	rrcf	(??_rand+2)& (0+255),f,b
  8576  0034D4  336D               	rrcf	(??_rand+1)& (0+255),f,b
  8577  0034D6  336C               	rrcf	??_rand& (0+255),f,b
  8578  0034D8                     u18400:
  8579  0034D8  2EE8               	decfsz	wreg,f,c
  8580  0034DA  EF62  F01A         	goto	u18405
  8581  0034DE  C16C  F16A         	movff	??_rand,?_rand
  8582  0034E2  C16E  F16B         	movff	??_rand+2,?_rand+1
  8583  0034E6                     
  8584                           ; BSR set to: 1
  8585  0034E6  0012               	return		;funcret
  8586  0034E8                     __end_of_rand:
  8587                           	opt callstack 0
  8588                           
  8589 ;; *************** function ___omul *****************
  8590 ;; Defined at:
  8591 ;;		line 91 in file "C:\Program Files (x86)\Microchip\xc8\v2.10\pic\sources\c99\common\Umul64.c"
  8592 ;; Parameters:    Size  Location     Type
  8593 ;;  multiplier      8    0[BANK1 ] unsigned long long 
  8594 ;;  multiplicand    8    8[BANK1 ] unsigned long long 
  8595 ;; Auto vars:     Size  Location     Type
  8596 ;;  product         8   16[BANK1 ] unsigned long long 
  8597 ;; Return value:  Size  Location     Type
  8598 ;;                  8    0[BANK1 ] unsigned long long 
  8599 ;; Registers used:
  8600 ;;		wreg, fsr2l, fsr2h, status,2, status,0
  8601 ;; Tracked objects:
  8602 ;;		On entry : 0/0
  8603 ;;		On exit  : 0/0
  8604 ;;		Unchanged: 0/0
  8605 ;; Data sizes:     COMRAM   BANK0   BANK1   BANK2   BANK3   BANK4   BANK5
  8606 ;;      Params:         0       0      16       0       0       0       0
  8607 ;;      Locals:         0       0       8       0       0       0       0
  8608 ;;      Temps:          0       0       0       0       0       0       0
  8609 ;;      Totals:         0       0      24       0       0       0       0
  8610 ;;Total ram usage:       24 bytes
  8611 ;; Hardware stack levels used:    1
  8612 ;; Hardware stack levels required when called:    7
  8613 ;; This function calls:
  8614 ;;		Nothing
  8615 ;; This function is called by:
  8616 ;;		_rand
  8617 ;; This function uses a non-reentrant model
  8618 ;;
  8619                           
  8620                           	psect	text21
  8621  003E5A                     __ptext21:
  8622                           	opt callstack 0
  8623  003E5A                     ___omul:
  8624                           	opt callstack 21
  8625  003E5A  EE21  F062         	lfsr	2,___omul@product
  8626  003E5E  0E07               	movlw	7
  8627  003E60                     u13991:
  8628  003E60  6ADE               	clrf	postinc2,c
  8629  003E62  06E8               	decf	wreg,f,c
  8630  003E64  E2FD               	bc	u13991
  8631  003E66                     l3373:
  8632  003E66  0101               	movlb	1	; () banked
  8633  003E68  A152               	btfss	___omul@multiplier& (0+255),0,b
  8634  003E6A  EF39  F01F         	goto	u14001
  8635  003E6E  EF3B  F01F         	goto	u14000
  8636  003E72                     u14001:
  8637  003E72  EF4B  F01F         	goto	l3377
  8638  003E76                     u14000:
  8639  003E76                     
  8640                           ; BSR set to: 1
  8641  003E76  515A               	movf	___omul@multiplicand& (0+255),w,b
  8642  003E78  2762               	addwf	___omul@product& (0+255),f,b
  8643  003E7A  515B               	movf	(___omul@multiplicand+1)& (0+255),w,b
  8644  003E7C  2363               	addwfc	(___omul@product+1)& (0+255),f,b
  8645  003E7E  515C               	movf	(___omul@multiplicand+2)& (0+255),w,b
  8646  003E80  2364               	addwfc	(___omul@product+2)& (0+255),f,b
  8647  003E82  515D               	movf	(___omul@multiplicand+3)& (0+255),w,b
  8648  003E84  2365               	addwfc	(___omul@product+3)& (0+255),f,b
  8649  003E86  515E               	movf	(___omul@multiplicand+4)& (0+255),w,b
  8650  003E88  2366               	addwfc	(___omul@product+4)& (0+255),f,b
  8651  003E8A  515F               	movf	(___omul@multiplicand+5)& (0+255),w,b
  8652  003E8C  2367               	addwfc	(___omul@product+5)& (0+255),f,b
  8653  003E8E  5160               	movf	(___omul@multiplicand+6)& (0+255),w,b
  8654  003E90  2368               	addwfc	(___omul@product+6)& (0+255),f,b
  8655  003E92  5161               	movf	(___omul@multiplicand+7)& (0+255),w,b
  8656  003E94  2369               	addwfc	(___omul@product+7)& (0+255),f,b
  8657  003E96                     l3377:
  8658                           
  8659                           ; BSR set to: 1
  8660  003E96  90D8               	bcf	status,0,c
  8661  003E98  375A               	rlcf	___omul@multiplicand& (0+255),f,b
  8662  003E9A  375B               	rlcf	(___omul@multiplicand+1)& (0+255),f,b
  8663  003E9C  375C               	rlcf	(___omul@multiplicand+2)& (0+255),f,b
  8664  003E9E  375D               	rlcf	(___omul@multiplicand+3)& (0+255),f,b
  8665  003EA0  375E               	rlcf	(___omul@multiplicand+4)& (0+255),f,b
  8666  003EA2  375F               	rlcf	(___omul@multiplicand+5)& (0+255),f,b
  8667  003EA4  3760               	rlcf	(___omul@multiplicand+6)& (0+255),f,b
  8668  003EA6  3761               	rlcf	(___omul@multiplicand+7)& (0+255),f,b
  8669  003EA8                     
  8670                           ; BSR set to: 1
  8671  003EA8  90D8               	bcf	status,0,c
  8672  003EAA  3359               	rrcf	(___omul@multiplier+7)& (0+255),f,b
  8673  003EAC  3358               	rrcf	(___omul@multiplier+6)& (0+255),f,b
  8674  003EAE  3357               	rrcf	(___omul@multiplier+5)& (0+255),f,b
  8675  003EB0  3356               	rrcf	(___omul@multiplier+4)& (0+255),f,b
  8676  003EB2  3355               	rrcf	(___omul@multiplier+3)& (0+255),f,b
  8677  003EB4  3354               	rrcf	(___omul@multiplier+2)& (0+255),f,b
  8678  003EB6  3353               	rrcf	(___omul@multiplier+1)& (0+255),f,b
  8679  003EB8  3352               	rrcf	___omul@multiplier& (0+255),f,b
  8680  003EBA  5152               	movf	___omul@multiplier& (0+255),w,b
  8681  003EBC  1153               	iorwf	(___omul@multiplier+1)& (0+255),w,b
  8682  003EBE  1154               	iorwf	(___omul@multiplier+2)& (0+255),w,b
  8683  003EC0  1155               	iorwf	(___omul@multiplier+3)& (0+255),w,b
  8684  003EC2  1156               	iorwf	(___omul@multiplier+4)& (0+255),w,b
  8685  003EC4  1157               	iorwf	(___omul@multiplier+5)& (0+255),w,b
  8686  003EC6  1158               	iorwf	(___omul@multiplier+6)& (0+255),w,b
  8687  003EC8  1159               	iorwf	(___omul@multiplier+7)& (0+255),w,b
  8688  003ECA  A4D8               	btfss	status,2,c
  8689  003ECC  EF6A  F01F         	goto	u14011
  8690  003ED0  EF6C  F01F         	goto	u14010
  8691  003ED4                     u14011:
  8692  003ED4  EF33  F01F         	goto	l3373
  8693  003ED8                     u14010:
  8694  003ED8                     
  8695                           ; BSR set to: 1
  8696  003ED8  C162  F152         	movff	___omul@product,?___omul
  8697  003EDC  C163  F153         	movff	___omul@product+1,?___omul+1
  8698  003EE0  C164  F154         	movff	___omul@product+2,?___omul+2
  8699  003EE4  C165  F155         	movff	___omul@product+3,?___omul+3
  8700  003EE8  C166  F156         	movff	___omul@product+4,?___omul+4
  8701  003EEC  C167  F157         	movff	___omul@product+5,?___omul+5
  8702  003EF0  C168  F158         	movff	___omul@product+6,?___omul+6
  8703  003EF4  C169  F159         	movff	___omul@product+7,?___omul+7
  8704  003EF8                     
  8705                           ; BSR set to: 1
  8706  003EF8  0012               	return		;funcret
  8707  003EFA                     __end_of___omul:
  8708                           	opt callstack 0
  8709                           
  8710 ;; *************** function _initial *****************
  8711 ;; Defined at:
  8712 ;;		line 210 in file "newmain.c"
  8713 ;; Parameters:    Size  Location     Type
  8714 ;;		None
  8715 ;; Auto vars:     Size  Location     Type
  8716 ;;  i               2    0[BANK1 ] int 
  8717 ;; Return value:  Size  Location     Type
  8718 ;;                  1    wreg      void 
  8719 ;; Registers used:
  8720 ;;		wreg, fsr2l, fsr2h, status,2, status,0
  8721 ;; Tracked objects:
  8722 ;;		On entry : 0/0
  8723 ;;		On exit  : 0/0
  8724 ;;		Unchanged: 0/0
  8725 ;; Data sizes:     COMRAM   BANK0   BANK1   BANK2   BANK3   BANK4   BANK5
  8726 ;;      Params:         0       0       0       0       0       0       0
  8727 ;;      Locals:         0       0       2       0       0       0       0
  8728 ;;      Temps:          0       0       0       0       0       0       0
  8729 ;;      Totals:         0       0       2       0       0       0       0
  8730 ;;Total ram usage:        2 bytes
  8731 ;; Hardware stack levels used:    1
  8732 ;; Hardware stack levels required when called:    7
  8733 ;; This function calls:
  8734 ;;		Nothing
  8735 ;; This function is called by:
  8736 ;;		_random_cube
  8737 ;;		_main
  8738 ;; This function uses a non-reentrant model
  8739 ;;
  8740                           
  8741                           	psect	text22
  8742  00180E                     __ptext22:
  8743                           	opt callstack 0
  8744  00180E                     _initial:
  8745                           	opt callstack 22
  8746  00180E                     
  8747                           ;newmain.c: 211:     int i;;newmain.c: 212:     LATAbits.LA4 = 1;
  8748  00180E  8889               	bsf	137,4,c	;volatile
  8749  001810                     
  8750                           ;newmain.c: 213:     need_to_check = 0;
  8751  001810  0E00               	movlw	0
  8752  001812  0100               	movlb	0	; () banked
  8753  001814  6FDE               	movwf	(_need_to_check+1)& (0+255),b
  8754  001816  0E00               	movlw	0
  8755  001818  6FDD               	movwf	_need_to_check& (0+255),b
  8756                           
  8757                           ;newmain.c: 214:     for(i = 0;i < 4;i++){
  8758  00181A  0E00               	movlw	0
  8759  00181C  0101               	movlb	1	; () banked
  8760  00181E  6F53               	movwf	(initial@i+1)& (0+255),b
  8761  001820  0E00               	movlw	0
  8762  001822  6F52               	movwf	initial@i& (0+255),b
  8763  001824                     l3389:
  8764                           
  8765                           ; BSR set to: 1
  8766                           ;newmain.c: 215:         rgb[i].r = 0;
  8767  001824  0EB9               	movlw	low _rgb
  8768  001826  2552               	addwf	initial@i& (0+255),w,b
  8769  001828  6ED9               	movwf	fsr2l,c
  8770  00182A  0E00               	movlw	high _rgb
  8771  00182C  2153               	addwfc	(initial@i+1)& (0+255),w,b
  8772  00182E  6EDA               	movwf	fsr2h,c
  8773  001830  0100               	movlb	0	; () banked
  8774  001832  90DF               	bcf	indf2,0,c
  8775                           
  8776                           ;newmain.c: 216:         rgb[i].g = 0;
  8777  001834  0EB9               	movlw	low _rgb
  8778  001836  0101               	movlb	1	; () banked
  8779  001838  2552               	addwf	initial@i& (0+255),w,b
  8780  00183A  6ED9               	movwf	fsr2l,c
  8781  00183C  0E00               	movlw	high _rgb
  8782  00183E  2153               	addwfc	(initial@i+1)& (0+255),w,b
  8783  001840  6EDA               	movwf	fsr2h,c
  8784  001842  0100               	movlb	0	; () banked
  8785  001844  92DF               	bcf	indf2,1,c
  8786                           
  8787                           ;newmain.c: 217:         rgb[i].b = 1;
  8788  001846  0EB9               	movlw	low _rgb
  8789  001848  0101               	movlb	1	; () banked
  8790  00184A  2552               	addwf	initial@i& (0+255),w,b
  8791  00184C  6ED9               	movwf	fsr2l,c
  8792  00184E  0E00               	movlw	high _rgb
  8793  001850  2153               	addwfc	(initial@i+1)& (0+255),w,b
  8794  001852  6EDA               	movwf	fsr2h,c
  8795  001854  0100               	movlb	0	; () banked
  8796  001856  84DF               	bsf	indf2,2,c
  8797  001858                     
  8798                           ; BSR set to: 0
  8799                           ;newmain.c: 218:     }
  8800  001858  0101               	movlb	1	; () banked
  8801  00185A  4B52               	infsnz	initial@i& (0+255),f,b
  8802  00185C  2B53               	incf	(initial@i+1)& (0+255),f,b
  8803  00185E                     
  8804                           ; BSR set to: 1
  8805  00185E  BF53               	btfsc	(initial@i+1)& (0+255),7,b
  8806  001860  EF3B  F00C         	goto	u14021
  8807  001864  5153               	movf	(initial@i+1)& (0+255),w,b
  8808  001866  E109               	bnz	u14020
  8809  001868  0E04               	movlw	4
  8810  00186A  5D52               	subwf	initial@i& (0+255),w,b
  8811  00186C  A0D8               	btfss	status,0,c
  8812  00186E  EF3B  F00C         	goto	u14021
  8813  001872  EF3D  F00C         	goto	u14020
  8814  001876                     u14021:
  8815  001876  EF12  F00C         	goto	l3389
  8816  00187A                     u14020:
  8817  00187A                     
  8818                           ; BSR set to: 1
  8819                           ;newmain.c: 219:     for(i = 4;i < 8;i++){
  8820  00187A  0E00               	movlw	0
  8821  00187C  6F53               	movwf	(initial@i+1)& (0+255),b
  8822  00187E  0E04               	movlw	4
  8823  001880  6F52               	movwf	initial@i& (0+255),b
  8824  001882                     l3401:
  8825                           
  8826                           ; BSR set to: 1
  8827                           ;newmain.c: 220:         rgb[i].r = 1;
  8828  001882  0EB9               	movlw	low _rgb
  8829  001884  2552               	addwf	initial@i& (0+255),w,b
  8830  001886  6ED9               	movwf	fsr2l,c
  8831  001888  0E00               	movlw	high _rgb
  8832  00188A  2153               	addwfc	(initial@i+1)& (0+255),w,b
  8833  00188C  6EDA               	movwf	fsr2h,c
  8834  00188E  0100               	movlb	0	; () banked
  8835  001890  80DF               	bsf	indf2,0,c
  8836                           
  8837                           ;newmain.c: 221:         rgb[i].g = 0;
  8838  001892  0EB9               	movlw	low _rgb
  8839  001894  0101               	movlb	1	; () banked
  8840  001896  2552               	addwf	initial@i& (0+255),w,b
  8841  001898  6ED9               	movwf	fsr2l,c
  8842  00189A  0E00               	movlw	high _rgb
  8843  00189C  2153               	addwfc	(initial@i+1)& (0+255),w,b
  8844  00189E  6EDA               	movwf	fsr2h,c
  8845  0018A0  0100               	movlb	0	; () banked
  8846  0018A2  92DF               	bcf	indf2,1,c
  8847                           
  8848                           ;newmain.c: 222:         rgb[i].b = 1;
  8849  0018A4  0EB9               	movlw	low _rgb
  8850  0018A6  0101               	movlb	1	; () banked
  8851  0018A8  2552               	addwf	initial@i& (0+255),w,b
  8852  0018AA  6ED9               	movwf	fsr2l,c
  8853  0018AC  0E00               	movlw	high _rgb
  8854  0018AE  2153               	addwfc	(initial@i+1)& (0+255),w,b
  8855  0018B0  6EDA               	movwf	fsr2h,c
  8856  0018B2  0100               	movlb	0	; () banked
  8857  0018B4  84DF               	bsf	indf2,2,c
  8858  0018B6                     
  8859                           ; BSR set to: 0
  8860                           ;newmain.c: 223:     }
  8861  0018B6  0101               	movlb	1	; () banked
  8862  0018B8  4B52               	infsnz	initial@i& (0+255),f,b
  8863  0018BA  2B53               	incf	(initial@i+1)& (0+255),f,b
  8864  0018BC                     
  8865                           ; BSR set to: 1
  8866  0018BC  BF53               	btfsc	(initial@i+1)& (0+255),7,b
  8867  0018BE  EF6A  F00C         	goto	u14031
  8868  0018C2  5153               	movf	(initial@i+1)& (0+255),w,b
  8869  0018C4  E109               	bnz	u14030
  8870  0018C6  0E08               	movlw	8
  8871  0018C8  5D52               	subwf	initial@i& (0+255),w,b
  8872  0018CA  A0D8               	btfss	status,0,c
  8873  0018CC  EF6A  F00C         	goto	u14031
  8874  0018D0  EF6C  F00C         	goto	u14030
  8875  0018D4                     u14031:
  8876  0018D4  EF41  F00C         	goto	l3401
  8877  0018D8                     u14030:
  8878  0018D8                     
  8879                           ; BSR set to: 1
  8880                           ;newmain.c: 224:     for(i = 8;i < 12;i++){
  8881  0018D8  0E00               	movlw	0
  8882  0018DA  6F53               	movwf	(initial@i+1)& (0+255),b
  8883  0018DC  0E08               	movlw	8
  8884  0018DE  6F52               	movwf	initial@i& (0+255),b
  8885  0018E0                     l3413:
  8886                           
  8887                           ; BSR set to: 1
  8888                           ;newmain.c: 225:         rgb[i].r = 0;
  8889  0018E0  0EB9               	movlw	low _rgb
  8890  0018E2  2552               	addwf	initial@i& (0+255),w,b
  8891  0018E4  6ED9               	movwf	fsr2l,c
  8892  0018E6  0E00               	movlw	high _rgb
  8893  0018E8  2153               	addwfc	(initial@i+1)& (0+255),w,b
  8894  0018EA  6EDA               	movwf	fsr2h,c
  8895  0018EC  0100               	movlb	0	; () banked
  8896  0018EE  90DF               	bcf	indf2,0,c
  8897                           
  8898                           ;newmain.c: 226:         rgb[i].g = 0;
  8899  0018F0  0EB9               	movlw	low _rgb
  8900  0018F2  0101               	movlb	1	; () banked
  8901  0018F4  2552               	addwf	initial@i& (0+255),w,b
  8902  0018F6  6ED9               	movwf	fsr2l,c
  8903  0018F8  0E00               	movlw	high _rgb
  8904  0018FA  2153               	addwfc	(initial@i+1)& (0+255),w,b
  8905  0018FC  6EDA               	movwf	fsr2h,c
  8906  0018FE  0100               	movlb	0	; () banked
  8907  001900  92DF               	bcf	indf2,1,c
  8908                           
  8909                           ;newmain.c: 227:         rgb[i].b = 0;
  8910  001902  0EB9               	movlw	low _rgb
  8911  001904  0101               	movlb	1	; () banked
  8912  001906  2552               	addwf	initial@i& (0+255),w,b
  8913  001908  6ED9               	movwf	fsr2l,c
  8914  00190A  0E00               	movlw	high _rgb
  8915  00190C  2153               	addwfc	(initial@i+1)& (0+255),w,b
  8916  00190E  6EDA               	movwf	fsr2h,c
  8917  001910  0100               	movlb	0	; () banked
  8918  001912  94DF               	bcf	indf2,2,c
  8919  001914                     
  8920                           ; BSR set to: 0
  8921                           ;newmain.c: 228:     }
  8922  001914  0101               	movlb	1	; () banked
  8923  001916  4B52               	infsnz	initial@i& (0+255),f,b
  8924  001918  2B53               	incf	(initial@i+1)& (0+255),f,b
  8925  00191A                     
  8926                           ; BSR set to: 1
  8927  00191A  BF53               	btfsc	(initial@i+1)& (0+255),7,b
  8928  00191C  EF99  F00C         	goto	u14041
  8929  001920  5153               	movf	(initial@i+1)& (0+255),w,b
  8930  001922  E109               	bnz	u14040
  8931  001924  0E0C               	movlw	12
  8932  001926  5D52               	subwf	initial@i& (0+255),w,b
  8933  001928  A0D8               	btfss	status,0,c
  8934  00192A  EF99  F00C         	goto	u14041
  8935  00192E  EF9B  F00C         	goto	u14040
  8936  001932                     u14041:
  8937  001932  EF70  F00C         	goto	l3413
  8938  001936                     u14040:
  8939  001936                     
  8940                           ; BSR set to: 1
  8941                           ;newmain.c: 229:     for(i = 12;i < 16;i++){
  8942  001936  0E00               	movlw	0
  8943  001938  6F53               	movwf	(initial@i+1)& (0+255),b
  8944  00193A  0E0C               	movlw	12
  8945  00193C  6F52               	movwf	initial@i& (0+255),b
  8946  00193E                     l3425:
  8947                           
  8948                           ; BSR set to: 1
  8949                           ;newmain.c: 230:         rgb[i].r = 1;
  8950  00193E  0EB9               	movlw	low _rgb
  8951  001940  2552               	addwf	initial@i& (0+255),w,b
  8952  001942  6ED9               	movwf	fsr2l,c
  8953  001944  0E00               	movlw	high _rgb
  8954  001946  2153               	addwfc	(initial@i+1)& (0+255),w,b
  8955  001948  6EDA               	movwf	fsr2h,c
  8956  00194A  0100               	movlb	0	; () banked
  8957  00194C  80DF               	bsf	indf2,0,c
  8958                           
  8959                           ;newmain.c: 231:         rgb[i].g = 1;
  8960  00194E  0EB9               	movlw	low _rgb
  8961  001950  0101               	movlb	1	; () banked
  8962  001952  2552               	addwf	initial@i& (0+255),w,b
  8963  001954  6ED9               	movwf	fsr2l,c
  8964  001956  0E00               	movlw	high _rgb
  8965  001958  2153               	addwfc	(initial@i+1)& (0+255),w,b
  8966  00195A  6EDA               	movwf	fsr2h,c
  8967  00195C  0100               	movlb	0	; () banked
  8968  00195E  82DF               	bsf	indf2,1,c
  8969                           
  8970                           ;newmain.c: 232:         rgb[i].b = 0;
  8971  001960  0EB9               	movlw	low _rgb
  8972  001962  0101               	movlb	1	; () banked
  8973  001964  2552               	addwf	initial@i& (0+255),w,b
  8974  001966  6ED9               	movwf	fsr2l,c
  8975  001968  0E00               	movlw	high _rgb
  8976  00196A  2153               	addwfc	(initial@i+1)& (0+255),w,b
  8977  00196C  6EDA               	movwf	fsr2h,c
  8978  00196E  0100               	movlb	0	; () banked
  8979  001970  94DF               	bcf	indf2,2,c
  8980  001972                     
  8981                           ; BSR set to: 0
  8982                           ;newmain.c: 233:     }
  8983  001972  0101               	movlb	1	; () banked
  8984  001974  4B52               	infsnz	initial@i& (0+255),f,b
  8985  001976  2B53               	incf	(initial@i+1)& (0+255),f,b
  8986  001978                     
  8987                           ; BSR set to: 1
  8988  001978  BF53               	btfsc	(initial@i+1)& (0+255),7,b
  8989  00197A  EFC8  F00C         	goto	u14051
  8990  00197E  5153               	movf	(initial@i+1)& (0+255),w,b
  8991  001980  E109               	bnz	u14050
  8992  001982  0E10               	movlw	16
  8993  001984  5D52               	subwf	initial@i& (0+255),w,b
  8994  001986  A0D8               	btfss	status,0,c
  8995  001988  EFC8  F00C         	goto	u14051
  8996  00198C  EFCA  F00C         	goto	u14050
  8997  001990                     u14051:
  8998  001990  EF9F  F00C         	goto	l3425
  8999  001994                     u14050:
  9000  001994                     
  9001                           ; BSR set to: 1
  9002                           ;newmain.c: 234:     for(i = 16;i < 20;i++){
  9003  001994  0E00               	movlw	0
  9004  001996  6F53               	movwf	(initial@i+1)& (0+255),b
  9005  001998  0E10               	movlw	16
  9006  00199A  6F52               	movwf	initial@i& (0+255),b
  9007  00199C                     l3437:
  9008                           
  9009                           ; BSR set to: 1
  9010                           ;newmain.c: 235:         rgb[i].r = 0;
  9011  00199C  0EB9               	movlw	low _rgb
  9012  00199E  2552               	addwf	initial@i& (0+255),w,b
  9013  0019A0  6ED9               	movwf	fsr2l,c
  9014  0019A2  0E00               	movlw	high _rgb
  9015  0019A4  2153               	addwfc	(initial@i+1)& (0+255),w,b
  9016  0019A6  6EDA               	movwf	fsr2h,c
  9017  0019A8  0100               	movlb	0	; () banked
  9018  0019AA  90DF               	bcf	indf2,0,c
  9019                           
  9020                           ;newmain.c: 236:         rgb[i].g = 1;
  9021  0019AC  0EB9               	movlw	low _rgb
  9022  0019AE  0101               	movlb	1	; () banked
  9023  0019B0  2552               	addwf	initial@i& (0+255),w,b
  9024  0019B2  6ED9               	movwf	fsr2l,c
  9025  0019B4  0E00               	movlw	high _rgb
  9026  0019B6  2153               	addwfc	(initial@i+1)& (0+255),w,b
  9027  0019B8  6EDA               	movwf	fsr2h,c
  9028  0019BA  0100               	movlb	0	; () banked
  9029  0019BC  82DF               	bsf	indf2,1,c
  9030                           
  9031                           ;newmain.c: 237:         rgb[i].b = 1;
  9032  0019BE  0EB9               	movlw	low _rgb
  9033  0019C0  0101               	movlb	1	; () banked
  9034  0019C2  2552               	addwf	initial@i& (0+255),w,b
  9035  0019C4  6ED9               	movwf	fsr2l,c
  9036  0019C6  0E00               	movlw	high _rgb
  9037  0019C8  2153               	addwfc	(initial@i+1)& (0+255),w,b
  9038  0019CA  6EDA               	movwf	fsr2h,c
  9039  0019CC  0100               	movlb	0	; () banked
  9040  0019CE  84DF               	bsf	indf2,2,c
  9041  0019D0                     
  9042                           ; BSR set to: 0
  9043                           ;newmain.c: 238:     }
  9044  0019D0  0101               	movlb	1	; () banked
  9045  0019D2  4B52               	infsnz	initial@i& (0+255),f,b
  9046  0019D4  2B53               	incf	(initial@i+1)& (0+255),f,b
  9047  0019D6                     
  9048                           ; BSR set to: 1
  9049  0019D6  BF53               	btfsc	(initial@i+1)& (0+255),7,b
  9050  0019D8  EFF7  F00C         	goto	u14061
  9051  0019DC  5153               	movf	(initial@i+1)& (0+255),w,b
  9052  0019DE  E109               	bnz	u14060
  9053  0019E0  0E14               	movlw	20
  9054  0019E2  5D52               	subwf	initial@i& (0+255),w,b
  9055  0019E4  A0D8               	btfss	status,0,c
  9056  0019E6  EFF7  F00C         	goto	u14061
  9057  0019EA  EFF9  F00C         	goto	u14060
  9058  0019EE                     u14061:
  9059  0019EE  EFCE  F00C         	goto	l3437
  9060  0019F2                     u14060:
  9061  0019F2                     
  9062                           ; BSR set to: 1
  9063                           ;newmain.c: 239:     for(i = 20;i < 24;i++){
  9064  0019F2  0E00               	movlw	0
  9065  0019F4  6F53               	movwf	(initial@i+1)& (0+255),b
  9066  0019F6  0E14               	movlw	20
  9067  0019F8  6F52               	movwf	initial@i& (0+255),b
  9068  0019FA                     l3449:
  9069                           
  9070                           ; BSR set to: 1
  9071                           ;newmain.c: 240:         rgb[i].r = 0;
  9072  0019FA  0EB9               	movlw	low _rgb
  9073  0019FC  2552               	addwf	initial@i& (0+255),w,b
  9074  0019FE  6ED9               	movwf	fsr2l,c
  9075  001A00  0E00               	movlw	high _rgb
  9076  001A02  2153               	addwfc	(initial@i+1)& (0+255),w,b
  9077  001A04  6EDA               	movwf	fsr2h,c
  9078  001A06  0100               	movlb	0	; () banked
  9079  001A08  90DF               	bcf	indf2,0,c
  9080                           
  9081                           ;newmain.c: 241:         rgb[i].g = 1;
  9082  001A0A  0EB9               	movlw	low _rgb
  9083  001A0C  0101               	movlb	1	; () banked
  9084  001A0E  2552               	addwf	initial@i& (0+255),w,b
  9085  001A10  6ED9               	movwf	fsr2l,c
  9086  001A12  0E00               	movlw	high _rgb
  9087  001A14  2153               	addwfc	(initial@i+1)& (0+255),w,b
  9088  001A16  6EDA               	movwf	fsr2h,c
  9089  001A18  0100               	movlb	0	; () banked
  9090  001A1A  82DF               	bsf	indf2,1,c
  9091                           
  9092                           ;newmain.c: 242:         rgb[i].b = 0;
  9093  001A1C  0EB9               	movlw	low _rgb
  9094  001A1E  0101               	movlb	1	; () banked
  9095  001A20  2552               	addwf	initial@i& (0+255),w,b
  9096  001A22  6ED9               	movwf	fsr2l,c
  9097  001A24  0E00               	movlw	high _rgb
  9098  001A26  2153               	addwfc	(initial@i+1)& (0+255),w,b
  9099  001A28  6EDA               	movwf	fsr2h,c
  9100  001A2A  0100               	movlb	0	; () banked
  9101  001A2C  94DF               	bcf	indf2,2,c
  9102  001A2E                     
  9103                           ; BSR set to: 0
  9104                           ;newmain.c: 243:     }
  9105  001A2E  0101               	movlb	1	; () banked
  9106  001A30  4B52               	infsnz	initial@i& (0+255),f,b
  9107  001A32  2B53               	incf	(initial@i+1)& (0+255),f,b
  9108  001A34                     
  9109                           ; BSR set to: 1
  9110  001A34  BF53               	btfsc	(initial@i+1)& (0+255),7,b
  9111  001A36  EF26  F00D         	goto	u14071
  9112  001A3A  5153               	movf	(initial@i+1)& (0+255),w,b
  9113  001A3C  E109               	bnz	u14070
  9114  001A3E  0E18               	movlw	24
  9115  001A40  5D52               	subwf	initial@i& (0+255),w,b
  9116  001A42  A0D8               	btfss	status,0,c
  9117  001A44  EF26  F00D         	goto	u14071
  9118  001A48  EF28  F00D         	goto	u14070
  9119  001A4C                     u14071:
  9120  001A4C  EFFD  F00C         	goto	l3449
  9121  001A50                     u14070:
  9122  001A50                     
  9123                           ; BSR set to: 1
  9124  001A50  0012               	return		;funcret
  9125  001A52                     __end_of_initial:
  9126                           	opt callstack 0
  9127                           
  9128 ;; *************** function ___awmod *****************
  9129 ;; Defined at:
  9130 ;;		line 7 in file "C:\Program Files (x86)\Microchip\xc8\v2.10\pic\sources\c99\common\awmod.c"
  9131 ;; Parameters:    Size  Location     Type
  9132 ;;  dividend        2   34[BANK1 ] int 
  9133 ;;  divisor         2   36[BANK1 ] int 
  9134 ;; Auto vars:     Size  Location     Type
  9135 ;;  sign            1   39[BANK1 ] unsigned char 
  9136 ;;  counter         1   38[BANK1 ] unsigned char 
  9137 ;; Return value:  Size  Location     Type
  9138 ;;                  2   34[BANK1 ] int 
  9139 ;; Registers used:
  9140 ;;		wreg, status,2, status,0
  9141 ;; Tracked objects:
  9142 ;;		On entry : 0/0
  9143 ;;		On exit  : 0/0
  9144 ;;		Unchanged: 0/0
  9145 ;; Data sizes:     COMRAM   BANK0   BANK1   BANK2   BANK3   BANK4   BANK5
  9146 ;;      Params:         0       0       4       0       0       0       0
  9147 ;;      Locals:         0       0       2       0       0       0       0
  9148 ;;      Temps:          0       0       0       0       0       0       0
  9149 ;;      Totals:         0       0       6       0       0       0       0
  9150 ;;Total ram usage:        6 bytes
  9151 ;; Hardware stack levels used:    1
  9152 ;; Hardware stack levels required when called:    7
  9153 ;; This function calls:
  9154 ;;		Nothing
  9155 ;; This function is called by:
  9156 ;;		_random_cube
  9157 ;; This function uses a non-reentrant model
  9158 ;;
  9159                           
  9160                           	psect	text23
  9161  003CF8                     __ptext23:
  9162                           	opt callstack 0
  9163  003CF8                     ___awmod:
  9164                           	opt callstack 22
  9165  003CF8  0E00               	movlw	0
  9166  003CFA  0101               	movlb	1	; () banked
  9167  003CFC  6F79               	movwf	___awmod@sign& (0+255),b
  9168  003CFE                     
  9169                           ; BSR set to: 1
  9170  003CFE  BF75               	btfsc	(___awmod@dividend+1)& (0+255),7,b
  9171  003D00  EF86  F01E         	goto	u18410
  9172  003D04  EF84  F01E         	goto	u18411
  9173  003D08                     u18411:
  9174  003D08  EF8C  F01E         	goto	l3493
  9175  003D0C                     u18410:
  9176  003D0C                     
  9177                           ; BSR set to: 1
  9178  003D0C  6D74               	negf	___awmod@dividend& (0+255),b
  9179  003D0E  1F75               	comf	(___awmod@dividend+1)& (0+255),f,b
  9180  003D10  B0D8               	btfsc	status,0,c
  9181  003D12  2B75               	incf	(___awmod@dividend+1)& (0+255),f,b
  9182  003D14                     
  9183                           ; BSR set to: 1
  9184  003D14  0E01               	movlw	1
  9185  003D16  6F79               	movwf	___awmod@sign& (0+255),b
  9186  003D18                     l3493:
  9187                           
  9188                           ; BSR set to: 1
  9189  003D18  BF77               	btfsc	(___awmod@divisor+1)& (0+255),7,b
  9190  003D1A  EF93  F01E         	goto	u18420
  9191  003D1E  EF91  F01E         	goto	u18421
  9192  003D22                     u18421:
  9193  003D22  EF97  F01E         	goto	l3497
  9194  003D26                     u18420:
  9195  003D26                     
  9196                           ; BSR set to: 1
  9197  003D26  6D76               	negf	___awmod@divisor& (0+255),b
  9198  003D28  1F77               	comf	(___awmod@divisor+1)& (0+255),f,b
  9199  003D2A  B0D8               	btfsc	status,0,c
  9200  003D2C  2B77               	incf	(___awmod@divisor+1)& (0+255),f,b
  9201  003D2E                     l3497:
  9202                           
  9203                           ; BSR set to: 1
  9204  003D2E  5176               	movf	___awmod@divisor& (0+255),w,b
  9205  003D30  1177               	iorwf	(___awmod@divisor+1)& (0+255),w,b
  9206  003D32  B4D8               	btfsc	status,2,c
  9207  003D34  EF9E  F01E         	goto	u18431
  9208  003D38  EFA0  F01E         	goto	u18430
  9209  003D3C                     u18431:
  9210  003D3C  EFC4  F01E         	goto	l3513
  9211  003D40                     u18430:
  9212  003D40                     
  9213                           ; BSR set to: 1
  9214  003D40  0E01               	movlw	1
  9215  003D42  6F78               	movwf	___awmod@counter& (0+255),b
  9216  003D44  EFA8  F01E         	goto	l3503
  9217  003D48                     l3501:
  9218                           
  9219                           ; BSR set to: 1
  9220  003D48  90D8               	bcf	status,0,c
  9221  003D4A  3776               	rlcf	___awmod@divisor& (0+255),f,b
  9222  003D4C  3777               	rlcf	(___awmod@divisor+1)& (0+255),f,b
  9223  003D4E  2B78               	incf	___awmod@counter& (0+255),f,b
  9224  003D50                     l3503:
  9225                           
  9226                           ; BSR set to: 1
  9227  003D50  AF77               	btfss	(___awmod@divisor+1)& (0+255),7,b
  9228  003D52  EFAD  F01E         	goto	u18441
  9229  003D56  EFAF  F01E         	goto	u18440
  9230  003D5A                     u18441:
  9231  003D5A  EFA4  F01E         	goto	l3501
  9232  003D5E                     u18440:
  9233  003D5E                     l3505:
  9234                           
  9235                           ; BSR set to: 1
  9236  003D5E  5176               	movf	___awmod@divisor& (0+255),w,b
  9237  003D60  5D74               	subwf	___awmod@dividend& (0+255),w,b
  9238  003D62  5177               	movf	(___awmod@divisor+1)& (0+255),w,b
  9239  003D64  5975               	subwfb	(___awmod@dividend+1)& (0+255),w,b
  9240  003D66  A0D8               	btfss	status,0,c
  9241  003D68  EFB8  F01E         	goto	u18451
  9242  003D6C  EFBA  F01E         	goto	u18450
  9243  003D70                     u18451:
  9244  003D70  EFBE  F01E         	goto	l3509
  9245  003D74                     u18450:
  9246  003D74                     
  9247                           ; BSR set to: 1
  9248  003D74  5176               	movf	___awmod@divisor& (0+255),w,b
  9249  003D76  5F74               	subwf	___awmod@dividend& (0+255),f,b
  9250  003D78  5177               	movf	(___awmod@divisor+1)& (0+255),w,b
  9251  003D7A  5B75               	subwfb	(___awmod@dividend+1)& (0+255),f,b
  9252  003D7C                     l3509:
  9253                           
  9254                           ; BSR set to: 1
  9255  003D7C  90D8               	bcf	status,0,c
  9256  003D7E  3377               	rrcf	(___awmod@divisor+1)& (0+255),f,b
  9257  003D80  3376               	rrcf	___awmod@divisor& (0+255),f,b
  9258  003D82                     
  9259                           ; BSR set to: 1
  9260  003D82  2F78               	decfsz	___awmod@counter& (0+255),f,b
  9261  003D84  EFAF  F01E         	goto	l3505
  9262  003D88                     l3513:
  9263                           
  9264                           ; BSR set to: 1
  9265  003D88  5179               	movf	___awmod@sign& (0+255),w,b
  9266  003D8A  B4D8               	btfsc	status,2,c
  9267  003D8C  EFCA  F01E         	goto	u18461
  9268  003D90  EFCC  F01E         	goto	u18460
  9269  003D94                     u18461:
  9270  003D94  EFD0  F01E         	goto	l3517
  9271  003D98                     u18460:
  9272  003D98                     
  9273                           ; BSR set to: 1
  9274  003D98  6D74               	negf	___awmod@dividend& (0+255),b
  9275  003D9A  1F75               	comf	(___awmod@dividend+1)& (0+255),f,b
  9276  003D9C  B0D8               	btfsc	status,0,c
  9277  003D9E  2B75               	incf	(___awmod@dividend+1)& (0+255),f,b
  9278  003DA0                     l3517:
  9279                           
  9280                           ; BSR set to: 1
  9281  003DA0  C174  F174         	movff	___awmod@dividend,?___awmod
  9282  003DA4  C175  F175         	movff	___awmod@dividend+1,?___awmod+1
  9283  003DA8                     
  9284                           ; BSR set to: 1
  9285  003DA8  0012               	return		;funcret
  9286  003DAA                     __end_of___awmod:
  9287                           	opt callstack 0
  9288                           
  9289 ;; *************** function ___awdiv *****************
  9290 ;; Defined at:
  9291 ;;		line 7 in file "C:\Program Files (x86)\Microchip\xc8\v2.10\pic\sources\c99\common\awdiv.c"
  9292 ;; Parameters:    Size  Location     Type
  9293 ;;  dividend        2    0[BANK1 ] int 
  9294 ;;  divisor         2    2[BANK1 ] int 
  9295 ;; Auto vars:     Size  Location     Type
  9296 ;;  quotient        2    6[BANK1 ] int 
  9297 ;;  sign            1    5[BANK1 ] unsigned char 
  9298 ;;  counter         1    4[BANK1 ] unsigned char 
  9299 ;; Return value:  Size  Location     Type
  9300 ;;                  2    0[BANK1 ] int 
  9301 ;; Registers used:
  9302 ;;		wreg, status,2, status,0
  9303 ;; Tracked objects:
  9304 ;;		On entry : 0/0
  9305 ;;		On exit  : 0/0
  9306 ;;		Unchanged: 0/0
  9307 ;; Data sizes:     COMRAM   BANK0   BANK1   BANK2   BANK3   BANK4   BANK5
  9308 ;;      Params:         0       0       4       0       0       0       0
  9309 ;;      Locals:         0       0       4       0       0       0       0
  9310 ;;      Temps:          0       0       0       0       0       0       0
  9311 ;;      Totals:         0       0       8       0       0       0       0
  9312 ;;Total ram usage:        8 bytes
  9313 ;; Hardware stack levels used:    1
  9314 ;; Hardware stack levels required when called:    7
  9315 ;; This function calls:
  9316 ;;		Nothing
  9317 ;; This function is called by:
  9318 ;;		_main
  9319 ;; This function uses a non-reentrant model
  9320 ;;
  9321                           
  9322                           	psect	text24
  9323  003C32                     __ptext24:
  9324                           	opt callstack 0
  9325  003C32                     ___awdiv:
  9326                           	opt callstack 23
  9327  003C32  0E00               	movlw	0
  9328  003C34  0101               	movlb	1	; () banked
  9329  003C36  6F57               	movwf	___awdiv@sign& (0+255),b
  9330  003C38                     
  9331                           ; BSR set to: 1
  9332  003C38  BF55               	btfsc	(___awdiv@divisor+1)& (0+255),7,b
  9333  003C3A  EF23  F01E         	goto	u18810
  9334  003C3E  EF21  F01E         	goto	u18811
  9335  003C42                     u18811:
  9336  003C42  EF29  F01E         	goto	l3759
  9337  003C46                     u18810:
  9338  003C46                     
  9339                           ; BSR set to: 1
  9340  003C46  6D54               	negf	___awdiv@divisor& (0+255),b
  9341  003C48  1F55               	comf	(___awdiv@divisor+1)& (0+255),f,b
  9342  003C4A  B0D8               	btfsc	status,0,c
  9343  003C4C  2B55               	incf	(___awdiv@divisor+1)& (0+255),f,b
  9344  003C4E                     
  9345                           ; BSR set to: 1
  9346  003C4E  0E01               	movlw	1
  9347  003C50  6F57               	movwf	___awdiv@sign& (0+255),b
  9348  003C52                     l3759:
  9349                           
  9350                           ; BSR set to: 1
  9351  003C52  BF53               	btfsc	(___awdiv@dividend+1)& (0+255),7,b
  9352  003C54  EF30  F01E         	goto	u18820
  9353  003C58  EF2E  F01E         	goto	u18821
  9354  003C5C                     u18821:
  9355  003C5C  EF36  F01E         	goto	l3765
  9356  003C60                     u18820:
  9357  003C60                     
  9358                           ; BSR set to: 1
  9359  003C60  6D52               	negf	___awdiv@dividend& (0+255),b
  9360  003C62  1F53               	comf	(___awdiv@dividend+1)& (0+255),f,b
  9361  003C64  B0D8               	btfsc	status,0,c
  9362  003C66  2B53               	incf	(___awdiv@dividend+1)& (0+255),f,b
  9363  003C68                     
  9364                           ; BSR set to: 1
  9365  003C68  0E01               	movlw	1
  9366  003C6A  1B57               	xorwf	___awdiv@sign& (0+255),f,b
  9367  003C6C                     l3765:
  9368                           
  9369                           ; BSR set to: 1
  9370  003C6C  0E00               	movlw	0
  9371  003C6E  6F59               	movwf	(___awdiv@quotient+1)& (0+255),b
  9372  003C70  0E00               	movlw	0
  9373  003C72  6F58               	movwf	___awdiv@quotient& (0+255),b
  9374  003C74                     
  9375                           ; BSR set to: 1
  9376  003C74  5154               	movf	___awdiv@divisor& (0+255),w,b
  9377  003C76  1155               	iorwf	(___awdiv@divisor+1)& (0+255),w,b
  9378  003C78  B4D8               	btfsc	status,2,c
  9379  003C7A  EF41  F01E         	goto	u18831
  9380  003C7E  EF43  F01E         	goto	u18830
  9381  003C82                     u18831:
  9382  003C82  EF6B  F01E         	goto	l3787
  9383  003C86                     u18830:
  9384  003C86                     
  9385                           ; BSR set to: 1
  9386  003C86  0E01               	movlw	1
  9387  003C88  6F56               	movwf	___awdiv@counter& (0+255),b
  9388  003C8A  EF4B  F01E         	goto	l3773
  9389  003C8E                     l3771:
  9390                           
  9391                           ; BSR set to: 1
  9392  003C8E  90D8               	bcf	status,0,c
  9393  003C90  3754               	rlcf	___awdiv@divisor& (0+255),f,b
  9394  003C92  3755               	rlcf	(___awdiv@divisor+1)& (0+255),f,b
  9395  003C94  2B56               	incf	___awdiv@counter& (0+255),f,b
  9396  003C96                     l3773:
  9397                           
  9398                           ; BSR set to: 1
  9399  003C96  AF55               	btfss	(___awdiv@divisor+1)& (0+255),7,b
  9400  003C98  EF50  F01E         	goto	u18841
  9401  003C9C  EF52  F01E         	goto	u18840
  9402  003CA0                     u18841:
  9403  003CA0  EF47  F01E         	goto	l3771
  9404  003CA4                     u18840:
  9405  003CA4                     l3775:
  9406                           
  9407                           ; BSR set to: 1
  9408  003CA4  90D8               	bcf	status,0,c
  9409  003CA6  3758               	rlcf	___awdiv@quotient& (0+255),f,b
  9410  003CA8  3759               	rlcf	(___awdiv@quotient+1)& (0+255),f,b
  9411  003CAA                     
  9412                           ; BSR set to: 1
  9413  003CAA  5154               	movf	___awdiv@divisor& (0+255),w,b
  9414  003CAC  5D52               	subwf	___awdiv@dividend& (0+255),w,b
  9415  003CAE  5155               	movf	(___awdiv@divisor+1)& (0+255),w,b
  9416  003CB0  5953               	subwfb	(___awdiv@dividend+1)& (0+255),w,b
  9417  003CB2  A0D8               	btfss	status,0,c
  9418  003CB4  EF5E  F01E         	goto	u18851
  9419  003CB8  EF60  F01E         	goto	u18850
  9420  003CBC                     u18851:
  9421  003CBC  EF65  F01E         	goto	l3783
  9422  003CC0                     u18850:
  9423  003CC0                     
  9424                           ; BSR set to: 1
  9425  003CC0  5154               	movf	___awdiv@divisor& (0+255),w,b
  9426  003CC2  5F52               	subwf	___awdiv@dividend& (0+255),f,b
  9427  003CC4  5155               	movf	(___awdiv@divisor+1)& (0+255),w,b
  9428  003CC6  5B53               	subwfb	(___awdiv@dividend+1)& (0+255),f,b
  9429  003CC8                     
  9430                           ; BSR set to: 1
  9431  003CC8  8158               	bsf	___awdiv@quotient& (0+255),0,b
  9432  003CCA                     l3783:
  9433                           
  9434                           ; BSR set to: 1
  9435  003CCA  90D8               	bcf	status,0,c
  9436  003CCC  3355               	rrcf	(___awdiv@divisor+1)& (0+255),f,b
  9437  003CCE  3354               	rrcf	___awdiv@divisor& (0+255),f,b
  9438  003CD0                     
  9439                           ; BSR set to: 1
  9440  003CD0  2F56               	decfsz	___awdiv@counter& (0+255),f,b
  9441  003CD2  EF52  F01E         	goto	l3775
  9442  003CD6                     l3787:
  9443                           
  9444                           ; BSR set to: 1
  9445  003CD6  5157               	movf	___awdiv@sign& (0+255),w,b
  9446  003CD8  B4D8               	btfsc	status,2,c
  9447  003CDA  EF71  F01E         	goto	u18861
  9448  003CDE  EF73  F01E         	goto	u18860
  9449  003CE2                     u18861:
  9450  003CE2  EF77  F01E         	goto	l3791
  9451  003CE6                     u18860:
  9452  003CE6                     
  9453                           ; BSR set to: 1
  9454  003CE6  6D58               	negf	___awdiv@quotient& (0+255),b
  9455  003CE8  1F59               	comf	(___awdiv@quotient+1)& (0+255),f,b
  9456  003CEA  B0D8               	btfsc	status,0,c
  9457  003CEC  2B59               	incf	(___awdiv@quotient+1)& (0+255),f,b
  9458  003CEE                     l3791:
  9459                           
  9460                           ; BSR set to: 1
  9461  003CEE  C158  F152         	movff	___awdiv@quotient,?___awdiv
  9462  003CF2  C159  F153         	movff	___awdiv@quotient+1,?___awdiv+1
  9463  003CF6                     
  9464                           ; BSR set to: 1
  9465  003CF6  0012               	return		;funcret
  9466  003CF8                     __end_of___awdiv:
  9467                           	opt callstack 0
  9468                           
  9469 ;; *************** function _UART_Initialize *****************
  9470 ;; Defined at:
  9471 ;;		line 10 in file "uart.c"
  9472 ;; Parameters:    Size  Location     Type
  9473 ;;		None
  9474 ;; Auto vars:     Size  Location     Type
  9475 ;;		None
  9476 ;; Return value:  Size  Location     Type
  9477 ;;                  1    wreg      void 
  9478 ;; Registers used:
  9479 ;;		wreg, status,2
  9480 ;; Tracked objects:
  9481 ;;		On entry : 0/0
  9482 ;;		On exit  : 0/0
  9483 ;;		Unchanged: 0/0
  9484 ;; Data sizes:     COMRAM   BANK0   BANK1   BANK2   BANK3   BANK4   BANK5
  9485 ;;      Params:         0       0       0       0       0       0       0
  9486 ;;      Locals:         0       0       0       0       0       0       0
  9487 ;;      Temps:          0       0       0       0       0       0       0
  9488 ;;      Totals:         0       0       0       0       0       0       0
  9489 ;;Total ram usage:        0 bytes
  9490 ;; Hardware stack levels used:    1
  9491 ;; Hardware stack levels required when called:    7
  9492 ;; This function calls:
  9493 ;;		Nothing
  9494 ;; This function is called by:
  9495 ;;		_main
  9496 ;; This function uses a non-reentrant model
  9497 ;;
  9498                           
  9499                           	psect	text25
  9500  004214                     __ptext25:
  9501                           	opt callstack 0
  9502  004214                     _UART_Initialize:
  9503                           	opt callstack 23
  9504  004214                     
  9505                           ;uart.c: 13:     TRISCbits.TRISC6 = 1;
  9506  004214  8C94               	bsf	148,6,c	;volatile
  9507                           
  9508                           ;uart.c: 14:     TRISCbits.TRISC7 = 1;
  9509  004216  8E94               	bsf	148,7,c	;volatile
  9510                           
  9511                           ;uart.c: 25:     TXSTAbits.SYNC = 0;
  9512  004218  98AC               	bcf	172,4,c	;volatile
  9513                           
  9514                           ;uart.c: 26:     BAUDCONbits.BRG16 = 0 ;
  9515  00421A  96B8               	bcf	184,3,c	;volatile
  9516                           
  9517                           ;uart.c: 27:     TXSTAbits.BRGH = 1;
  9518  00421C  84AC               	bsf	172,2,c	;volatile
  9519  00421E                     
  9520                           ;uart.c: 28:     SPBRG = 25;
  9521  00421E  0E19               	movlw	25
  9522  004220  6EAF               	movwf	175,c	;volatile
  9523  004222                     
  9524                           ;uart.c: 31:     RCSTAbits.SPEN = 1;
  9525  004222  8EAB               	bsf	171,7,c	;volatile
  9526  004224                     
  9527                           ;uart.c: 32:     PIR1bits.TXIF = 1;
  9528  004224  889E               	bsf	158,4,c	;volatile
  9529  004226                     
  9530                           ;uart.c: 33:     PIR1bits.RCIF = 0;
  9531  004226  9A9E               	bcf	158,5,c	;volatile
  9532  004228                     
  9533                           ;uart.c: 34:     TXSTAbits.TXEN = 1;
  9534  004228  8AAC               	bsf	172,5,c	;volatile
  9535  00422A                     
  9536                           ;uart.c: 35:     RCSTAbits.CREN = 1;
  9537  00422A  88AB               	bsf	171,4,c	;volatile
  9538  00422C                     
  9539                           ;uart.c: 37:     PIE1bits.TXIE = 0;
  9540  00422C  989D               	bcf	157,4,c	;volatile
  9541  00422E                     
  9542                           ;uart.c: 38:     IPR1bits.TXIP = 0;
  9543  00422E  989F               	bcf	159,4,c	;volatile
  9544  004230                     
  9545                           ;uart.c: 39:     PIE1bits.RCIE = 1;
  9546  004230  8A9D               	bsf	157,5,c	;volatile
  9547  004232                     
  9548                           ;uart.c: 40:     IPR1bits.RCIP = 0;
  9549  004232  9A9F               	bcf	159,5,c	;volatile
  9550  004234  0012               	return		;funcret
  9551  004236                     __end_of_UART_Initialize:
  9552                           	opt callstack 0
  9553                           
  9554 ;; *************** function _ADC_Read *****************
  9555 ;; Defined at:
  9556 ;;		line 196 in file "newmain.c"
  9557 ;; Parameters:    Size  Location     Type
  9558 ;;  channle         2    0[BANK1 ] int 
  9559 ;; Auto vars:     Size  Location     Type
  9560 ;;  digital         2    4[BANK1 ] volatile int 
  9561 ;; Return value:  Size  Location     Type
  9562 ;;                  2    0[BANK1 ] int 
  9563 ;; Registers used:
  9564 ;;		wreg, status,2, status,0
  9565 ;; Tracked objects:
  9566 ;;		On entry : 0/0
  9567 ;;		On exit  : 0/0
  9568 ;;		Unchanged: 0/0
  9569 ;; Data sizes:     COMRAM   BANK0   BANK1   BANK2   BANK3   BANK4   BANK5
  9570 ;;      Params:         0       0       2       0       0       0       0
  9571 ;;      Locals:         0       0       2       0       0       0       0
  9572 ;;      Temps:          0       0       2       0       0       0       0
  9573 ;;      Totals:         0       0       6       0       0       0       0
  9574 ;;Total ram usage:        6 bytes
  9575 ;; Hardware stack levels used:    1
  9576 ;; Hardware stack levels required when called:    7
  9577 ;; This function calls:
  9578 ;;		Nothing
  9579 ;; This function is called by:
  9580 ;;		_main
  9581 ;; This function uses a non-reentrant model
  9582 ;;
  9583                           
  9584                           	psect	text26
  9585  003EFA                     __ptext26:
  9586                           	opt callstack 0
  9587  003EFA                     _ADC_Read:
  9588                           	opt callstack 23
  9589  003EFA                     
  9590                           ;newmain.c: 196: int ADC_Read(int channle);newmain.c: 197: {;newmain.c: 198:     volatil
      +                          e int digital;;newmain.c: 199:     if(channle == 2)channle = 6;
  9591  003EFA  0E02               	movlw	2
  9592  003EFC  0101               	movlb	1	; () banked
  9593  003EFE  1952               	xorwf	ADC_Read@channle& (0+255),w,b
  9594  003F00  1153               	iorwf	(ADC_Read@channle+1)& (0+255),w,b
  9595  003F02  A4D8               	btfss	status,2,c
  9596  003F04  EF86  F01F         	goto	u18471
  9597  003F08  EF88  F01F         	goto	u18470
  9598  003F0C                     u18471:
  9599  003F0C  EF8C  F01F         	goto	l3531
  9600  003F10                     u18470:
  9601  003F10                     
  9602                           ; BSR set to: 1
  9603  003F10  0E00               	movlw	0
  9604  003F12  6F53               	movwf	(ADC_Read@channle+1)& (0+255),b
  9605  003F14  0E06               	movlw	6
  9606  003F16  6F52               	movwf	ADC_Read@channle& (0+255),b
  9607  003F18                     l3531:
  9608                           
  9609                           ; BSR set to: 1
  9610                           ;newmain.c: 200:     if(channle == 3)channle = 7;
  9611  003F18  0E03               	movlw	3
  9612  003F1A  1952               	xorwf	ADC_Read@channle& (0+255),w,b
  9613  003F1C  1153               	iorwf	(ADC_Read@channle+1)& (0+255),w,b
  9614  003F1E  A4D8               	btfss	status,2,c
  9615  003F20  EF94  F01F         	goto	u18481
  9616  003F24  EF96  F01F         	goto	u18480
  9617  003F28                     u18481:
  9618  003F28  EF9A  F01F         	goto	l3535
  9619  003F2C                     u18480:
  9620  003F2C                     
  9621                           ; BSR set to: 1
  9622  003F2C  0E00               	movlw	0
  9623  003F2E  6F53               	movwf	(ADC_Read@channle+1)& (0+255),b
  9624  003F30  0E07               	movlw	7
  9625  003F32  6F52               	movwf	ADC_Read@channle& (0+255),b
  9626  003F34                     l3535:
  9627                           
  9628                           ; BSR set to: 1
  9629                           ;newmain.c: 201:     ADCON0bits.CHS = channle;
  9630  003F34  C152  F154         	movff	ADC_Read@channle,??_ADC_Read
  9631  003F38  4754               	rlncf	??_ADC_Read& (0+255),f,b
  9632  003F3A  4754               	rlncf	??_ADC_Read& (0+255),f,b
  9633  003F3C  50C2               	movf	194,w,c	;volatile
  9634  003F3E  1954               	xorwf	??_ADC_Read& (0+255),w,b
  9635  003F40  0BC3               	andlw	-61
  9636  003F42  1954               	xorwf	??_ADC_Read& (0+255),w,b
  9637  003F44  6EC2               	movwf	194,c	;volatile
  9638  003F46                     
  9639                           ; BSR set to: 1
  9640                           ;newmain.c: 202:     ADCON0bits.GO = 1;
  9641  003F46  82C2               	bsf	194,1,c	;volatile
  9642  003F48                     
  9643                           ; BSR set to: 1
  9644                           ;newmain.c: 203:     ADCON0bits.ADON = 1;
  9645  003F48  80C2               	bsf	194,0,c	;volatile
  9646  003F4A                     l159:
  9647  003F4A  B2C2               	btfsc	194,1,c	;volatile
  9648  003F4C  EFAA  F01F         	goto	u18491
  9649  003F50  EFAC  F01F         	goto	u18490
  9650  003F54                     u18491:
  9651  003F54  EFA5  F01F         	goto	l159
  9652  003F58                     u18490:
  9653  003F58                     
  9654                           ;newmain.c: 207:     digital = (ADRESH*256) | (ADRESL);
  9655  003F58  50C3               	movf	195,w,c	;volatile
  9656  003F5A  CFC4 F154          	movff	4036,??_ADC_Read	;volatile
  9657  003F5E  0101               	movlb	1	; () banked
  9658  003F60  6B55               	clrf	(??_ADC_Read+1)& (0+255),b
  9659  003F62  C154  F155         	movff	??_ADC_Read,??_ADC_Read+1
  9660  003F66  6B54               	clrf	??_ADC_Read& (0+255),b
  9661  003F68  1154               	iorwf	??_ADC_Read& (0+255),w,b
  9662  003F6A  6F56               	movwf	ADC_Read@digital& (0+255),b	;volatile
  9663  003F6C  5155               	movf	(??_ADC_Read+1)& (0+255),w,b
  9664  003F6E  6F57               	movwf	(ADC_Read@digital+1)& (0+255),b	;volatile
  9665  003F70                     
  9666                           ; BSR set to: 1
  9667                           ;newmain.c: 208:     return(digital);
  9668  003F70  C156  F152         	movff	ADC_Read@digital,?_ADC_Read	;volatile
  9669  003F74  C157  F153         	movff	ADC_Read@digital+1,?_ADC_Read+1	;volatile
  9670  003F78                     
  9671                           ; BSR set to: 1
  9672  003F78  0012               	return		;funcret
  9673  003F7A                     __end_of_ADC_Read:
  9674                           	opt callstack 0
  9675                           
  9676 ;; *************** function _ADC_Initialize *****************
  9677 ;; Defined at:
  9678 ;;		line 186 in file "newmain.c"
  9679 ;; Parameters:    Size  Location     Type
  9680 ;;		None
  9681 ;; Auto vars:     Size  Location     Type
  9682 ;;		None
  9683 ;; Return value:  Size  Location     Type
  9684 ;;                  1    wreg      void 
  9685 ;; Registers used:
  9686 ;;		wreg, status,2
  9687 ;; Tracked objects:
  9688 ;;		On entry : 0/0
  9689 ;;		On exit  : 0/0
  9690 ;;		Unchanged: 0/0
  9691 ;; Data sizes:     COMRAM   BANK0   BANK1   BANK2   BANK3   BANK4   BANK5
  9692 ;;      Params:         0       0       0       0       0       0       0
  9693 ;;      Locals:         0       0       0       0       0       0       0
  9694 ;;      Temps:          0       0       0       0       0       0       0
  9695 ;;      Totals:         0       0       0       0       0       0       0
  9696 ;;Total ram usage:        0 bytes
  9697 ;; Hardware stack levels used:    1
  9698 ;; Hardware stack levels required when called:    7
  9699 ;; This function calls:
  9700 ;;		Nothing
  9701 ;; This function is called by:
  9702 ;;		_main
  9703 ;; This function uses a non-reentrant model
  9704 ;;
  9705                           
  9706                           	psect	text27
  9707  004236                     __ptext27:
  9708                           	opt callstack 0
  9709  004236                     _ADC_Initialize:
  9710                           	opt callstack 23
  9711  004236                     
  9712                           ;newmain.c: 188:     TRISA = 0xff;
  9713  004236  6892               	setf	146,c	;volatile
  9714  004238                     
  9715                           ;newmain.c: 189:     ADCON1 = 0x00;
  9716  004238  0E00               	movlw	0
  9717  00423A  6EC1               	movwf	193,c	;volatile
  9718                           
  9719                           ;newmain.c: 190:     ADCON2 = 0x90;
  9720  00423C  0E90               	movlw	144
  9721  00423E  6EC0               	movwf	192,c	;volatile
  9722  004240                     
  9723                           ;newmain.c: 191:     ADFM = 1 ;
  9724  004240  8EC0               	bsf	4032,7,c	;volatile
  9725                           
  9726                           ;newmain.c: 192:     ADCON2bits.ADCS = 0;
  9727  004242  0EF8               	movlw	-8
  9728  004244  16C0               	andwf	192,f,c	;volatile
  9729                           
  9730                           ;newmain.c: 193:     ADRESH=0;
  9731  004246  0E00               	movlw	0
  9732  004248  6EC4               	movwf	196,c	;volatile
  9733                           
  9734                           ;newmain.c: 194:     ADRESL=0;
  9735  00424A  0E00               	movlw	0
  9736  00424C  6EC3               	movwf	195,c	;volatile
  9737  00424E  0012               	return		;funcret
  9738  004250                     __end_of_ADC_Initialize:
  9739                           	opt callstack 0
  9740                           
  9741 ;; *************** function _isr *****************
  9742 ;; Defined at:
  9743 ;;		line 88 in file "newmain.c"
  9744 ;; Parameters:    Size  Location     Type
  9745 ;;		None
  9746 ;; Auto vars:     Size  Location     Type
  9747 ;;  str            50    0[BANK0 ] unsigned char [50]
  9748 ;;  k               2   53[BANK0 ] int 
  9749 ;;  i               2   55[BANK0 ] int 
  9750 ;;  check           2   50[BANK0 ] int 
  9751 ;;  temp            1   52[BANK0 ] struct RGB
  9752 ;; Return value:  Size  Location     Type
  9753 ;;                  1    wreg      void 
  9754 ;; Registers used:
  9755 ;;		wreg, fsr1l, fsr1h, fsr2l, fsr2h, status,2, status,0, tblptrl, tblptrh, tblptru, cstack
  9756 ;; Tracked objects:
  9757 ;;		On entry : 0/0
  9758 ;;		On exit  : 0/0
  9759 ;;		Unchanged: 0/0
  9760 ;; Data sizes:     COMRAM   BANK0   BANK1   BANK2   BANK3   BANK4   BANK5
  9761 ;;      Params:         0       0       0       0       0       0       0
  9762 ;;      Locals:         0      57       0       0       0       0       0
  9763 ;;      Temps:          9       0       0       0       0       0       0
  9764 ;;      Totals:         9      57       0       0       0       0       0
  9765 ;;Total ram usage:       66 bytes
  9766 ;; Hardware stack levels used:    1
  9767 ;; Hardware stack levels required when called:    6
  9768 ;; This function calls:
  9769 ;;		_ClearBuffer
  9770 ;;		_MyusartRead
  9771 ;;		_UART_Write_Text
  9772 ;;		_sprintf
  9773 ;;		_strcmp
  9774 ;; This function is called by:
  9775 ;;		Interrupt level 2
  9776 ;; This function uses a non-reentrant model
  9777 ;;
  9778                           
  9779                           	psect	intcode
  9780  000008                     __pintcode:
  9781                           	opt callstack 0
  9782  000008                     _isr:
  9783                           	opt callstack 21
  9784                           
  9785                           ;incstack = 0
  9786  000008  826E               	bsf	int$flags,1,c	;set compiler interrupt flag (level 2)
  9787  00000A  ED15  F003         	call	int_func,f	;refresh shadow registers
  9788                           
  9789                           	psect	intcode_body
  9790  00062A                     __pintcode_body:
  9791                           	opt callstack 21
  9792  00062A                     int_func:
  9793                           	opt callstack 21
  9794  00062A  0006               	pop		; remove dummy address from shadow register refresh
  9795  00062C  CFE1 F043          	movff	fsr1l,??_isr+1
  9796  000630  CFE2 F044          	movff	fsr1h,??_isr+2
  9797  000634  CFD9 F045          	movff	fsr2l,??_isr+3
  9798  000638  CFDA F046          	movff	fsr2h,??_isr+4
  9799  00063C  CFF6 F047          	movff	tblptrl,??_isr+5
  9800  000640  CFF7 F048          	movff	tblptrh,??_isr+6
  9801  000644  CFF8 F049          	movff	tblptru,??_isr+7
  9802  000648  CFF5 F04A          	movff	tablat,??_isr+8
  9803  00064C                     
  9804                           ;newmain.c: 90:     if(PIR1bits.TMR2IF == 1){
  9805  00064C  A29E               	btfss	158,1,c	;volatile
  9806  00064E  EF2B  F003         	goto	i2u1219_41
  9807  000652  EF2D  F003         	goto	i2u1219_40
  9808  000656                     i2u1219_41:
  9809  000656  EFE6  F007         	goto	i2l151
  9810  00065A                     i2u1219_40:
  9811  00065A                     
  9812                           ;newmain.c: 92:         if(need_to_check == 1){
  9813  00065A  0100               	movlb	0	; () banked
  9814  00065C  05DD               	decf	_need_to_check& (0+255),w,b
  9815  00065E  11DE               	iorwf	(_need_to_check+1)& (0+255),w,b
  9816  000660  A4D8               	btfss	status,2,c
  9817  000662  EF35  F003         	goto	i2u1220_41
  9818  000666  EF37  F003         	goto	i2u1220_40
  9819  00066A                     i2u1220_41:
  9820  00066A  EF37  F006         	goto	i2l3027
  9821  00066E                     i2u1220_40:
  9822  00066E                     
  9823                           ; BSR set to: 0
  9824                           ;newmain.c: 93:             int i,check = 0;
  9825  00066E  0E00               	movlw	0
  9826  000670  6FB3               	movwf	(isr@check+1)& (0+255),b
  9827  000672  0E00               	movlw	0
  9828  000674  6FB2               	movwf	isr@check& (0+255),b
  9829  000676                     
  9830                           ; BSR set to: 0
  9831                           ;newmain.c: 94:             rgbarray temp = rgb[0];
  9832  000676  C0B9  F0B4         	movff	_rgb,isr@temp	;volatile
  9833                           
  9834                           ;newmain.c: 95:             for(i = 1;i < 4;i++){
  9835  00067A  0E00               	movlw	0
  9836  00067C  6FB8               	movwf	(isr@i+1)& (0+255),b
  9837  00067E  0E01               	movlw	1
  9838  000680  6FB7               	movwf	isr@i& (0+255),b
  9839  000682                     i2l2919:
  9840                           
  9841                           ; BSR set to: 0
  9842                           ;newmain.c: 96:                 if(temp.r != rgb[i].r ||temp.g != rgb[i].g || temp.b != 
      +                          rgb[i].b){
  9843  000682  0EB9               	movlw	low _rgb
  9844  000684  25B7               	addwf	isr@i& (0+255),w,b
  9845  000686  6ED9               	movwf	fsr2l,c
  9846  000688  0E00               	movlw	high _rgb
  9847  00068A  21B8               	addwfc	(isr@i+1)& (0+255),w,b
  9848  00068C  6EDA               	movwf	fsr2h,c
  9849  00068E  B0DF               	btfsc	indf2,0,c
  9850  000690  EF4C  F003         	goto	i2u1221_41
  9851  000694  EF4F  F003         	goto	i2u1221_40
  9852  000698                     i2u1221_41:
  9853  000698  0E01               	movlw	1
  9854  00069A  EF50  F003         	goto	i2u1221_42
  9855  00069E                     i2u1221_40:
  9856  00069E  0E00               	movlw	0
  9857  0006A0                     i2u1221_42:
  9858  0006A0  6E42               	movwf	??_isr^0,c
  9859  0006A2  B1B4               	btfsc	isr@temp& (0+255),0,b
  9860  0006A4  EF56  F003         	goto	i2u1222_41
  9861  0006A8  EF59  F003         	goto	i2u1222_40
  9862  0006AC                     i2u1222_41:
  9863  0006AC  0E01               	movlw	1
  9864  0006AE  EF5A  F003         	goto	i2u1222_42
  9865  0006B2                     i2u1222_40:
  9866  0006B2  0E00               	movlw	0
  9867  0006B4                     i2u1222_42:
  9868  0006B4  1A42               	xorwf	??_isr^0,f,c
  9869  0006B6  A4D8               	btfss	status,2,c
  9870  0006B8  EF60  F003         	goto	i2u1223_41
  9871  0006BC  EF62  F003         	goto	i2u1223_40
  9872  0006C0                     i2u1223_41:
  9873  0006C0  EFA4  F003         	goto	i2l2925
  9874  0006C4                     i2u1223_40:
  9875  0006C4                     
  9876                           ; BSR set to: 0
  9877  0006C4  0EB9               	movlw	low _rgb
  9878  0006C6  25B7               	addwf	isr@i& (0+255),w,b
  9879  0006C8  6ED9               	movwf	fsr2l,c
  9880  0006CA  0E00               	movlw	high _rgb
  9881  0006CC  21B8               	addwfc	(isr@i+1)& (0+255),w,b
  9882  0006CE  6EDA               	movwf	fsr2h,c
  9883  0006D0  B2DF               	btfsc	indf2,1,c
  9884  0006D2  EF6D  F003         	goto	i2u1224_41
  9885  0006D6  EF70  F003         	goto	i2u1224_40
  9886  0006DA                     i2u1224_41:
  9887  0006DA  0E01               	movlw	1
  9888  0006DC  EF71  F003         	goto	i2u1224_42
  9889  0006E0                     i2u1224_40:
  9890  0006E0  0E00               	movlw	0
  9891  0006E2                     i2u1224_42:
  9892  0006E2  6E42               	movwf	??_isr^0,c
  9893  0006E4  B3B4               	btfsc	isr@temp& (0+255),1,b
  9894  0006E6  EF77  F003         	goto	i2u1225_41
  9895  0006EA  EF7A  F003         	goto	i2u1225_40
  9896  0006EE                     i2u1225_41:
  9897  0006EE  0E01               	movlw	1
  9898  0006F0  EF7B  F003         	goto	i2u1225_42
  9899  0006F4                     i2u1225_40:
  9900  0006F4  0E00               	movlw	0
  9901  0006F6                     i2u1225_42:
  9902  0006F6  1A42               	xorwf	??_isr^0,f,c
  9903  0006F8  A4D8               	btfss	status,2,c
  9904  0006FA  EF81  F003         	goto	i2u1226_41
  9905  0006FE  EF83  F003         	goto	i2u1226_40
  9906  000702                     i2u1226_41:
  9907  000702  EFA4  F003         	goto	i2l2925
  9908  000706                     i2u1226_40:
  9909  000706                     
  9910                           ; BSR set to: 0
  9911  000706  0EB9               	movlw	low _rgb
  9912  000708  25B7               	addwf	isr@i& (0+255),w,b
  9913  00070A  6ED9               	movwf	fsr2l,c
  9914  00070C  0E00               	movlw	high _rgb
  9915  00070E  21B8               	addwfc	(isr@i+1)& (0+255),w,b
  9916  000710  6EDA               	movwf	fsr2h,c
  9917  000712  B4DF               	btfsc	indf2,2,c
  9918  000714  EF8E  F003         	goto	i2u1227_41
  9919  000718  EF91  F003         	goto	i2u1227_40
  9920  00071C                     i2u1227_41:
  9921  00071C  0E01               	movlw	1
  9922  00071E  EF92  F003         	goto	i2u1227_42
  9923  000722                     i2u1227_40:
  9924  000722  0E00               	movlw	0
  9925  000724                     i2u1227_42:
  9926  000724  6E42               	movwf	??_isr^0,c
  9927  000726  B5B4               	btfsc	isr@temp& (0+255),2,b
  9928  000728  EF98  F003         	goto	i2u1228_41
  9929  00072C  EF9B  F003         	goto	i2u1228_40
  9930  000730                     i2u1228_41:
  9931  000730  0E01               	movlw	1
  9932  000732  EF9C  F003         	goto	i2u1228_42
  9933  000736                     i2u1228_40:
  9934  000736  0E00               	movlw	0
  9935  000738                     i2u1228_42:
  9936  000738  1A42               	xorwf	??_isr^0,f,c
  9937  00073A  B4D8               	btfsc	status,2,c
  9938  00073C  EFA2  F003         	goto	i2u1229_41
  9939  000740  EFA4  F003         	goto	i2u1229_40
  9940  000744                     i2u1229_41:
  9941  000744  EFA8  F003         	goto	i2l2927
  9942  000748                     i2u1229_40:
  9943  000748                     i2l2925:
  9944                           
  9945                           ; BSR set to: 0
  9946                           ;newmain.c: 97:                     check = 1;
  9947  000748  0E00               	movlw	0
  9948  00074A  6FB3               	movwf	(isr@check+1)& (0+255),b
  9949  00074C  0E01               	movlw	1
  9950  00074E  6FB2               	movwf	isr@check& (0+255),b
  9951  000750                     i2l2927:
  9952                           
  9953                           ; BSR set to: 0
  9954                           ;newmain.c: 100:             }
  9955  000750  4BB7               	infsnz	isr@i& (0+255),f,b
  9956  000752  2BB8               	incf	(isr@i+1)& (0+255),f,b
  9957  000754                     
  9958                           ; BSR set to: 0
  9959  000754  BFB8               	btfsc	(isr@i+1)& (0+255),7,b
  9960  000756  EFB6  F003         	goto	i2u1230_41
  9961  00075A  51B8               	movf	(isr@i+1)& (0+255),w,b
  9962  00075C  E109               	bnz	i2u1230_40
  9963  00075E  0E04               	movlw	4
  9964  000760  5DB7               	subwf	isr@i& (0+255),w,b
  9965  000762  A0D8               	btfss	status,0,c
  9966  000764  EFB6  F003         	goto	i2u1230_41
  9967  000768  EFB8  F003         	goto	i2u1230_40
  9968  00076C                     i2u1230_41:
  9969  00076C  EF41  F003         	goto	i2l2919
  9970  000770                     i2u1230_40:
  9971  000770                     
  9972                           ; BSR set to: 0
  9973                           ;newmain.c: 101:             temp = rgb[4];
  9974  000770  C0BD  F0B4         	movff	_rgb+4,isr@temp	;volatile
  9975  000774                     
  9976                           ; BSR set to: 0
  9977                           ;newmain.c: 102:             for(i = 5;i < 8;i++){
  9978  000774  0E00               	movlw	0
  9979  000776  6FB8               	movwf	(isr@i+1)& (0+255),b
  9980  000778  0E05               	movlw	5
  9981  00077A  6FB7               	movwf	isr@i& (0+255),b
  9982  00077C                     i2l2937:
  9983                           
  9984                           ; BSR set to: 0
  9985                           ;newmain.c: 103:                 if(temp.r != rgb[i].r ||temp.g != rgb[i].g || temp.b !=
      +                           rgb[i].b){
  9986  00077C  0EB9               	movlw	low _rgb
  9987  00077E  25B7               	addwf	isr@i& (0+255),w,b
  9988  000780  6ED9               	movwf	fsr2l,c
  9989  000782  0E00               	movlw	high _rgb
  9990  000784  21B8               	addwfc	(isr@i+1)& (0+255),w,b
  9991  000786  6EDA               	movwf	fsr2h,c
  9992  000788  B0DF               	btfsc	indf2,0,c
  9993  00078A  EFC9  F003         	goto	i2u1231_41
  9994  00078E  EFCC  F003         	goto	i2u1231_40
  9995  000792                     i2u1231_41:
  9996  000792  0E01               	movlw	1
  9997  000794  EFCD  F003         	goto	i2u1231_42
  9998  000798                     i2u1231_40:
  9999  000798  0E00               	movlw	0
 10000  00079A                     i2u1231_42:
 10001  00079A  6E42               	movwf	??_isr^0,c
 10002  00079C  B1B4               	btfsc	isr@temp& (0+255),0,b
 10003  00079E  EFD3  F003         	goto	i2u1232_41
 10004  0007A2  EFD6  F003         	goto	i2u1232_40
 10005  0007A6                     i2u1232_41:
 10006  0007A6  0E01               	movlw	1
 10007  0007A8  EFD7  F003         	goto	i2u1232_42
 10008  0007AC                     i2u1232_40:
 10009  0007AC  0E00               	movlw	0
 10010  0007AE                     i2u1232_42:
 10011  0007AE  1A42               	xorwf	??_isr^0,f,c
 10012  0007B0  A4D8               	btfss	status,2,c
 10013  0007B2  EFDD  F003         	goto	i2u1233_41
 10014  0007B6  EFDF  F003         	goto	i2u1233_40
 10015  0007BA                     i2u1233_41:
 10016  0007BA  EF21  F004         	goto	i2l2943
 10017  0007BE                     i2u1233_40:
 10018  0007BE                     
 10019                           ; BSR set to: 0
 10020  0007BE  0EB9               	movlw	low _rgb
 10021  0007C0  25B7               	addwf	isr@i& (0+255),w,b
 10022  0007C2  6ED9               	movwf	fsr2l,c
 10023  0007C4  0E00               	movlw	high _rgb
 10024  0007C6  21B8               	addwfc	(isr@i+1)& (0+255),w,b
 10025  0007C8  6EDA               	movwf	fsr2h,c
 10026  0007CA  B2DF               	btfsc	indf2,1,c
 10027  0007CC  EFEA  F003         	goto	i2u1234_41
 10028  0007D0  EFED  F003         	goto	i2u1234_40
 10029  0007D4                     i2u1234_41:
 10030  0007D4  0E01               	movlw	1
 10031  0007D6  EFEE  F003         	goto	i2u1234_42
 10032  0007DA                     i2u1234_40:
 10033  0007DA  0E00               	movlw	0
 10034  0007DC                     i2u1234_42:
 10035  0007DC  6E42               	movwf	??_isr^0,c
 10036  0007DE  B3B4               	btfsc	isr@temp& (0+255),1,b
 10037  0007E0  EFF4  F003         	goto	i2u1235_41
 10038  0007E4  EFF7  F003         	goto	i2u1235_40
 10039  0007E8                     i2u1235_41:
 10040  0007E8  0E01               	movlw	1
 10041  0007EA  EFF8  F003         	goto	i2u1235_42
 10042  0007EE                     i2u1235_40:
 10043  0007EE  0E00               	movlw	0
 10044  0007F0                     i2u1235_42:
 10045  0007F0  1A42               	xorwf	??_isr^0,f,c
 10046  0007F2  A4D8               	btfss	status,2,c
 10047  0007F4  EFFE  F003         	goto	i2u1236_41
 10048  0007F8  EF00  F004         	goto	i2u1236_40
 10049  0007FC                     i2u1236_41:
 10050  0007FC  EF21  F004         	goto	i2l2943
 10051  000800                     i2u1236_40:
 10052  000800                     
 10053                           ; BSR set to: 0
 10054  000800  0EB9               	movlw	low _rgb
 10055  000802  25B7               	addwf	isr@i& (0+255),w,b
 10056  000804  6ED9               	movwf	fsr2l,c
 10057  000806  0E00               	movlw	high _rgb
 10058  000808  21B8               	addwfc	(isr@i+1)& (0+255),w,b
 10059  00080A  6EDA               	movwf	fsr2h,c
 10060  00080C  B4DF               	btfsc	indf2,2,c
 10061  00080E  EF0B  F004         	goto	i2u1237_41
 10062  000812  EF0E  F004         	goto	i2u1237_40
 10063  000816                     i2u1237_41:
 10064  000816  0E01               	movlw	1
 10065  000818  EF0F  F004         	goto	i2u1237_42
 10066  00081C                     i2u1237_40:
 10067  00081C  0E00               	movlw	0
 10068  00081E                     i2u1237_42:
 10069  00081E  6E42               	movwf	??_isr^0,c
 10070  000820  B5B4               	btfsc	isr@temp& (0+255),2,b
 10071  000822  EF15  F004         	goto	i2u1238_41
 10072  000826  EF18  F004         	goto	i2u1238_40
 10073  00082A                     i2u1238_41:
 10074  00082A  0E01               	movlw	1
 10075  00082C  EF19  F004         	goto	i2u1238_42
 10076  000830                     i2u1238_40:
 10077  000830  0E00               	movlw	0
 10078  000832                     i2u1238_42:
 10079  000832  1A42               	xorwf	??_isr^0,f,c
 10080  000834  B4D8               	btfsc	status,2,c
 10081  000836  EF1F  F004         	goto	i2u1239_41
 10082  00083A  EF21  F004         	goto	i2u1239_40
 10083  00083E                     i2u1239_41:
 10084  00083E  EF25  F004         	goto	i2l2945
 10085  000842                     i2u1239_40:
 10086  000842                     i2l2943:
 10087                           
 10088                           ; BSR set to: 0
 10089                           ;newmain.c: 104:                     check = 1;
 10090  000842  0E00               	movlw	0
 10091  000844  6FB3               	movwf	(isr@check+1)& (0+255),b
 10092  000846  0E01               	movlw	1
 10093  000848  6FB2               	movwf	isr@check& (0+255),b
 10094  00084A                     i2l2945:
 10095                           
 10096                           ; BSR set to: 0
 10097                           ;newmain.c: 107:             }
 10098  00084A  4BB7               	infsnz	isr@i& (0+255),f,b
 10099  00084C  2BB8               	incf	(isr@i+1)& (0+255),f,b
 10100  00084E                     
 10101                           ; BSR set to: 0
 10102  00084E  BFB8               	btfsc	(isr@i+1)& (0+255),7,b
 10103  000850  EF33  F004         	goto	i2u1240_41
 10104  000854  51B8               	movf	(isr@i+1)& (0+255),w,b
 10105  000856  E109               	bnz	i2u1240_40
 10106  000858  0E08               	movlw	8
 10107  00085A  5DB7               	subwf	isr@i& (0+255),w,b
 10108  00085C  A0D8               	btfss	status,0,c
 10109  00085E  EF33  F004         	goto	i2u1240_41
 10110  000862  EF35  F004         	goto	i2u1240_40
 10111  000866                     i2u1240_41:
 10112  000866  EFBE  F003         	goto	i2l2937
 10113  00086A                     i2u1240_40:
 10114  00086A                     
 10115                           ; BSR set to: 0
 10116                           ;newmain.c: 108:             temp = rgb[8];
 10117  00086A  C0C1  F0B4         	movff	_rgb+8,isr@temp	;volatile
 10118  00086E                     
 10119                           ; BSR set to: 0
 10120                           ;newmain.c: 109:             for(i = 9;i < 12;i++){
 10121  00086E  0E00               	movlw	0
 10122  000870  6FB8               	movwf	(isr@i+1)& (0+255),b
 10123  000872  0E09               	movlw	9
 10124  000874  6FB7               	movwf	isr@i& (0+255),b
 10125  000876                     i2l2955:
 10126                           
 10127                           ; BSR set to: 0
 10128                           ;newmain.c: 110:                 if(temp.r != rgb[i].r ||temp.g != rgb[i].g || temp.b !=
      +                           rgb[i].b){
 10129  000876  0EB9               	movlw	low _rgb
 10130  000878  25B7               	addwf	isr@i& (0+255),w,b
 10131  00087A  6ED9               	movwf	fsr2l,c
 10132  00087C  0E00               	movlw	high _rgb
 10133  00087E  21B8               	addwfc	(isr@i+1)& (0+255),w,b
 10134  000880  6EDA               	movwf	fsr2h,c
 10135  000882  B0DF               	btfsc	indf2,0,c
 10136  000884  EF46  F004         	goto	i2u1241_41
 10137  000888  EF49  F004         	goto	i2u1241_40
 10138  00088C                     i2u1241_41:
 10139  00088C  0E01               	movlw	1
 10140  00088E  EF4A  F004         	goto	i2u1241_42
 10141  000892                     i2u1241_40:
 10142  000892  0E00               	movlw	0
 10143  000894                     i2u1241_42:
 10144  000894  6E42               	movwf	??_isr^0,c
 10145  000896  B1B4               	btfsc	isr@temp& (0+255),0,b
 10146  000898  EF50  F004         	goto	i2u1242_41
 10147  00089C  EF53  F004         	goto	i2u1242_40
 10148  0008A0                     i2u1242_41:
 10149  0008A0  0E01               	movlw	1
 10150  0008A2  EF54  F004         	goto	i2u1242_42
 10151  0008A6                     i2u1242_40:
 10152  0008A6  0E00               	movlw	0
 10153  0008A8                     i2u1242_42:
 10154  0008A8  1A42               	xorwf	??_isr^0,f,c
 10155  0008AA  A4D8               	btfss	status,2,c
 10156  0008AC  EF5A  F004         	goto	i2u1243_41
 10157  0008B0  EF5C  F004         	goto	i2u1243_40
 10158  0008B4                     i2u1243_41:
 10159  0008B4  EF9E  F004         	goto	i2l2961
 10160  0008B8                     i2u1243_40:
 10161  0008B8                     
 10162                           ; BSR set to: 0
 10163  0008B8  0EB9               	movlw	low _rgb
 10164  0008BA  25B7               	addwf	isr@i& (0+255),w,b
 10165  0008BC  6ED9               	movwf	fsr2l,c
 10166  0008BE  0E00               	movlw	high _rgb
 10167  0008C0  21B8               	addwfc	(isr@i+1)& (0+255),w,b
 10168  0008C2  6EDA               	movwf	fsr2h,c
 10169  0008C4  B2DF               	btfsc	indf2,1,c
 10170  0008C6  EF67  F004         	goto	i2u1244_41
 10171  0008CA  EF6A  F004         	goto	i2u1244_40
 10172  0008CE                     i2u1244_41:
 10173  0008CE  0E01               	movlw	1
 10174  0008D0  EF6B  F004         	goto	i2u1244_42
 10175  0008D4                     i2u1244_40:
 10176  0008D4  0E00               	movlw	0
 10177  0008D6                     i2u1244_42:
 10178  0008D6  6E42               	movwf	??_isr^0,c
 10179  0008D8  B3B4               	btfsc	isr@temp& (0+255),1,b
 10180  0008DA  EF71  F004         	goto	i2u1245_41
 10181  0008DE  EF74  F004         	goto	i2u1245_40
 10182  0008E2                     i2u1245_41:
 10183  0008E2  0E01               	movlw	1
 10184  0008E4  EF75  F004         	goto	i2u1245_42
 10185  0008E8                     i2u1245_40:
 10186  0008E8  0E00               	movlw	0
 10187  0008EA                     i2u1245_42:
 10188  0008EA  1A42               	xorwf	??_isr^0,f,c
 10189  0008EC  A4D8               	btfss	status,2,c
 10190  0008EE  EF7B  F004         	goto	i2u1246_41
 10191  0008F2  EF7D  F004         	goto	i2u1246_40
 10192  0008F6                     i2u1246_41:
 10193  0008F6  EF9E  F004         	goto	i2l2961
 10194  0008FA                     i2u1246_40:
 10195  0008FA                     
 10196                           ; BSR set to: 0
 10197  0008FA  0EB9               	movlw	low _rgb
 10198  0008FC  25B7               	addwf	isr@i& (0+255),w,b
 10199  0008FE  6ED9               	movwf	fsr2l,c
 10200  000900  0E00               	movlw	high _rgb
 10201  000902  21B8               	addwfc	(isr@i+1)& (0+255),w,b
 10202  000904  6EDA               	movwf	fsr2h,c
 10203  000906  B4DF               	btfsc	indf2,2,c
 10204  000908  EF88  F004         	goto	i2u1247_41
 10205  00090C  EF8B  F004         	goto	i2u1247_40
 10206  000910                     i2u1247_41:
 10207  000910  0E01               	movlw	1
 10208  000912  EF8C  F004         	goto	i2u1247_42
 10209  000916                     i2u1247_40:
 10210  000916  0E00               	movlw	0
 10211  000918                     i2u1247_42:
 10212  000918  6E42               	movwf	??_isr^0,c
 10213  00091A  B5B4               	btfsc	isr@temp& (0+255),2,b
 10214  00091C  EF92  F004         	goto	i2u1248_41
 10215  000920  EF95  F004         	goto	i2u1248_40
 10216  000924                     i2u1248_41:
 10217  000924  0E01               	movlw	1
 10218  000926  EF96  F004         	goto	i2u1248_42
 10219  00092A                     i2u1248_40:
 10220  00092A  0E00               	movlw	0
 10221  00092C                     i2u1248_42:
 10222  00092C  1A42               	xorwf	??_isr^0,f,c
 10223  00092E  B4D8               	btfsc	status,2,c
 10224  000930  EF9C  F004         	goto	i2u1249_41
 10225  000934  EF9E  F004         	goto	i2u1249_40
 10226  000938                     i2u1249_41:
 10227  000938  EFA2  F004         	goto	i2l2963
 10228  00093C                     i2u1249_40:
 10229  00093C                     i2l2961:
 10230                           
 10231                           ; BSR set to: 0
 10232                           ;newmain.c: 111:                     check = 1;
 10233  00093C  0E00               	movlw	0
 10234  00093E  6FB3               	movwf	(isr@check+1)& (0+255),b
 10235  000940  0E01               	movlw	1
 10236  000942  6FB2               	movwf	isr@check& (0+255),b
 10237  000944                     i2l2963:
 10238                           
 10239                           ; BSR set to: 0
 10240                           ;newmain.c: 114:             }
 10241  000944  4BB7               	infsnz	isr@i& (0+255),f,b
 10242  000946  2BB8               	incf	(isr@i+1)& (0+255),f,b
 10243  000948                     
 10244                           ; BSR set to: 0
 10245  000948  BFB8               	btfsc	(isr@i+1)& (0+255),7,b
 10246  00094A  EFB0  F004         	goto	i2u1250_41
 10247  00094E  51B8               	movf	(isr@i+1)& (0+255),w,b
 10248  000950  E109               	bnz	i2u1250_40
 10249  000952  0E0C               	movlw	12
 10250  000954  5DB7               	subwf	isr@i& (0+255),w,b
 10251  000956  A0D8               	btfss	status,0,c
 10252  000958  EFB0  F004         	goto	i2u1250_41
 10253  00095C  EFB2  F004         	goto	i2u1250_40
 10254  000960                     i2u1250_41:
 10255  000960  EF3B  F004         	goto	i2l2955
 10256  000964                     i2u1250_40:
 10257  000964                     
 10258                           ; BSR set to: 0
 10259                           ;newmain.c: 115:             temp = rgb[12];
 10260  000964  C0C5  F0B4         	movff	_rgb+12,isr@temp	;volatile
 10261  000968                     
 10262                           ; BSR set to: 0
 10263                           ;newmain.c: 116:             for(i = 13;i < 16;i++){
 10264  000968  0E00               	movlw	0
 10265  00096A  6FB8               	movwf	(isr@i+1)& (0+255),b
 10266  00096C  0E0D               	movlw	13
 10267  00096E  6FB7               	movwf	isr@i& (0+255),b
 10268  000970                     i2l2973:
 10269                           
 10270                           ; BSR set to: 0
 10271                           ;newmain.c: 117:                 if(temp.r != rgb[i].r ||temp.g != rgb[i].g || temp.b !=
      +                           rgb[i].b){
 10272  000970  0EB9               	movlw	low _rgb
 10273  000972  25B7               	addwf	isr@i& (0+255),w,b
 10274  000974  6ED9               	movwf	fsr2l,c
 10275  000976  0E00               	movlw	high _rgb
 10276  000978  21B8               	addwfc	(isr@i+1)& (0+255),w,b
 10277  00097A  6EDA               	movwf	fsr2h,c
 10278  00097C  B0DF               	btfsc	indf2,0,c
 10279  00097E  EFC3  F004         	goto	i2u1251_41
 10280  000982  EFC6  F004         	goto	i2u1251_40
 10281  000986                     i2u1251_41:
 10282  000986  0E01               	movlw	1
 10283  000988  EFC7  F004         	goto	i2u1251_42
 10284  00098C                     i2u1251_40:
 10285  00098C  0E00               	movlw	0
 10286  00098E                     i2u1251_42:
 10287  00098E  6E42               	movwf	??_isr^0,c
 10288  000990  B1B4               	btfsc	isr@temp& (0+255),0,b
 10289  000992  EFCD  F004         	goto	i2u1252_41
 10290  000996  EFD0  F004         	goto	i2u1252_40
 10291  00099A                     i2u1252_41:
 10292  00099A  0E01               	movlw	1
 10293  00099C  EFD1  F004         	goto	i2u1252_42
 10294  0009A0                     i2u1252_40:
 10295  0009A0  0E00               	movlw	0
 10296  0009A2                     i2u1252_42:
 10297  0009A2  1A42               	xorwf	??_isr^0,f,c
 10298  0009A4  A4D8               	btfss	status,2,c
 10299  0009A6  EFD7  F004         	goto	i2u1253_41
 10300  0009AA  EFD9  F004         	goto	i2u1253_40
 10301  0009AE                     i2u1253_41:
 10302  0009AE  EF1B  F005         	goto	i2l2979
 10303  0009B2                     i2u1253_40:
 10304  0009B2                     
 10305                           ; BSR set to: 0
 10306  0009B2  0EB9               	movlw	low _rgb
 10307  0009B4  25B7               	addwf	isr@i& (0+255),w,b
 10308  0009B6  6ED9               	movwf	fsr2l,c
 10309  0009B8  0E00               	movlw	high _rgb
 10310  0009BA  21B8               	addwfc	(isr@i+1)& (0+255),w,b
 10311  0009BC  6EDA               	movwf	fsr2h,c
 10312  0009BE  B2DF               	btfsc	indf2,1,c
 10313  0009C0  EFE4  F004         	goto	i2u1254_41
 10314  0009C4  EFE7  F004         	goto	i2u1254_40
 10315  0009C8                     i2u1254_41:
 10316  0009C8  0E01               	movlw	1
 10317  0009CA  EFE8  F004         	goto	i2u1254_42
 10318  0009CE                     i2u1254_40:
 10319  0009CE  0E00               	movlw	0
 10320  0009D0                     i2u1254_42:
 10321  0009D0  6E42               	movwf	??_isr^0,c
 10322  0009D2  B3B4               	btfsc	isr@temp& (0+255),1,b
 10323  0009D4  EFEE  F004         	goto	i2u1255_41
 10324  0009D8  EFF1  F004         	goto	i2u1255_40
 10325  0009DC                     i2u1255_41:
 10326  0009DC  0E01               	movlw	1
 10327  0009DE  EFF2  F004         	goto	i2u1255_42
 10328  0009E2                     i2u1255_40:
 10329  0009E2  0E00               	movlw	0
 10330  0009E4                     i2u1255_42:
 10331  0009E4  1A42               	xorwf	??_isr^0,f,c
 10332  0009E6  A4D8               	btfss	status,2,c
 10333  0009E8  EFF8  F004         	goto	i2u1256_41
 10334  0009EC  EFFA  F004         	goto	i2u1256_40
 10335  0009F0                     i2u1256_41:
 10336  0009F0  EF1B  F005         	goto	i2l2979
 10337  0009F4                     i2u1256_40:
 10338  0009F4                     
 10339                           ; BSR set to: 0
 10340  0009F4  0EB9               	movlw	low _rgb
 10341  0009F6  25B7               	addwf	isr@i& (0+255),w,b
 10342  0009F8  6ED9               	movwf	fsr2l,c
 10343  0009FA  0E00               	movlw	high _rgb
 10344  0009FC  21B8               	addwfc	(isr@i+1)& (0+255),w,b
 10345  0009FE  6EDA               	movwf	fsr2h,c
 10346  000A00  B4DF               	btfsc	indf2,2,c
 10347  000A02  EF05  F005         	goto	i2u1257_41
 10348  000A06  EF08  F005         	goto	i2u1257_40
 10349  000A0A                     i2u1257_41:
 10350  000A0A  0E01               	movlw	1
 10351  000A0C  EF09  F005         	goto	i2u1257_42
 10352  000A10                     i2u1257_40:
 10353  000A10  0E00               	movlw	0
 10354  000A12                     i2u1257_42:
 10355  000A12  6E42               	movwf	??_isr^0,c
 10356  000A14  B5B4               	btfsc	isr@temp& (0+255),2,b
 10357  000A16  EF0F  F005         	goto	i2u1258_41
 10358  000A1A  EF12  F005         	goto	i2u1258_40
 10359  000A1E                     i2u1258_41:
 10360  000A1E  0E01               	movlw	1
 10361  000A20  EF13  F005         	goto	i2u1258_42
 10362  000A24                     i2u1258_40:
 10363  000A24  0E00               	movlw	0
 10364  000A26                     i2u1258_42:
 10365  000A26  1A42               	xorwf	??_isr^0,f,c
 10366  000A28  B4D8               	btfsc	status,2,c
 10367  000A2A  EF19  F005         	goto	i2u1259_41
 10368  000A2E  EF1B  F005         	goto	i2u1259_40
 10369  000A32                     i2u1259_41:
 10370  000A32  EF1F  F005         	goto	i2l2981
 10371  000A36                     i2u1259_40:
 10372  000A36                     i2l2979:
 10373                           
 10374                           ; BSR set to: 0
 10375                           ;newmain.c: 118:                     check = 1;
 10376  000A36  0E00               	movlw	0
 10377  000A38  6FB3               	movwf	(isr@check+1)& (0+255),b
 10378  000A3A  0E01               	movlw	1
 10379  000A3C  6FB2               	movwf	isr@check& (0+255),b
 10380  000A3E                     i2l2981:
 10381                           
 10382                           ; BSR set to: 0
 10383                           ;newmain.c: 121:             }
 10384  000A3E  4BB7               	infsnz	isr@i& (0+255),f,b
 10385  000A40  2BB8               	incf	(isr@i+1)& (0+255),f,b
 10386  000A42                     
 10387                           ; BSR set to: 0
 10388  000A42  BFB8               	btfsc	(isr@i+1)& (0+255),7,b
 10389  000A44  EF2D  F005         	goto	i2u1260_41
 10390  000A48  51B8               	movf	(isr@i+1)& (0+255),w,b
 10391  000A4A  E109               	bnz	i2u1260_40
 10392  000A4C  0E10               	movlw	16
 10393  000A4E  5DB7               	subwf	isr@i& (0+255),w,b
 10394  000A50  A0D8               	btfss	status,0,c
 10395  000A52  EF2D  F005         	goto	i2u1260_41
 10396  000A56  EF2F  F005         	goto	i2u1260_40
 10397  000A5A                     i2u1260_41:
 10398  000A5A  EFB8  F004         	goto	i2l2973
 10399  000A5E                     i2u1260_40:
 10400  000A5E                     
 10401                           ; BSR set to: 0
 10402                           ;newmain.c: 122:             temp = rgb[16];
 10403  000A5E  C0C9  F0B4         	movff	_rgb+16,isr@temp	;volatile
 10404  000A62                     
 10405                           ; BSR set to: 0
 10406                           ;newmain.c: 123:             for(i = 17;i < 20;i++){
 10407  000A62  0E00               	movlw	0
 10408  000A64  6FB8               	movwf	(isr@i+1)& (0+255),b
 10409  000A66  0E11               	movlw	17
 10410  000A68  6FB7               	movwf	isr@i& (0+255),b
 10411  000A6A                     i2l2991:
 10412                           
 10413                           ; BSR set to: 0
 10414                           ;newmain.c: 124:                 if(temp.r != rgb[i].r ||temp.g != rgb[i].g || temp.b !=
      +                           rgb[i].b){
 10415  000A6A  0EB9               	movlw	low _rgb
 10416  000A6C  25B7               	addwf	isr@i& (0+255),w,b
 10417  000A6E  6ED9               	movwf	fsr2l,c
 10418  000A70  0E00               	movlw	high _rgb
 10419  000A72  21B8               	addwfc	(isr@i+1)& (0+255),w,b
 10420  000A74  6EDA               	movwf	fsr2h,c
 10421  000A76  B0DF               	btfsc	indf2,0,c
 10422  000A78  EF40  F005         	goto	i2u1261_41
 10423  000A7C  EF43  F005         	goto	i2u1261_40
 10424  000A80                     i2u1261_41:
 10425  000A80  0E01               	movlw	1
 10426  000A82  EF44  F005         	goto	i2u1261_42
 10427  000A86                     i2u1261_40:
 10428  000A86  0E00               	movlw	0
 10429  000A88                     i2u1261_42:
 10430  000A88  6E42               	movwf	??_isr^0,c
 10431  000A8A  B1B4               	btfsc	isr@temp& (0+255),0,b
 10432  000A8C  EF4A  F005         	goto	i2u1262_41
 10433  000A90  EF4D  F005         	goto	i2u1262_40
 10434  000A94                     i2u1262_41:
 10435  000A94  0E01               	movlw	1
 10436  000A96  EF4E  F005         	goto	i2u1262_42
 10437  000A9A                     i2u1262_40:
 10438  000A9A  0E00               	movlw	0
 10439  000A9C                     i2u1262_42:
 10440  000A9C  1A42               	xorwf	??_isr^0,f,c
 10441  000A9E  A4D8               	btfss	status,2,c
 10442  000AA0  EF54  F005         	goto	i2u1263_41
 10443  000AA4  EF56  F005         	goto	i2u1263_40
 10444  000AA8                     i2u1263_41:
 10445  000AA8  EF98  F005         	goto	i2l2997
 10446  000AAC                     i2u1263_40:
 10447  000AAC                     
 10448                           ; BSR set to: 0
 10449  000AAC  0EB9               	movlw	low _rgb
 10450  000AAE  25B7               	addwf	isr@i& (0+255),w,b
 10451  000AB0  6ED9               	movwf	fsr2l,c
 10452  000AB2  0E00               	movlw	high _rgb
 10453  000AB4  21B8               	addwfc	(isr@i+1)& (0+255),w,b
 10454  000AB6  6EDA               	movwf	fsr2h,c
 10455  000AB8  B2DF               	btfsc	indf2,1,c
 10456  000ABA  EF61  F005         	goto	i2u1264_41
 10457  000ABE  EF64  F005         	goto	i2u1264_40
 10458  000AC2                     i2u1264_41:
 10459  000AC2  0E01               	movlw	1
 10460  000AC4  EF65  F005         	goto	i2u1264_42
 10461  000AC8                     i2u1264_40:
 10462  000AC8  0E00               	movlw	0
 10463  000ACA                     i2u1264_42:
 10464  000ACA  6E42               	movwf	??_isr^0,c
 10465  000ACC  B3B4               	btfsc	isr@temp& (0+255),1,b
 10466  000ACE  EF6B  F005         	goto	i2u1265_41
 10467  000AD2  EF6E  F005         	goto	i2u1265_40
 10468  000AD6                     i2u1265_41:
 10469  000AD6  0E01               	movlw	1
 10470  000AD8  EF6F  F005         	goto	i2u1265_42
 10471  000ADC                     i2u1265_40:
 10472  000ADC  0E00               	movlw	0
 10473  000ADE                     i2u1265_42:
 10474  000ADE  1A42               	xorwf	??_isr^0,f,c
 10475  000AE0  A4D8               	btfss	status,2,c
 10476  000AE2  EF75  F005         	goto	i2u1266_41
 10477  000AE6  EF77  F005         	goto	i2u1266_40
 10478  000AEA                     i2u1266_41:
 10479  000AEA  EF98  F005         	goto	i2l2997
 10480  000AEE                     i2u1266_40:
 10481  000AEE                     
 10482                           ; BSR set to: 0
 10483  000AEE  0EB9               	movlw	low _rgb
 10484  000AF0  25B7               	addwf	isr@i& (0+255),w,b
 10485  000AF2  6ED9               	movwf	fsr2l,c
 10486  000AF4  0E00               	movlw	high _rgb
 10487  000AF6  21B8               	addwfc	(isr@i+1)& (0+255),w,b
 10488  000AF8  6EDA               	movwf	fsr2h,c
 10489  000AFA  B4DF               	btfsc	indf2,2,c
 10490  000AFC  EF82  F005         	goto	i2u1267_41
 10491  000B00  EF85  F005         	goto	i2u1267_40
 10492  000B04                     i2u1267_41:
 10493  000B04  0E01               	movlw	1
 10494  000B06  EF86  F005         	goto	i2u1267_42
 10495  000B0A                     i2u1267_40:
 10496  000B0A  0E00               	movlw	0
 10497  000B0C                     i2u1267_42:
 10498  000B0C  6E42               	movwf	??_isr^0,c
 10499  000B0E  B5B4               	btfsc	isr@temp& (0+255),2,b
 10500  000B10  EF8C  F005         	goto	i2u1268_41
 10501  000B14  EF8F  F005         	goto	i2u1268_40
 10502  000B18                     i2u1268_41:
 10503  000B18  0E01               	movlw	1
 10504  000B1A  EF90  F005         	goto	i2u1268_42
 10505  000B1E                     i2u1268_40:
 10506  000B1E  0E00               	movlw	0
 10507  000B20                     i2u1268_42:
 10508  000B20  1A42               	xorwf	??_isr^0,f,c
 10509  000B22  B4D8               	btfsc	status,2,c
 10510  000B24  EF96  F005         	goto	i2u1269_41
 10511  000B28  EF98  F005         	goto	i2u1269_40
 10512  000B2C                     i2u1269_41:
 10513  000B2C  EF9C  F005         	goto	i2l2999
 10514  000B30                     i2u1269_40:
 10515  000B30                     i2l2997:
 10516                           
 10517                           ; BSR set to: 0
 10518                           ;newmain.c: 125:                     check = 1;
 10519  000B30  0E00               	movlw	0
 10520  000B32  6FB3               	movwf	(isr@check+1)& (0+255),b
 10521  000B34  0E01               	movlw	1
 10522  000B36  6FB2               	movwf	isr@check& (0+255),b
 10523  000B38                     i2l2999:
 10524                           
 10525                           ; BSR set to: 0
 10526                           ;newmain.c: 128:             }
 10527  000B38  4BB7               	infsnz	isr@i& (0+255),f,b
 10528  000B3A  2BB8               	incf	(isr@i+1)& (0+255),f,b
 10529  000B3C                     
 10530                           ; BSR set to: 0
 10531  000B3C  BFB8               	btfsc	(isr@i+1)& (0+255),7,b
 10532  000B3E  EFAA  F005         	goto	i2u1270_41
 10533  000B42  51B8               	movf	(isr@i+1)& (0+255),w,b
 10534  000B44  E109               	bnz	i2u1270_40
 10535  000B46  0E14               	movlw	20
 10536  000B48  5DB7               	subwf	isr@i& (0+255),w,b
 10537  000B4A  A0D8               	btfss	status,0,c
 10538  000B4C  EFAA  F005         	goto	i2u1270_41
 10539  000B50  EFAC  F005         	goto	i2u1270_40
 10540  000B54                     i2u1270_41:
 10541  000B54  EF35  F005         	goto	i2l2991
 10542  000B58                     i2u1270_40:
 10543  000B58                     
 10544                           ; BSR set to: 0
 10545                           ;newmain.c: 129:             temp = rgb[20];
 10546  000B58  C0CD  F0B4         	movff	_rgb+20,isr@temp	;volatile
 10547  000B5C                     
 10548                           ; BSR set to: 0
 10549                           ;newmain.c: 130:             for(i = 21;i < 24;i++){
 10550  000B5C  0E00               	movlw	0
 10551  000B5E  6FB8               	movwf	(isr@i+1)& (0+255),b
 10552  000B60  0E15               	movlw	21
 10553  000B62  6FB7               	movwf	isr@i& (0+255),b
 10554  000B64                     i2l3009:
 10555                           
 10556                           ; BSR set to: 0
 10557                           ;newmain.c: 131:                 if(temp.r != rgb[i].r ||temp.g != rgb[i].g || temp.b !=
      +                           rgb[i].b){
 10558  000B64  0EB9               	movlw	low _rgb
 10559  000B66  25B7               	addwf	isr@i& (0+255),w,b
 10560  000B68  6ED9               	movwf	fsr2l,c
 10561  000B6A  0E00               	movlw	high _rgb
 10562  000B6C  21B8               	addwfc	(isr@i+1)& (0+255),w,b
 10563  000B6E  6EDA               	movwf	fsr2h,c
 10564  000B70  B0DF               	btfsc	indf2,0,c
 10565  000B72  EFBD  F005         	goto	i2u1271_41
 10566  000B76  EFC0  F005         	goto	i2u1271_40
 10567  000B7A                     i2u1271_41:
 10568  000B7A  0E01               	movlw	1
 10569  000B7C  EFC1  F005         	goto	i2u1271_42
 10570  000B80                     i2u1271_40:
 10571  000B80  0E00               	movlw	0
 10572  000B82                     i2u1271_42:
 10573  000B82  6E42               	movwf	??_isr^0,c
 10574  000B84  B1B4               	btfsc	isr@temp& (0+255),0,b
 10575  000B86  EFC7  F005         	goto	i2u1272_41
 10576  000B8A  EFCA  F005         	goto	i2u1272_40
 10577  000B8E                     i2u1272_41:
 10578  000B8E  0E01               	movlw	1
 10579  000B90  EFCB  F005         	goto	i2u1272_42
 10580  000B94                     i2u1272_40:
 10581  000B94  0E00               	movlw	0
 10582  000B96                     i2u1272_42:
 10583  000B96  1A42               	xorwf	??_isr^0,f,c
 10584  000B98  A4D8               	btfss	status,2,c
 10585  000B9A  EFD1  F005         	goto	i2u1273_41
 10586  000B9E  EFD3  F005         	goto	i2u1273_40
 10587  000BA2                     i2u1273_41:
 10588  000BA2  EF15  F006         	goto	i2l3015
 10589  000BA6                     i2u1273_40:
 10590  000BA6                     
 10591                           ; BSR set to: 0
 10592  000BA6  0EB9               	movlw	low _rgb
 10593  000BA8  25B7               	addwf	isr@i& (0+255),w,b
 10594  000BAA  6ED9               	movwf	fsr2l,c
 10595  000BAC  0E00               	movlw	high _rgb
 10596  000BAE  21B8               	addwfc	(isr@i+1)& (0+255),w,b
 10597  000BB0  6EDA               	movwf	fsr2h,c
 10598  000BB2  B2DF               	btfsc	indf2,1,c
 10599  000BB4  EFDE  F005         	goto	i2u1274_41
 10600  000BB8  EFE1  F005         	goto	i2u1274_40
 10601  000BBC                     i2u1274_41:
 10602  000BBC  0E01               	movlw	1
 10603  000BBE  EFE2  F005         	goto	i2u1274_42
 10604  000BC2                     i2u1274_40:
 10605  000BC2  0E00               	movlw	0
 10606  000BC4                     i2u1274_42:
 10607  000BC4  6E42               	movwf	??_isr^0,c
 10608  000BC6  B3B4               	btfsc	isr@temp& (0+255),1,b
 10609  000BC8  EFE8  F005         	goto	i2u1275_41
 10610  000BCC  EFEB  F005         	goto	i2u1275_40
 10611  000BD0                     i2u1275_41:
 10612  000BD0  0E01               	movlw	1
 10613  000BD2  EFEC  F005         	goto	i2u1275_42
 10614  000BD6                     i2u1275_40:
 10615  000BD6  0E00               	movlw	0
 10616  000BD8                     i2u1275_42:
 10617  000BD8  1A42               	xorwf	??_isr^0,f,c
 10618  000BDA  A4D8               	btfss	status,2,c
 10619  000BDC  EFF2  F005         	goto	i2u1276_41
 10620  000BE0  EFF4  F005         	goto	i2u1276_40
 10621  000BE4                     i2u1276_41:
 10622  000BE4  EF15  F006         	goto	i2l3015
 10623  000BE8                     i2u1276_40:
 10624  000BE8                     
 10625                           ; BSR set to: 0
 10626  000BE8  0EB9               	movlw	low _rgb
 10627  000BEA  25B7               	addwf	isr@i& (0+255),w,b
 10628  000BEC  6ED9               	movwf	fsr2l,c
 10629  000BEE  0E00               	movlw	high _rgb
 10630  000BF0  21B8               	addwfc	(isr@i+1)& (0+255),w,b
 10631  000BF2  6EDA               	movwf	fsr2h,c
 10632  000BF4  B4DF               	btfsc	indf2,2,c
 10633  000BF6  EFFF  F005         	goto	i2u1277_41
 10634  000BFA  EF02  F006         	goto	i2u1277_40
 10635  000BFE                     i2u1277_41:
 10636  000BFE  0E01               	movlw	1
 10637  000C00  EF03  F006         	goto	i2u1277_42
 10638  000C04                     i2u1277_40:
 10639  000C04  0E00               	movlw	0
 10640  000C06                     i2u1277_42:
 10641  000C06  6E42               	movwf	??_isr^0,c
 10642  000C08  B5B4               	btfsc	isr@temp& (0+255),2,b
 10643  000C0A  EF09  F006         	goto	i2u1278_41
 10644  000C0E  EF0C  F006         	goto	i2u1278_40
 10645  000C12                     i2u1278_41:
 10646  000C12  0E01               	movlw	1
 10647  000C14  EF0D  F006         	goto	i2u1278_42
 10648  000C18                     i2u1278_40:
 10649  000C18  0E00               	movlw	0
 10650  000C1A                     i2u1278_42:
 10651  000C1A  1A42               	xorwf	??_isr^0,f,c
 10652  000C1C  B4D8               	btfsc	status,2,c
 10653  000C1E  EF13  F006         	goto	i2u1279_41
 10654  000C22  EF15  F006         	goto	i2u1279_40
 10655  000C26                     i2u1279_41:
 10656  000C26  EF19  F006         	goto	i2l3017
 10657  000C2A                     i2u1279_40:
 10658  000C2A                     i2l3015:
 10659                           
 10660                           ; BSR set to: 0
 10661                           ;newmain.c: 132:                     check = 1;
 10662  000C2A  0E00               	movlw	0
 10663  000C2C  6FB3               	movwf	(isr@check+1)& (0+255),b
 10664  000C2E  0E01               	movlw	1
 10665  000C30  6FB2               	movwf	isr@check& (0+255),b
 10666  000C32                     i2l3017:
 10667                           
 10668                           ; BSR set to: 0
 10669                           ;newmain.c: 135:             }
 10670  000C32  4BB7               	infsnz	isr@i& (0+255),f,b
 10671  000C34  2BB8               	incf	(isr@i+1)& (0+255),f,b
 10672  000C36                     
 10673                           ; BSR set to: 0
 10674  000C36  BFB8               	btfsc	(isr@i+1)& (0+255),7,b
 10675  000C38  EF27  F006         	goto	i2u1280_41
 10676  000C3C  51B8               	movf	(isr@i+1)& (0+255),w,b
 10677  000C3E  E109               	bnz	i2u1280_40
 10678  000C40  0E18               	movlw	24
 10679  000C42  5DB7               	subwf	isr@i& (0+255),w,b
 10680  000C44  A0D8               	btfss	status,0,c
 10681  000C46  EF27  F006         	goto	i2u1280_41
 10682  000C4A  EF29  F006         	goto	i2u1280_40
 10683  000C4E                     i2u1280_41:
 10684  000C4E  EFB2  F005         	goto	i2l3009
 10685  000C52                     i2u1280_40:
 10686  000C52                     
 10687                           ; BSR set to: 0
 10688                           ;newmain.c: 136:             if(check == 0){
 10689  000C52  51B2               	movf	isr@check& (0+255),w,b
 10690  000C54  11B3               	iorwf	(isr@check+1)& (0+255),w,b
 10691  000C56  A4D8               	btfss	status,2,c
 10692  000C58  EF30  F006         	goto	i2u1281_41
 10693  000C5C  EF32  F006         	goto	i2u1281_40
 10694  000C60                     i2u1281_41:
 10695  000C60  EF37  F006         	goto	i2l3027
 10696  000C64                     i2u1281_40:
 10697  000C64                     
 10698                           ; BSR set to: 0
 10699                           ;newmain.c: 137:                 LATAbits.LA4 = 0;
 10700  000C64  9889               	bcf	137,4,c	;volatile
 10701  000C66                     
 10702                           ; BSR set to: 0
 10703                           ;newmain.c: 138:                 need_to_check = 0;
 10704  000C66  0E00               	movlw	0
 10705  000C68  6FDE               	movwf	(_need_to_check+1)& (0+255),b
 10706  000C6A  0E00               	movlw	0
 10707  000C6C  6FDD               	movwf	_need_to_check& (0+255),b
 10708  000C6E                     i2l3027:
 10709                           
 10710                           ; BSR set to: 0
 10711                           ;newmain.c: 141:         if(RCIF)
 10712  000C6E  AA9E               	btfss	3998,5,c	;volatile
 10713  000C70  EF3C  F006         	goto	i2u1282_41
 10714  000C74  EF3E  F006         	goto	i2u1282_40
 10715  000C78                     i2u1282_41:
 10716  000C78  EFE5  F007         	goto	i2l3107
 10717  000C7C                     i2u1282_40:
 10718  000C7C                     
 10719                           ; BSR set to: 0
 10720                           ;newmain.c: 142:         {;newmain.c: 143:             if(RCSTAbits.OERR)
 10721  000C7C  A2AB               	btfss	171,1,c	;volatile
 10722  000C7E  EF43  F006         	goto	i2u1283_41
 10723  000C82  EF45  F006         	goto	i2u1283_40
 10724  000C86                     i2u1283_41:
 10725  000C86  EF48  F006         	goto	i2l3033
 10726  000C8A                     i2u1283_40:
 10727  000C8A                     
 10728                           ; BSR set to: 0
 10729                           ;newmain.c: 144:             {;newmain.c: 145:                 CREN = 0;
 10730  000C8A  98AB               	bcf	4011,4,c	;volatile
 10731                           
 10732                           ;newmain.c: 146:                 __nop();
 10733  000C8C  F000               	nop	
 10734                           
 10735                           ;newmain.c: 147:                 CREN = 1;
 10736  000C8E  88AB               	bsf	4011,4,c	;volatile
 10737  000C90                     i2l3033:
 10738                           
 10739                           ;newmain.c: 149:             MyusartRead();
 10740  000C90  ECF0  F020         	call	_MyusartRead	;wreg free
 10741  000C94                     
 10742                           ;newmain.c: 150:             if(lenStr > 5){
 10743  000C94  0100               	movlb	0	; () banked
 10744  000C96  BFE0               	btfsc	(_lenStr+1)& (0+255),7,b
 10745  000C98  EF57  F006         	goto	i2u1284_41
 10746  000C9C  51E0               	movf	(_lenStr+1)& (0+255),w,b
 10747  000C9E  E109               	bnz	i2u1284_40
 10748  000CA0  0E06               	movlw	6
 10749  000CA2  5DDF               	subwf	_lenStr& (0+255),w,b
 10750  000CA4  A0D8               	btfss	status,0,c
 10751  000CA6  EF57  F006         	goto	i2u1284_41
 10752  000CAA  EF59  F006         	goto	i2u1284_40
 10753  000CAE                     i2u1284_41:
 10754  000CAE  EF61  F006         	goto	i2l3041
 10755  000CB2                     i2u1284_40:
 10756  000CB2                     
 10757                           ; BSR set to: 0
 10758                           ;newmain.c: 151:                 UART_Write_Text("Clear\t");
 10759  000CB2  0E01               	movlw	low STR_1
 10760  000CB4  6E02               	movwf	UART_Write_Text@text^0,c
 10761  000CB6  0E06               	movlw	high STR_1
 10762  000CB8  6E03               	movwf	(UART_Write_Text@text+1)^0,c
 10763  000CBA  ECBD  F01F         	call	_UART_Write_Text	;wreg free
 10764  000CBE                     
 10765                           ;newmain.c: 152:                 ClearBuffer();
 10766  000CBE  ECB3  F020         	call	_ClearBuffer	;wreg free
 10767  000CC2                     i2l3041:
 10768                           
 10769                           ;newmain.c: 154:             if(strcmp(mystring,"os") == 0){
 10770  000CC2  0E53               	movlw	low _mystring
 10771  000CC4  6E01               	movwf	strcmp@l^0,c
 10772  000CC6  0E00               	movlw	high _mystring
 10773  000CC8  6E02               	movwf	(strcmp@l+1)^0,c
 10774  000CCA  0E26               	movlw	low STR_2
 10775  000CCC  6E03               	movwf	strcmp@r^0,c
 10776  000CCE  0E06               	movlw	high STR_2
 10777  000CD0  6E04               	movwf	(strcmp@r+1)^0,c
 10778  000CD2  ECFC  F01F         	call	_strcmp	;wreg free
 10779  000CD6  5001               	movf	?_strcmp^0,w,c
 10780  000CD8  1002               	iorwf	(?_strcmp+1)^0,w,c
 10781  000CDA  A4D8               	btfss	status,2,c
 10782  000CDC  EF72  F006         	goto	i2u1285_41
 10783  000CE0  EF74  F006         	goto	i2u1285_40
 10784  000CE4                     i2u1285_41:
 10785  000CE4  EFE5  F007         	goto	i2l3107
 10786  000CE8                     i2u1285_40:
 10787  000CE8                     
 10788                           ;newmain.c: 155:                 int k;;newmain.c: 156:                 char str[50] = "
      +                          ";
 10789  000CE8  EE21  F000         	lfsr	2,isr@F2876
 10790  000CEC  EE10  F080         	lfsr	1,isr@str
 10791  000CF0  0E31               	movlw	49
 10792  000CF2                     i2u1286_41:
 10793  000CF2  CFDB FFE3          	movff	plusw2,plusw1
 10794  000CF6  06E8               	decf	wreg,f,c
 10795  000CF8  E2FC               	bc	i2u1286_41
 10796  000CFA                     
 10797                           ;newmain.c: 157:                 for(k = 0;k < 24;k++){
 10798  000CFA  0E00               	movlw	0
 10799  000CFC  0100               	movlb	0	; () banked
 10800  000CFE  6FB6               	movwf	(isr@k+1)& (0+255),b
 10801  000D00  0E00               	movlw	0
 10802  000D02  6FB5               	movwf	isr@k& (0+255),b
 10803  000D04                     i2l3051:
 10804                           
 10805                           ; BSR set to: 0
 10806                           ;newmain.c: 158:                     if(rgb[k].r == 0 && rgb[k].g == 0 && rgb[k].b == 0)
      +                          {
 10807  000D04  0EB9               	movlw	low _rgb
 10808  000D06  25B5               	addwf	isr@k& (0+255),w,b
 10809  000D08  6ED9               	movwf	fsr2l,c
 10810  000D0A  0E00               	movlw	high _rgb
 10811  000D0C  21B6               	addwfc	(isr@k+1)& (0+255),w,b
 10812  000D0E  6EDA               	movwf	fsr2h,c
 10813  000D10  B0DF               	btfsc	indf2,0,c
 10814  000D12  EF8D  F006         	goto	i2u1287_41
 10815  000D16  EF8F  F006         	goto	i2u1287_40
 10816  000D1A                     i2u1287_41:
 10817  000D1A  EFB9  F006         	goto	i2l3059
 10818  000D1E                     i2u1287_40:
 10819  000D1E                     
 10820                           ; BSR set to: 0
 10821  000D1E  0EB9               	movlw	low _rgb
 10822  000D20  25B5               	addwf	isr@k& (0+255),w,b
 10823  000D22  6ED9               	movwf	fsr2l,c
 10824  000D24  0E00               	movlw	high _rgb
 10825  000D26  21B6               	addwfc	(isr@k+1)& (0+255),w,b
 10826  000D28  6EDA               	movwf	fsr2h,c
 10827  000D2A  B2DF               	btfsc	indf2,1,c
 10828  000D2C  EF9A  F006         	goto	i2u1288_41
 10829  000D30  EF9C  F006         	goto	i2u1288_40
 10830  000D34                     i2u1288_41:
 10831  000D34  EFB9  F006         	goto	i2l3059
 10832  000D38                     i2u1288_40:
 10833  000D38                     
 10834                           ; BSR set to: 0
 10835  000D38  0EB9               	movlw	low _rgb
 10836  000D3A  25B5               	addwf	isr@k& (0+255),w,b
 10837  000D3C  6ED9               	movwf	fsr2l,c
 10838  000D3E  0E00               	movlw	high _rgb
 10839  000D40  21B6               	addwfc	(isr@k+1)& (0+255),w,b
 10840  000D42  6EDA               	movwf	fsr2h,c
 10841  000D44  B4DF               	btfsc	indf2,2,c
 10842  000D46  EFA7  F006         	goto	i2u1289_41
 10843  000D4A  EFA9  F006         	goto	i2u1289_40
 10844  000D4E                     i2u1289_41:
 10845  000D4E  EFB9  F006         	goto	i2l3059
 10846  000D52                     i2u1289_40:
 10847  000D52                     
 10848                           ; BSR set to: 0
 10849                           ;newmain.c: 159:                         sprintf(str,"%s 5",str);
 10850  000D52  0E80               	movlw	low isr@str
 10851  000D54  6E32               	movwf	sprintf@s^0,c
 10852  000D56  0E00               	movlw	high isr@str
 10853  000D58  6E33               	movwf	(sprintf@s+1)^0,c
 10854  000D5A  0E21               	movlw	low STR_3
 10855  000D5C  6E34               	movwf	sprintf@fmt^0,c
 10856  000D5E  0E06               	movlw	high STR_3
 10857  000D60  6E35               	movwf	(sprintf@fmt+1)^0,c
 10858  000D62  0E80               	movlw	low isr@str
 10859  000D64  6E36               	movwf	(?_sprintf+4)^0,c
 10860  000D66  0E00               	movlw	high isr@str
 10861  000D68  6E37               	movwf	(?_sprintf+5)^0,c
 10862  000D6A  EC8C  F020         	call	_sprintf	;wreg free
 10863                           
 10864                           ;newmain.c: 160:                     }
 10865  000D6E  EFCC  F007         	goto	i2l3099
 10866  000D72                     i2l3059:
 10867                           
 10868                           ; BSR set to: 0
 10869  000D72  0EB9               	movlw	low _rgb
 10870  000D74  25B5               	addwf	isr@k& (0+255),w,b
 10871  000D76  6ED9               	movwf	fsr2l,c
 10872  000D78  0E00               	movlw	high _rgb
 10873  000D7A  21B6               	addwfc	(isr@k+1)& (0+255),w,b
 10874  000D7C  6EDA               	movwf	fsr2h,c
 10875  000D7E  A0DF               	btfss	indf2,0,c
 10876  000D80  EFC4  F006         	goto	i2u1290_41
 10877  000D84  EFC6  F006         	goto	i2u1290_40
 10878  000D88                     i2u1290_41:
 10879  000D88  EFF0  F006         	goto	i2l3067
 10880  000D8C                     i2u1290_40:
 10881  000D8C                     
 10882                           ; BSR set to: 0
 10883  000D8C  0EB9               	movlw	low _rgb
 10884  000D8E  25B5               	addwf	isr@k& (0+255),w,b
 10885  000D90  6ED9               	movwf	fsr2l,c
 10886  000D92  0E00               	movlw	high _rgb
 10887  000D94  21B6               	addwfc	(isr@k+1)& (0+255),w,b
 10888  000D96  6EDA               	movwf	fsr2h,c
 10889  000D98  B2DF               	btfsc	indf2,1,c
 10890  000D9A  EFD1  F006         	goto	i2u1291_41
 10891  000D9E  EFD3  F006         	goto	i2u1291_40
 10892  000DA2                     i2u1291_41:
 10893  000DA2  EFF0  F006         	goto	i2l3067
 10894  000DA6                     i2u1291_40:
 10895  000DA6                     
 10896                           ; BSR set to: 0
 10897  000DA6  0EB9               	movlw	low _rgb
 10898  000DA8  25B5               	addwf	isr@k& (0+255),w,b
 10899  000DAA  6ED9               	movwf	fsr2l,c
 10900  000DAC  0E00               	movlw	high _rgb
 10901  000DAE  21B6               	addwfc	(isr@k+1)& (0+255),w,b
 10902  000DB0  6EDA               	movwf	fsr2h,c
 10903  000DB2  A4DF               	btfss	indf2,2,c
 10904  000DB4  EFDE  F006         	goto	i2u1292_41
 10905  000DB8  EFE0  F006         	goto	i2u1292_40
 10906  000DBC                     i2u1292_41:
 10907  000DBC  EFF0  F006         	goto	i2l3067
 10908  000DC0                     i2u1292_40:
 10909  000DC0                     
 10910                           ; BSR set to: 0
 10911                           ;newmain.c: 162:                         sprintf(str,"%s 4",str);
 10912  000DC0  0E80               	movlw	low isr@str
 10913  000DC2  6E32               	movwf	sprintf@s^0,c
 10914  000DC4  0E00               	movlw	high isr@str
 10915  000DC6  6E33               	movwf	(sprintf@s+1)^0,c
 10916  000DC8  0E1C               	movlw	low STR_4
 10917  000DCA  6E34               	movwf	sprintf@fmt^0,c
 10918  000DCC  0E06               	movlw	high STR_4
 10919  000DCE  6E35               	movwf	(sprintf@fmt+1)^0,c
 10920  000DD0  0E80               	movlw	low isr@str
 10921  000DD2  6E36               	movwf	(?_sprintf+4)^0,c
 10922  000DD4  0E00               	movlw	high isr@str
 10923  000DD6  6E37               	movwf	(?_sprintf+5)^0,c
 10924  000DD8  EC8C  F020         	call	_sprintf	;wreg free
 10925                           
 10926                           ;newmain.c: 163:                     }
 10927  000DDC  EFCC  F007         	goto	i2l3099
 10928  000DE0                     i2l3067:
 10929                           
 10930                           ; BSR set to: 0
 10931  000DE0  0EB9               	movlw	low _rgb
 10932  000DE2  25B5               	addwf	isr@k& (0+255),w,b
 10933  000DE4  6ED9               	movwf	fsr2l,c
 10934  000DE6  0E00               	movlw	high _rgb
 10935  000DE8  21B6               	addwfc	(isr@k+1)& (0+255),w,b
 10936  000DEA  6EDA               	movwf	fsr2h,c
 10937  000DEC  B0DF               	btfsc	indf2,0,c
 10938  000DEE  EFFB  F006         	goto	i2u1293_41
 10939  000DF2  EFFD  F006         	goto	i2u1293_40
 10940  000DF6                     i2u1293_41:
 10941  000DF6  EF27  F007         	goto	i2l3075
 10942  000DFA                     i2u1293_40:
 10943  000DFA                     
 10944                           ; BSR set to: 0
 10945  000DFA  0EB9               	movlw	low _rgb
 10946  000DFC  25B5               	addwf	isr@k& (0+255),w,b
 10947  000DFE  6ED9               	movwf	fsr2l,c
 10948  000E00  0E00               	movlw	high _rgb
 10949  000E02  21B6               	addwfc	(isr@k+1)& (0+255),w,b
 10950  000E04  6EDA               	movwf	fsr2h,c
 10951  000E06  A2DF               	btfss	indf2,1,c
 10952  000E08  EF08  F007         	goto	i2u1294_41
 10953  000E0C  EF0A  F007         	goto	i2u1294_40
 10954  000E10                     i2u1294_41:
 10955  000E10  EF27  F007         	goto	i2l3075
 10956  000E14                     i2u1294_40:
 10957  000E14                     
 10958                           ; BSR set to: 0
 10959  000E14  0EB9               	movlw	low _rgb
 10960  000E16  25B5               	addwf	isr@k& (0+255),w,b
 10961  000E18  6ED9               	movwf	fsr2l,c
 10962  000E1A  0E00               	movlw	high _rgb
 10963  000E1C  21B6               	addwfc	(isr@k+1)& (0+255),w,b
 10964  000E1E  6EDA               	movwf	fsr2h,c
 10965  000E20  B4DF               	btfsc	indf2,2,c
 10966  000E22  EF15  F007         	goto	i2u1295_41
 10967  000E26  EF17  F007         	goto	i2u1295_40
 10968  000E2A                     i2u1295_41:
 10969  000E2A  EF27  F007         	goto	i2l3075
 10970  000E2E                     i2u1295_40:
 10971  000E2E                     
 10972                           ; BSR set to: 0
 10973                           ;newmain.c: 165:                         sprintf(str,"%s 3",str);
 10974  000E2E  0E80               	movlw	low isr@str
 10975  000E30  6E32               	movwf	sprintf@s^0,c
 10976  000E32  0E00               	movlw	high isr@str
 10977  000E34  6E33               	movwf	(sprintf@s+1)^0,c
 10978  000E36  0E17               	movlw	low STR_5
 10979  000E38  6E34               	movwf	sprintf@fmt^0,c
 10980  000E3A  0E06               	movlw	high STR_5
 10981  000E3C  6E35               	movwf	(sprintf@fmt+1)^0,c
 10982  000E3E  0E80               	movlw	low isr@str
 10983  000E40  6E36               	movwf	(?_sprintf+4)^0,c
 10984  000E42  0E00               	movlw	high isr@str
 10985  000E44  6E37               	movwf	(?_sprintf+5)^0,c
 10986  000E46  EC8C  F020         	call	_sprintf	;wreg free
 10987                           
 10988                           ;newmain.c: 166:                     }
 10989  000E4A  EFCC  F007         	goto	i2l3099
 10990  000E4E                     i2l3075:
 10991                           
 10992                           ; BSR set to: 0
 10993  000E4E  0EB9               	movlw	low _rgb
 10994  000E50  25B5               	addwf	isr@k& (0+255),w,b
 10995  000E52  6ED9               	movwf	fsr2l,c
 10996  000E54  0E00               	movlw	high _rgb
 10997  000E56  21B6               	addwfc	(isr@k+1)& (0+255),w,b
 10998  000E58  6EDA               	movwf	fsr2h,c
 10999  000E5A  B0DF               	btfsc	indf2,0,c
 11000  000E5C  EF32  F007         	goto	i2u1296_41
 11001  000E60  EF34  F007         	goto	i2u1296_40
 11002  000E64                     i2u1296_41:
 11003  000E64  EF5E  F007         	goto	i2l3083
 11004  000E68                     i2u1296_40:
 11005  000E68                     
 11006                           ; BSR set to: 0
 11007  000E68  0EB9               	movlw	low _rgb
 11008  000E6A  25B5               	addwf	isr@k& (0+255),w,b
 11009  000E6C  6ED9               	movwf	fsr2l,c
 11010  000E6E  0E00               	movlw	high _rgb
 11011  000E70  21B6               	addwfc	(isr@k+1)& (0+255),w,b
 11012  000E72  6EDA               	movwf	fsr2h,c
 11013  000E74  B2DF               	btfsc	indf2,1,c
 11014  000E76  EF3F  F007         	goto	i2u1297_41
 11015  000E7A  EF41  F007         	goto	i2u1297_40
 11016  000E7E                     i2u1297_41:
 11017  000E7E  EF5E  F007         	goto	i2l3083
 11018  000E82                     i2u1297_40:
 11019  000E82                     
 11020                           ; BSR set to: 0
 11021  000E82  0EB9               	movlw	low _rgb
 11022  000E84  25B5               	addwf	isr@k& (0+255),w,b
 11023  000E86  6ED9               	movwf	fsr2l,c
 11024  000E88  0E00               	movlw	high _rgb
 11025  000E8A  21B6               	addwfc	(isr@k+1)& (0+255),w,b
 11026  000E8C  6EDA               	movwf	fsr2h,c
 11027  000E8E  A4DF               	btfss	indf2,2,c
 11028  000E90  EF4C  F007         	goto	i2u1298_41
 11029  000E94  EF4E  F007         	goto	i2u1298_40
 11030  000E98                     i2u1298_41:
 11031  000E98  EF5E  F007         	goto	i2l3083
 11032  000E9C                     i2u1298_40:
 11033  000E9C                     
 11034                           ; BSR set to: 0
 11035                           ;newmain.c: 168:                         sprintf(str,"%s 2",str);
 11036  000E9C  0E80               	movlw	low isr@str
 11037  000E9E  6E32               	movwf	sprintf@s^0,c
 11038  000EA0  0E00               	movlw	high isr@str
 11039  000EA2  6E33               	movwf	(sprintf@s+1)^0,c
 11040  000EA4  0E12               	movlw	low STR_6
 11041  000EA6  6E34               	movwf	sprintf@fmt^0,c
 11042  000EA8  0E06               	movlw	high STR_6
 11043  000EAA  6E35               	movwf	(sprintf@fmt+1)^0,c
 11044  000EAC  0E80               	movlw	low isr@str
 11045  000EAE  6E36               	movwf	(?_sprintf+4)^0,c
 11046  000EB0  0E00               	movlw	high isr@str
 11047  000EB2  6E37               	movwf	(?_sprintf+5)^0,c
 11048  000EB4  EC8C  F020         	call	_sprintf	;wreg free
 11049                           
 11050                           ;newmain.c: 169:                     }
 11051  000EB8  EFCC  F007         	goto	i2l3099
 11052  000EBC                     i2l3083:
 11053                           
 11054                           ; BSR set to: 0
 11055  000EBC  0EB9               	movlw	low _rgb
 11056  000EBE  25B5               	addwf	isr@k& (0+255),w,b
 11057  000EC0  6ED9               	movwf	fsr2l,c
 11058  000EC2  0E00               	movlw	high _rgb
 11059  000EC4  21B6               	addwfc	(isr@k+1)& (0+255),w,b
 11060  000EC6  6EDA               	movwf	fsr2h,c
 11061  000EC8  A0DF               	btfss	indf2,0,c
 11062  000ECA  EF69  F007         	goto	i2u1299_41
 11063  000ECE  EF6B  F007         	goto	i2u1299_40
 11064  000ED2                     i2u1299_41:
 11065  000ED2  EF95  F007         	goto	i2l3091
 11066  000ED6                     i2u1299_40:
 11067  000ED6                     
 11068                           ; BSR set to: 0
 11069  000ED6  0EB9               	movlw	low _rgb
 11070  000ED8  25B5               	addwf	isr@k& (0+255),w,b
 11071  000EDA  6ED9               	movwf	fsr2l,c
 11072  000EDC  0E00               	movlw	high _rgb
 11073  000EDE  21B6               	addwfc	(isr@k+1)& (0+255),w,b
 11074  000EE0  6EDA               	movwf	fsr2h,c
 11075  000EE2  A2DF               	btfss	indf2,1,c
 11076  000EE4  EF76  F007         	goto	i2u1300_41
 11077  000EE8  EF78  F007         	goto	i2u1300_40
 11078  000EEC                     i2u1300_41:
 11079  000EEC  EF95  F007         	goto	i2l3091
 11080  000EF0                     i2u1300_40:
 11081  000EF0                     
 11082                           ; BSR set to: 0
 11083  000EF0  0EB9               	movlw	low _rgb
 11084  000EF2  25B5               	addwf	isr@k& (0+255),w,b
 11085  000EF4  6ED9               	movwf	fsr2l,c
 11086  000EF6  0E00               	movlw	high _rgb
 11087  000EF8  21B6               	addwfc	(isr@k+1)& (0+255),w,b
 11088  000EFA  6EDA               	movwf	fsr2h,c
 11089  000EFC  B4DF               	btfsc	indf2,2,c
 11090  000EFE  EF83  F007         	goto	i2u1301_41
 11091  000F02  EF85  F007         	goto	i2u1301_40
 11092  000F06                     i2u1301_41:
 11093  000F06  EF95  F007         	goto	i2l3091
 11094  000F0A                     i2u1301_40:
 11095  000F0A                     
 11096                           ; BSR set to: 0
 11097                           ;newmain.c: 171:                         sprintf(str,"%s 1",str);
 11098  000F0A  0E80               	movlw	low isr@str
 11099  000F0C  6E32               	movwf	sprintf@s^0,c
 11100  000F0E  0E00               	movlw	high isr@str
 11101  000F10  6E33               	movwf	(sprintf@s+1)^0,c
 11102  000F12  0E0D               	movlw	low STR_7
 11103  000F14  6E34               	movwf	sprintf@fmt^0,c
 11104  000F16  0E06               	movlw	high STR_7
 11105  000F18  6E35               	movwf	(sprintf@fmt+1)^0,c
 11106  000F1A  0E80               	movlw	low isr@str
 11107  000F1C  6E36               	movwf	(?_sprintf+4)^0,c
 11108  000F1E  0E00               	movlw	high isr@str
 11109  000F20  6E37               	movwf	(?_sprintf+5)^0,c
 11110  000F22  EC8C  F020         	call	_sprintf	;wreg free
 11111                           
 11112                           ;newmain.c: 172:                     }
 11113  000F26  EFCC  F007         	goto	i2l3099
 11114  000F2A                     i2l3091:
 11115                           
 11116                           ; BSR set to: 0
 11117  000F2A  0EB9               	movlw	low _rgb
 11118  000F2C  25B5               	addwf	isr@k& (0+255),w,b
 11119  000F2E  6ED9               	movwf	fsr2l,c
 11120  000F30  0E00               	movlw	high _rgb
 11121  000F32  21B6               	addwfc	(isr@k+1)& (0+255),w,b
 11122  000F34  6EDA               	movwf	fsr2h,c
 11123  000F36  B0DF               	btfsc	indf2,0,c
 11124  000F38  EFA0  F007         	goto	i2u1302_41
 11125  000F3C  EFA2  F007         	goto	i2u1302_40
 11126  000F40                     i2u1302_41:
 11127  000F40  EFCC  F007         	goto	i2l145
 11128  000F44                     i2u1302_40:
 11129  000F44                     
 11130                           ; BSR set to: 0
 11131  000F44  0EB9               	movlw	low _rgb
 11132  000F46  25B5               	addwf	isr@k& (0+255),w,b
 11133  000F48  6ED9               	movwf	fsr2l,c
 11134  000F4A  0E00               	movlw	high _rgb
 11135  000F4C  21B6               	addwfc	(isr@k+1)& (0+255),w,b
 11136  000F4E  6EDA               	movwf	fsr2h,c
 11137  000F50  A2DF               	btfss	indf2,1,c
 11138  000F52  EFAD  F007         	goto	i2u1303_41
 11139  000F56  EFAF  F007         	goto	i2u1303_40
 11140  000F5A                     i2u1303_41:
 11141  000F5A  EFCC  F007         	goto	i2l145
 11142  000F5E                     i2u1303_40:
 11143  000F5E                     
 11144                           ; BSR set to: 0
 11145  000F5E  0EB9               	movlw	low _rgb
 11146  000F60  25B5               	addwf	isr@k& (0+255),w,b
 11147  000F62  6ED9               	movwf	fsr2l,c
 11148  000F64  0E00               	movlw	high _rgb
 11149  000F66  21B6               	addwfc	(isr@k+1)& (0+255),w,b
 11150  000F68  6EDA               	movwf	fsr2h,c
 11151  000F6A  A4DF               	btfss	indf2,2,c
 11152  000F6C  EFBA  F007         	goto	i2u1304_41
 11153  000F70  EFBC  F007         	goto	i2u1304_40
 11154  000F74                     i2u1304_41:
 11155  000F74  EFCC  F007         	goto	i2l145
 11156  000F78                     i2u1304_40:
 11157  000F78                     
 11158                           ; BSR set to: 0
 11159                           ;newmain.c: 174:                         sprintf(str,"%s 0",str);
 11160  000F78  0E80               	movlw	low isr@str
 11161  000F7A  6E32               	movwf	sprintf@s^0,c
 11162  000F7C  0E00               	movlw	high isr@str
 11163  000F7E  6E33               	movwf	(sprintf@s+1)^0,c
 11164  000F80  0E08               	movlw	low STR_8
 11165  000F82  6E34               	movwf	sprintf@fmt^0,c
 11166  000F84  0E06               	movlw	high STR_8
 11167  000F86  6E35               	movwf	(sprintf@fmt+1)^0,c
 11168  000F88  0E80               	movlw	low isr@str
 11169  000F8A  6E36               	movwf	(?_sprintf+4)^0,c
 11170  000F8C  0E00               	movlw	high isr@str
 11171  000F8E  6E37               	movwf	(?_sprintf+5)^0,c
 11172  000F90  EC8C  F020         	call	_sprintf	;wreg free
 11173  000F94  EFCC  F007         	goto	i2l3099
 11174  000F98                     i2l145:
 11175  000F98                     i2l3099:
 11176                           
 11177                           ;newmain.c: 176:                 }
 11178  000F98  0100               	movlb	0	; () banked
 11179  000F9A  4BB5               	infsnz	isr@k& (0+255),f,b
 11180  000F9C  2BB6               	incf	(isr@k+1)& (0+255),f,b
 11181  000F9E                     
 11182                           ; BSR set to: 0
 11183  000F9E  BFB6               	btfsc	(isr@k+1)& (0+255),7,b
 11184  000FA0  EFDB  F007         	goto	i2u1305_41
 11185  000FA4  51B6               	movf	(isr@k+1)& (0+255),w,b
 11186  000FA6  E109               	bnz	i2u1305_40
 11187  000FA8  0E18               	movlw	24
 11188  000FAA  5DB5               	subwf	isr@k& (0+255),w,b
 11189  000FAC  A0D8               	btfss	status,0,c
 11190  000FAE  EFDB  F007         	goto	i2u1305_41
 11191  000FB2  EFDD  F007         	goto	i2u1305_40
 11192  000FB6                     i2u1305_41:
 11193  000FB6  EF82  F006         	goto	i2l3051
 11194  000FBA                     i2u1305_40:
 11195  000FBA                     
 11196                           ; BSR set to: 0
 11197                           ;newmain.c: 177:                 UART_Write_Text(str);
 11198  000FBA  0E80               	movlw	low isr@str
 11199  000FBC  6E02               	movwf	UART_Write_Text@text^0,c
 11200  000FBE  0E00               	movlw	high isr@str
 11201  000FC0  6E03               	movwf	(UART_Write_Text@text+1)^0,c
 11202  000FC2  ECBD  F01F         	call	_UART_Write_Text	;wreg free
 11203  000FC6                     
 11204                           ;newmain.c: 178:                 ClearBuffer();
 11205  000FC6  ECB3  F020         	call	_ClearBuffer	;wreg free
 11206  000FCA                     i2l3107:
 11207                           
 11208                           ;newmain.c: 181:         PIR1bits.TMR2IF = 0;
 11209  000FCA  929E               	bcf	158,1,c	;volatile
 11210  000FCC                     i2l151:
 11211  000FCC  C04A  FFF5         	movff	??_isr+8,tablat
 11212  000FD0  C049  FFF8         	movff	??_isr+7,tblptru
 11213  000FD4  C048  FFF7         	movff	??_isr+6,tblptrh
 11214  000FD8  C047  FFF6         	movff	??_isr+5,tblptrl
 11215  000FDC  C046  FFDA         	movff	??_isr+4,fsr2h
 11216  000FE0  C045  FFD9         	movff	??_isr+3,fsr2l
 11217  000FE4  C044  FFE2         	movff	??_isr+2,fsr1h
 11218  000FE8  C043  FFE1         	movff	??_isr+1,fsr1l
 11219  000FEC  926E               	bcf	int$flags,1,c	;clear compiler interrupt flag (level 2)
 11220  000FEE  0011               	retfie		f
 11221  000FF0                     __end_of_isr:
 11222                           	opt callstack 0
 11223                           
 11224 ;; *************** function _strcmp *****************
 11225 ;; Defined at:
 11226 ;;		line 3 in file "C:\Program Files (x86)\Microchip\xc8\v2.10\pic\sources\c99\common\strcmp.c"
 11227 ;; Parameters:    Size  Location     Type
 11228 ;;  l               2    0[COMRAM] PTR const unsigned char 
 11229 ;;		 -> mystring(20), 
 11230 ;;  r               2    2[COMRAM] PTR const unsigned char 
 11231 ;;		 -> STR_2(3), 
 11232 ;; Auto vars:     Size  Location     Type
 11233 ;;		None
 11234 ;; Return value:  Size  Location     Type
 11235 ;;                  2    0[COMRAM] int 
 11236 ;; Registers used:
 11237 ;;		wreg, fsr2l, fsr2h, status,2, status,0, tblptrl, tblptrh, tblptru
 11238 ;; Tracked objects:
 11239 ;;		On entry : 0/0
 11240 ;;		On exit  : 0/0
 11241 ;;		Unchanged: 0/0
 11242 ;; Data sizes:     COMRAM   BANK0   BANK1   BANK2   BANK3   BANK4   BANK5
 11243 ;;      Params:         4       0       0       0       0       0       0
 11244 ;;      Locals:         0       0       0       0       0       0       0
 11245 ;;      Temps:          1       0       0       0       0       0       0
 11246 ;;      Totals:         5       0       0       0       0       0       0
 11247 ;;Total ram usage:        5 bytes
 11248 ;; Hardware stack levels used:    1
 11249 ;; This function calls:
 11250 ;;		Nothing
 11251 ;; This function is called by:
 11252 ;;		_isr
 11253 ;; This function uses a non-reentrant model
 11254 ;;
 11255                           
 11256                           	psect	text29
 11257  003FF8                     __ptext29:
 11258                           	opt callstack 0
 11259  003FF8                     _strcmp:
 11260                           	opt callstack 26
 11261  003FF8  EF02  F020         	goto	i2l2613
 11262  003FFC                     i2l2611:
 11263  003FFC  4A01               	infsnz	strcmp@l^0,f,c
 11264  003FFE  2A02               	incf	(strcmp@l+1)^0,f,c
 11265  004000  4A03               	infsnz	strcmp@r^0,f,c
 11266  004002  2A04               	incf	(strcmp@r+1)^0,f,c
 11267  004004                     i2l2613:
 11268  004004  C001  FFD9         	movff	strcmp@l,fsr2l
 11269  004008  C002  FFDA         	movff	strcmp@l+1,fsr2h
 11270  00400C  50DF               	movf	indf2,w,c
 11271  00400E  6E05               	movwf	??_strcmp^0,c
 11272  004010  C003  FFF6         	movff	strcmp@r,tblptrl
 11273  004014  C004  FFF7         	movff	strcmp@r+1,tblptrh
 11274  004018                     	if	0	;tblptru may be non-zero
 11275  004018                     	endif
 11276  004018                     	if	0	;tblptru may be non-zero
 11277  004018                     	endif
 11278  004018  0008               	tblrd		*
 11279  00401A  50F5               	movf	tablat,w,c
 11280  00401C  1805               	xorwf	??_strcmp^0,w,c
 11281  00401E  A4D8               	btfss	status,2,c
 11282  004020  EF14  F020         	goto	i2u1177_41
 11283  004024  EF16  F020         	goto	i2u1177_40
 11284  004028                     i2u1177_41:
 11285  004028  EF22  F020         	goto	i2l2617
 11286  00402C                     i2u1177_40:
 11287  00402C  C001  FFD9         	movff	strcmp@l,fsr2l
 11288  004030  C002  FFDA         	movff	strcmp@l+1,fsr2h
 11289  004034  50DF               	movf	indf2,w,c
 11290  004036  A4D8               	btfss	status,2,c
 11291  004038  EF20  F020         	goto	i2u1178_41
 11292  00403C  EF22  F020         	goto	i2u1178_40
 11293  004040                     i2u1178_41:
 11294  004040  EFFE  F01F         	goto	i2l2611
 11295  004044                     i2u1178_40:
 11296  004044                     i2l2617:
 11297  004044  C001  FFD9         	movff	strcmp@l,fsr2l
 11298  004048  C002  FFDA         	movff	strcmp@l+1,fsr2h
 11299  00404C  50DF               	movf	indf2,w,c
 11300  00404E  6E05               	movwf	??_strcmp^0,c
 11301  004050  C003  FFF6         	movff	strcmp@r,tblptrl
 11302  004054  C004  FFF7         	movff	strcmp@r+1,tblptrh
 11303  004058                     	if	0	;tblptru may be non-zero
 11304  004058                     	endif
 11305  004058                     	if	0	;tblptru may be non-zero
 11306  004058                     	endif
 11307  004058  0008               	tblrd		*
 11308  00405A  50F5               	movf	tablat,w,c
 11309  00405C  5C05               	subwf	??_strcmp^0,w,c
 11310  00405E  6E01               	movwf	?_strcmp^0,c
 11311  004060  6A02               	clrf	(?_strcmp+1)^0,c
 11312  004062  A0D8               	btfss	status,0,c
 11313  004064  0602               	decf	(?_strcmp+1)^0,f,c
 11314  004066  0012               	return		;funcret
 11315  004068                     __end_of_strcmp:
 11316                           	opt callstack 0
 11317                           
 11318 ;; *************** function _sprintf *****************
 11319 ;; Defined at:
 11320 ;;		line 9 in file "C:\Program Files (x86)\Microchip\xc8\v2.10\pic\sources\c99\common\nf_sprintf.c"
 11321 ;; Parameters:    Size  Location     Type
 11322 ;;  s               2   49[COMRAM] PTR unsigned char 
 11323 ;;		 -> isr@str(50), 
 11324 ;;  fmt             2   51[COMRAM] PTR const unsigned char 
 11325 ;;		 -> STR_8(5), STR_7(5), STR_6(5), STR_5(5), 
 11326 ;;		 -> STR_4(5), STR_3(5), 
 11327 ;; Auto vars:     Size  Location     Type
 11328 ;;  f               6   59[COMRAM] struct _IO_FILE
 11329 ;;  ap              2   57[COMRAM] PTR void [1]
 11330 ;;		 -> ?_sprintf(2), 
 11331 ;;  ret             2    0        int 
 11332 ;; Return value:  Size  Location     Type
 11333 ;;                  2   49[COMRAM] int 
 11334 ;; Registers used:
 11335 ;;		wreg, fsr1l, fsr1h, fsr2l, fsr2h, status,2, status,0, tblptrl, tblptrh, tblptru, cstack
 11336 ;; Tracked objects:
 11337 ;;		On entry : 0/0
 11338 ;;		On exit  : 0/0
 11339 ;;		Unchanged: 0/0
 11340 ;; Data sizes:     COMRAM   BANK0   BANK1   BANK2   BANK3   BANK4   BANK5
 11341 ;;      Params:         6       0       0       0       0       0       0
 11342 ;;      Locals:        10       0       0       0       0       0       0
 11343 ;;      Temps:          0       0       0       0       0       0       0
 11344 ;;      Totals:        16       0       0       0       0       0       0
 11345 ;;Total ram usage:       16 bytes
 11346 ;; Hardware stack levels used:    1
 11347 ;; Hardware stack levels required when called:    5
 11348 ;; This function calls:
 11349 ;;		_vfprintf
 11350 ;; This function is called by:
 11351 ;;		_isr
 11352 ;; This function uses a non-reentrant model
 11353 ;;
 11354                           
 11355                           	psect	text30
 11356  004118                     __ptext30:
 11357                           	opt callstack 0
 11358  004118                     _sprintf:
 11359                           	opt callstack 21
 11360  004118  0E36               	movlw	low (?_sprintf+4)
 11361  00411A  6E3A               	movwf	sprintf@ap^0,c
 11362  00411C  0E00               	movlw	high (?_sprintf+4)
 11363  00411E  6E3B               	movwf	(sprintf@ap+1)^0,c
 11364  004120  C032  F03C         	movff	sprintf@s,sprintf@f
 11365  004124  C033  F03D         	movff	sprintf@s+1,sprintf@f+1
 11366  004128  0E00               	movlw	0
 11367  00412A  6E3F               	movwf	(sprintf@f+3)^0,c
 11368  00412C  0E00               	movlw	0
 11369  00412E  6E3E               	movwf	(sprintf@f+2)^0,c
 11370  004130  0E00               	movlw	0
 11371  004132  6E41               	movwf	(sprintf@f+5)^0,c
 11372  004134  0E00               	movlw	0
 11373  004136  6E40               	movwf	(sprintf@f+4)^0,c
 11374  004138  0E3C               	movlw	low sprintf@f
 11375  00413A  6E2A               	movwf	vfprintf@fp^0,c
 11376  00413C  0E00               	movlw	high sprintf@f
 11377  00413E  6E2B               	movwf	(vfprintf@fp+1)^0,c
 11378  004140  C034  F02C         	movff	sprintf@fmt,vfprintf@fmt
 11379  004144  C035  F02D         	movff	sprintf@fmt+1,vfprintf@fmt+1
 11380  004148  0E3A               	movlw	low sprintf@ap
 11381  00414A  6E2E               	movwf	vfprintf@ap^0,c
 11382  00414C  0E00               	movlw	high sprintf@ap
 11383  00414E  6E2F               	movwf	(vfprintf@ap+1)^0,c
 11384  004150  EC34  F020         	call	_vfprintf	;wreg free
 11385  004154  503E               	movf	(sprintf@f+2)^0,w,c
 11386  004156  2432               	addwf	sprintf@s^0,w,c
 11387  004158  6ED9               	movwf	fsr2l,c
 11388  00415A  503F               	movf	(sprintf@f+3)^0,w,c
 11389  00415C  2033               	addwfc	(sprintf@s+1)^0,w,c
 11390  00415E  6EDA               	movwf	fsr2h,c
 11391  004160  0E00               	movlw	0
 11392  004162  6EDF               	movwf	indf2,c
 11393  004164  0012               	return		;funcret
 11394  004166                     __end_of_sprintf:
 11395                           	opt callstack 0
 11396                           
 11397 ;; *************** function _vfprintf *****************
 11398 ;; Defined at:
 11399 ;;		line 1368 in file "C:\Program Files (x86)\Microchip\xc8\v2.10\pic\sources\c99\common\doprnt.c"
 11400 ;; Parameters:    Size  Location     Type
 11401 ;;  fp              2   41[COMRAM] PTR struct _IO_FILE
 11402 ;;		 -> sprintf@f(6), 
 11403 ;;  fmt             2   43[COMRAM] PTR const unsigned char 
 11404 ;;		 -> STR_8(5), STR_7(5), STR_6(5), STR_5(5), 
 11405 ;;		 -> STR_4(5), STR_3(5), 
 11406 ;;  ap              2   45[COMRAM] PTR PTR void 
 11407 ;;		 -> sprintf@ap(2), 
 11408 ;; Auto vars:     Size  Location     Type
 11409 ;;  cfmt            2   47[COMRAM] PTR unsigned char 
 11410 ;;		 -> STR_8(5), STR_7(5), STR_6(5), STR_5(5), 
 11411 ;;		 -> STR_4(5), STR_3(5), 
 11412 ;; Return value:  Size  Location     Type
 11413 ;;                  2   41[COMRAM] int 
 11414 ;; Registers used:
 11415 ;;		wreg, fsr1l, fsr1h, fsr2l, fsr2h, status,2, status,0, tblptrl, tblptrh, tblptru, cstack
 11416 ;; Tracked objects:
 11417 ;;		On entry : 0/0
 11418 ;;		On exit  : 0/0
 11419 ;;		Unchanged: 0/0
 11420 ;; Data sizes:     COMRAM   BANK0   BANK1   BANK2   BANK3   BANK4   BANK5
 11421 ;;      Params:         6       0       0       0       0       0       0
 11422 ;;      Locals:         2       0       0       0       0       0       0
 11423 ;;      Temps:          0       0       0       0       0       0       0
 11424 ;;      Totals:         8       0       0       0       0       0       0
 11425 ;;Total ram usage:        8 bytes
 11426 ;; Hardware stack levels used:    1
 11427 ;; Hardware stack levels required when called:    4
 11428 ;; This function calls:
 11429 ;;		_vfpfcnvrt
 11430 ;; This function is called by:
 11431 ;;		_sprintf
 11432 ;; This function uses a non-reentrant model
 11433 ;;
 11434                           
 11435                           	psect	text31
 11436  004068                     __ptext31:
 11437                           	opt callstack 0
 11438  004068                     _vfprintf:
 11439                           	opt callstack 21
 11440  004068                     
 11441                           ;C:\Program Files (x86)\Microchip\xc8\v2.10\pic\sources\c99\common\doprnt.c: 1368: int v
      +                          fprintf(FILE *fp, const char *fmt, va_list ap);C:\Program Files (x86)\Microchip\xc8\v2.1
      +                          0\pic\sources\c99\common\doprnt.c: 1369: {;C:\Program Files (x86)\Microchip\xc8\v2.10\pi
      +                          c\sources\c99\common\doprnt.c: 1371:     char *cfmt;;C:\Program Files (x86)\Microchip\xc
      +                          8\v2.10\pic\sources\c99\common\doprnt.c: 1373:     cfmt = (char *)fmt;
 11442  004068  C02C  F030         	movff	vfprintf@fmt,vfprintf@cfmt
 11443  00406C  C02D  F031         	movff	vfprintf@fmt+1,vfprintf@cfmt+1
 11444  004070                     
 11445                           ;C:\Program Files (x86)\Microchip\xc8\v2.10\pic\sources\c99\common\doprnt.c: 1374:     n
      +                          out = 0;
 11446  004070  0E00               	movlw	0
 11447  004072  6E4C               	movwf	(_nout+1)^0,c
 11448  004074  0E00               	movlw	0
 11449  004076  6E4B               	movwf	_nout^0,c
 11450                           
 11451                           ;C:\Program Files (x86)\Microchip\xc8\v2.10\pic\sources\c99\common\doprnt.c: 1375:     w
      +                          hile (*cfmt) {
 11452  004078  EF50  F020         	goto	i2l2505
 11453  00407C                     i2l2503:
 11454                           
 11455                           ;C:\Program Files (x86)\Microchip\xc8\v2.10\pic\sources\c99\common\doprnt.c: 1376:      
      +                             nout += vfpfcnvrt(fp, &cfmt, ap);
 11456  00407C  C02A  F020         	movff	vfprintf@fp,vfpfcnvrt@fp
 11457  004080  C02B  F021         	movff	vfprintf@fp+1,vfpfcnvrt@fp+1
 11458  004084  0E30               	movlw	low vfprintf@cfmt
 11459  004086  6E22               	movwf	vfpfcnvrt@fmt^0,c
 11460  004088  0E00               	movlw	high vfprintf@cfmt
 11461  00408A  6E23               	movwf	(vfpfcnvrt@fmt+1)^0,c
 11462  00408C  C02E  F024         	movff	vfprintf@ap,vfpfcnvrt@ap
 11463  004090  C02F  F025         	movff	vfprintf@ap+1,vfpfcnvrt@ap+1
 11464  004094  EC42  F019         	call	_vfpfcnvrt	;wreg free
 11465  004098  5020               	movf	?_vfpfcnvrt^0,w,c
 11466  00409A  264B               	addwf	_nout^0,f,c
 11467  00409C  5021               	movf	(?_vfpfcnvrt+1)^0,w,c
 11468  00409E  224C               	addwfc	(_nout+1)^0,f,c
 11469  0040A0                     i2l2505:
 11470                           
 11471                           ;C:\Program Files (x86)\Microchip\xc8\v2.10\pic\sources\c99\common\doprnt.c: 1375:     w
      +                          hile (*cfmt) {
 11472  0040A0  C030  FFF6         	movff	vfprintf@cfmt,tblptrl
 11473  0040A4  C031  FFF7         	movff	vfprintf@cfmt+1,tblptrh
 11474  0040A8                     	if	0	;tblptru may be non-zero
 11475  0040A8                     	endif
 11476  0040A8                     	if	0	;tblptru may be non-zero
 11477  0040A8                     	endif
 11478  0040A8  0008               	tblrd		*
 11479  0040AA  50F5               	movf	tablat,w,c
 11480  0040AC  0900               	iorlw	0
 11481  0040AE  A4D8               	btfss	status,2,c
 11482  0040B0  EF5C  F020         	goto	i2u1160_41
 11483  0040B4  EF5E  F020         	goto	i2u1160_40
 11484  0040B8                     i2u1160_41:
 11485  0040B8  EF3E  F020         	goto	i2l2503
 11486  0040BC                     i2u1160_40:
 11487  0040BC                     
 11488                           ;C:\Program Files (x86)\Microchip\xc8\v2.10\pic\sources\c99\common\doprnt.c: 1378:     r
      +                          eturn nout;
 11489  0040BC  C04B  F02A         	movff	_nout,?_vfprintf
 11490  0040C0  C04C  F02B         	movff	_nout+1,?_vfprintf+1
 11491  0040C4  0012               	return		;funcret
 11492  0040C6                     __end_of_vfprintf:
 11493                           	opt callstack 0
 11494                           
 11495 ;; *************** function _vfpfcnvrt *****************
 11496 ;; Defined at:
 11497 ;;		line 670 in file "C:\Program Files (x86)\Microchip\xc8\v2.10\pic\sources\c99\common\doprnt.c"
 11498 ;; Parameters:    Size  Location     Type
 11499 ;;  fp              2   31[COMRAM] PTR struct _IO_FILE
 11500 ;;		 -> sprintf@f(6), 
 11501 ;;  fmt             2   33[COMRAM] PTR PTR unsigned char 
 11502 ;;		 -> vfprintf@cfmt(2), 
 11503 ;;  ap              2   35[COMRAM] PTR PTR void 
 11504 ;;		 -> sprintf@ap(2), 
 11505 ;; Auto vars:     Size  Location     Type
 11506 ;;  llu             8    0        unsigned long long 
 11507 ;;  ll              8    0        long long 
 11508 ;;  f               4    0        long long 
 11509 ;;  vp              3    0        PTR void 
 11510 ;;  ct              3    0        unsigned char [3]
 11511 ;;  cp              2   39[COMRAM] PTR unsigned char 
 11512 ;;		 -> ?_sprintf(2), isr@str(50), 
 11513 ;;  i               2    0        int 
 11514 ;;  done            2    0        int 
 11515 ;;  c               1    0        unsigned char 
 11516 ;; Return value:  Size  Location     Type
 11517 ;;                  2   31[COMRAM] int 
 11518 ;; Registers used:
 11519 ;;		wreg, fsr1l, fsr1h, fsr2l, fsr2h, status,2, status,0, tblptrl, tblptrh, tblptru, cstack
 11520 ;; Tracked objects:
 11521 ;;		On entry : 0/0
 11522 ;;		On exit  : 0/0
 11523 ;;		Unchanged: 0/0
 11524 ;; Data sizes:     COMRAM   BANK0   BANK1   BANK2   BANK3   BANK4   BANK5
 11525 ;;      Params:         6       0       0       0       0       0       0
 11526 ;;      Locals:         2       0       0       0       0       0       0
 11527 ;;      Temps:          2       0       0       0       0       0       0
 11528 ;;      Totals:        10       0       0       0       0       0       0
 11529 ;;Total ram usage:       10 bytes
 11530 ;; Hardware stack levels used:    1
 11531 ;; Hardware stack levels required when called:    3
 11532 ;; This function calls:
 11533 ;;		_fputc
 11534 ;;		_stoa
 11535 ;; This function is called by:
 11536 ;;		_vfprintf
 11537 ;; This function uses a non-reentrant model
 11538 ;;
 11539                           
 11540                           	psect	text32
 11541  003284                     __ptext32:
 11542                           	opt callstack 0
 11543  003284                     _vfpfcnvrt:
 11544                           	opt callstack 21
 11545  003284                     
 11546                           ;C:\Program Files (x86)\Microchip\xc8\v2.10\pic\sources\c99\common\doprnt.c: 670: static
      +                           int vfpfcnvrt(FILE *fp, char *fmt[], va_list ap);C:\Program Files (x86)\Microchip\xc8\v
      +                          2.10\pic\sources\c99\common\doprnt.c: 671: {;C:\Program Files (x86)\Microchip\xc8\v2.10\
      +                          pic\sources\c99\common\doprnt.c: 672:     char c, *cp, ct[3];;C:\Program Files (x86)\Mic
      +                          rochip\xc8\v2.10\pic\sources\c99\common\doprnt.c: 673:     int done, i;;C:\Program Files
      +                           (x86)\Microchip\xc8\v2.10\pic\sources\c99\common\doprnt.c: 674:     long long ll;
 11547  003284  C022  FFD9         	movff	vfpfcnvrt@fmt,fsr2l
 11548  003288  C023  FFDA         	movff	vfpfcnvrt@fmt+1,fsr2h
 11549  00328C  CFDE FFF6          	movff	postinc2,tblptrl
 11550  003290  CFDD FFF7          	movff	postdec2,tblptrh
 11551  003294                     	if	0	;tblptru may be non-zero
 11552  003294                     	endif
 11553  003294                     	if	0	;tblptru may be non-zero
 11554  003294                     	endif
 11555  003294  0008               	tblrd		*
 11556  003296  50F5               	movf	tablat,w,c
 11557  003298  0A25               	xorlw	37
 11558  00329A  A4D8               	btfss	status,2,c
 11559  00329C  EF52  F019         	goto	i2u714_41
 11560  0032A0  EF54  F019         	goto	i2u714_40
 11561  0032A4                     i2u714_41:
 11562  0032A4  EFD8  F019         	goto	i2l2371
 11563  0032A8                     i2u714_40:
 11564  0032A8                     
 11565                           ;C:\Program Files (x86)\Microchip\xc8\v2.10\pic\sources\c99\common\doprnt.c: 681:       
      +                            ++*fmt;
 11566  0032A8  C022  FFD9         	movff	vfpfcnvrt@fmt,fsr2l
 11567  0032AC  C023  FFDA         	movff	vfpfcnvrt@fmt+1,fsr2h
 11568  0032B0  2ADE               	incf	postinc2,f,c
 11569  0032B2  0E00               	movlw	0
 11570  0032B4  22DD               	addwfc	postdec2,f,c
 11571  0032B6                     
 11572                           ;C:\Program Files (x86)\Microchip\xc8\v2.10\pic\sources\c99\common\doprnt.c: 683:       
      +                            flags = width = 0;
 11573  0032B6  0E00               	movlw	0
 11574  0032B8  6E4E               	movwf	(_width+1)^0,c
 11575  0032BA  0E00               	movlw	0
 11576  0032BC  6E4D               	movwf	_width^0,c
 11577  0032BE  C04D  F051         	movff	_width,_flags
 11578  0032C2  C04E  F052         	movff	_width+1,_flags+1
 11579  0032C6                     
 11580                           ;C:\Program Files (x86)\Microchip\xc8\v2.10\pic\sources\c99\common\doprnt.c: 684:       
      +                            prec = -1;
 11581  0032C6  684F               	setf	_prec^0,c
 11582  0032C8  6850               	setf	(_prec+1)^0,c
 11583  0032CA                     
 11584                           ;C:\Program Files (x86)\Microchip\xc8\v2.10\pic\sources\c99\common\doprnt.c: 1149:      
      +                             if (*fmt[0] == 's') {
 11585  0032CA  C022  FFD9         	movff	vfpfcnvrt@fmt,fsr2l
 11586  0032CE  C023  FFDA         	movff	vfpfcnvrt@fmt+1,fsr2h
 11587  0032D2  CFDE FFF6          	movff	postinc2,tblptrl
 11588  0032D6  CFDD FFF7          	movff	postdec2,tblptrh
 11589  0032DA                     	if	0	;tblptru may be non-zero
 11590  0032DA                     	endif
 11591  0032DA                     	if	0	;tblptru may be non-zero
 11592  0032DA                     	endif
 11593  0032DA  0008               	tblrd		*
 11594  0032DC  50F5               	movf	tablat,w,c
 11595  0032DE  0A73               	xorlw	115
 11596  0032E0  A4D8               	btfss	status,2,c
 11597  0032E2  EF75  F019         	goto	i2u715_41
 11598  0032E6  EF77  F019         	goto	i2u715_40
 11599  0032EA                     i2u715_41:
 11600  0032EA  EFA2  F019         	goto	i2l2355
 11601  0032EE                     i2u715_40:
 11602  0032EE                     
 11603                           ;C:\Program Files (x86)\Microchip\xc8\v2.10\pic\sources\c99\common\doprnt.c: 1151:      
      +                                 ++*fmt;
 11604  0032EE  C022  FFD9         	movff	vfpfcnvrt@fmt,fsr2l
 11605  0032F2  C023  FFDA         	movff	vfpfcnvrt@fmt+1,fsr2h
 11606  0032F6  2ADE               	incf	postinc2,f,c
 11607  0032F8  0E00               	movlw	0
 11608  0032FA  22DD               	addwfc	postdec2,f,c
 11609                           
 11610                           ;C:\Program Files (x86)\Microchip\xc8\v2.10\pic\sources\c99\common\doprnt.c: 1152:      
      +                                 cp = (*(char * *)__va_arg(*(char * **)ap, (char *)0));
 11611  0032FC  C024  FFD9         	movff	vfpfcnvrt@ap,fsr2l
 11612  003300  C025  FFDA         	movff	vfpfcnvrt@ap+1,fsr2h
 11613  003304  CFDF F026          	movff	indf2,??_vfpfcnvrt
 11614  003308  0E02               	movlw	2
 11615  00330A  26DE               	addwf	postinc2,f,c
 11616  00330C  CFDF F027          	movff	indf2,??_vfpfcnvrt+1
 11617  003310  0E00               	movlw	0
 11618  003312  22DD               	addwfc	postdec2,f,c
 11619  003314  C026  FFD9         	movff	??_vfpfcnvrt,fsr2l
 11620  003318  C027  FFDA         	movff	??_vfpfcnvrt+1,fsr2h
 11621  00331C  CFDE F028          	movff	postinc2,vfpfcnvrt@cp
 11622  003320  CFDD F029          	movff	postdec2,vfpfcnvrt@cp+1
 11623  003324                     
 11624                           ;C:\Program Files (x86)\Microchip\xc8\v2.10\pic\sources\c99\common\doprnt.c: 1154:      
      +                                 return stoa(fp, cp);
 11625  003324  C020  F00A         	movff	vfpfcnvrt@fp,stoa@fp
 11626  003328  C021  F00B         	movff	vfpfcnvrt@fp+1,stoa@fp+1
 11627  00332C  C028  F00C         	movff	vfpfcnvrt@cp,stoa@s
 11628  003330  C029  F00D         	movff	vfpfcnvrt@cp+1,stoa@s+1
 11629  003334  EC81  F018         	call	_stoa	;wreg free
 11630  003338  C00A  F020         	movff	?_stoa,?_vfpfcnvrt
 11631  00333C  C00B  F021         	movff	?_stoa+1,?_vfpfcnvrt+1
 11632  003340  EFF3  F019         	goto	i2l452
 11633  003344                     i2l2355:
 11634                           
 11635                           ;C:\Program Files (x86)\Microchip\xc8\v2.10\pic\sources\c99\common\doprnt.c: 1350:      
      +                             if ((*fmt)[0] == '%') {
 11636  003344  C022  FFD9         	movff	vfpfcnvrt@fmt,fsr2l
 11637  003348  C023  FFDA         	movff	vfpfcnvrt@fmt+1,fsr2h
 11638  00334C  CFDE FFF6          	movff	postinc2,tblptrl
 11639  003350  CFDD FFF7          	movff	postdec2,tblptrh
 11640  003354                     	if	0	;tblptru may be non-zero
 11641  003354                     	endif
 11642  003354                     	if	0	;tblptru may be non-zero
 11643  003354                     	endif
 11644  003354  0008               	tblrd		*
 11645  003356  50F5               	movf	tablat,w,c
 11646  003358  0A25               	xorlw	37
 11647  00335A  A4D8               	btfss	status,2,c
 11648  00335C  EFB2  F019         	goto	i2u716_41
 11649  003360  EFB4  F019         	goto	i2u716_40
 11650  003364                     i2u716_41:
 11651  003364  EFCB  F019         	goto	i2l2365
 11652  003368                     i2u716_40:
 11653  003368                     
 11654                           ;C:\Program Files (x86)\Microchip\xc8\v2.10\pic\sources\c99\common\doprnt.c: 1351:      
      +                                 ++*fmt;
 11655  003368  C022  FFD9         	movff	vfpfcnvrt@fmt,fsr2l
 11656  00336C  C023  FFDA         	movff	vfpfcnvrt@fmt+1,fsr2h
 11657  003370  2ADE               	incf	postinc2,f,c
 11658  003372  0E00               	movlw	0
 11659  003374  22DD               	addwfc	postdec2,f,c
 11660  003376                     
 11661                           ;C:\Program Files (x86)\Microchip\xc8\v2.10\pic\sources\c99\common\doprnt.c: 1352:      
      +                                 fputc((int)'%', fp);
 11662  003376  0E00               	movlw	0
 11663  003378  6E02               	movwf	(fputc@c+1)^0,c
 11664  00337A  0E25               	movlw	37
 11665  00337C  6E01               	movwf	fputc@c^0,c
 11666  00337E  C020  F003         	movff	vfpfcnvrt@fp,fputc@fp
 11667  003382  C021  F004         	movff	vfpfcnvrt@fp+1,fputc@fp+1
 11668  003386  ECB4  F01D         	call	_fputc	;wreg free
 11669  00338A                     i2l2361:
 11670                           
 11671                           ;C:\Program Files (x86)\Microchip\xc8\v2.10\pic\sources\c99\common\doprnt.c: 1353:      
      +                                 return 1;
 11672  00338A  0E00               	movlw	0
 11673  00338C  6E21               	movwf	(?_vfpfcnvrt+1)^0,c
 11674  00338E  0E01               	movlw	1
 11675  003390  6E20               	movwf	?_vfpfcnvrt^0,c
 11676  003392  EFF3  F019         	goto	i2l452
 11677  003396                     i2l2365:
 11678                           
 11679                           ;C:\Program Files (x86)\Microchip\xc8\v2.10\pic\sources\c99\common\doprnt.c: 1357:      
      +                             ++*fmt;
 11680  003396  C022  FFD9         	movff	vfpfcnvrt@fmt,fsr2l
 11681  00339A  C023  FFDA         	movff	vfpfcnvrt@fmt+1,fsr2h
 11682  00339E  2ADE               	incf	postinc2,f,c
 11683  0033A0  0E00               	movlw	0
 11684  0033A2  22DD               	addwfc	postdec2,f,c
 11685  0033A4                     
 11686                           ;C:\Program Files (x86)\Microchip\xc8\v2.10\pic\sources\c99\common\doprnt.c: 1358:      
      +                             return 0;
 11687  0033A4  0E00               	movlw	0
 11688  0033A6  6E21               	movwf	(?_vfpfcnvrt+1)^0,c
 11689  0033A8  0E00               	movlw	0
 11690  0033AA  6E20               	movwf	?_vfpfcnvrt^0,c
 11691  0033AC  EFF3  F019         	goto	i2l452
 11692  0033B0                     i2l2371:
 11693                           
 11694                           ;C:\Program Files (x86)\Microchip\xc8\v2.10\pic\sources\c99\common\doprnt.c: 1362:     f
      +                          putc((int)(*fmt)[0], fp);
 11695  0033B0  C022  FFD9         	movff	vfpfcnvrt@fmt,fsr2l
 11696  0033B4  C023  FFDA         	movff	vfpfcnvrt@fmt+1,fsr2h
 11697  0033B8  CFDE FFF6          	movff	postinc2,tblptrl
 11698  0033BC  CFDD FFF7          	movff	postdec2,tblptrh
 11699  0033C0                     	if	0	;tblptru may be non-zero
 11700  0033C0                     	endif
 11701  0033C0                     	if	0	;tblptru may be non-zero
 11702  0033C0                     	endif
 11703  0033C0  0008               	tblrd		*
 11704  0033C2  50F5               	movf	tablat,w,c
 11705  0033C4  6E01               	movwf	fputc@c^0,c
 11706  0033C6  6A02               	clrf	(fputc@c+1)^0,c
 11707  0033C8  C020  F003         	movff	vfpfcnvrt@fp,fputc@fp
 11708  0033CC  C021  F004         	movff	vfpfcnvrt@fp+1,fputc@fp+1
 11709  0033D0  ECB4  F01D         	call	_fputc	;wreg free
 11710  0033D4                     
 11711                           ;C:\Program Files (x86)\Microchip\xc8\v2.10\pic\sources\c99\common\doprnt.c: 1363:     +
      +                          +*fmt;
 11712  0033D4  C022  FFD9         	movff	vfpfcnvrt@fmt,fsr2l
 11713  0033D8  C023  FFDA         	movff	vfpfcnvrt@fmt+1,fsr2h
 11714  0033DC  2ADE               	incf	postinc2,f,c
 11715  0033DE  0E00               	movlw	0
 11716  0033E0  22DD               	addwfc	postdec2,f,c
 11717  0033E2  EFC5  F019         	goto	i2l2361
 11718  0033E6                     i2l452:
 11719  0033E6  0012               	return		;funcret
 11720  0033E8                     __end_of_vfpfcnvrt:
 11721                           	opt callstack 0
 11722                           
 11723 ;; *************** function _stoa *****************
 11724 ;; Defined at:
 11725 ;;		line 546 in file "C:\Program Files (x86)\Microchip\xc8\v2.10\pic\sources\c99\common\doprnt.c"
 11726 ;; Parameters:    Size  Location     Type
 11727 ;;  fp              2    9[COMRAM] PTR struct _IO_FILE
 11728 ;;		 -> sprintf@f(6), 
 11729 ;;  s               2   11[COMRAM] PTR unsigned char 
 11730 ;;		 -> ?_sprintf(2), isr@str(50), 
 11731 ;; Auto vars:     Size  Location     Type
 11732 ;;  nuls            7   14[COMRAM] unsigned char [7]
 11733 ;;  l               2   29[COMRAM] int 
 11734 ;;  p               2   27[COMRAM] int 
 11735 ;;  cp              2   25[COMRAM] PTR unsigned char 
 11736 ;;		 -> ?_sprintf(2), stoa@nuls(7), isr@str(50), 
 11737 ;;  w               2   23[COMRAM] int 
 11738 ;;  i               2   21[COMRAM] int 
 11739 ;; Return value:  Size  Location     Type
 11740 ;;                  2    9[COMRAM] int 
 11741 ;; Registers used:
 11742 ;;		wreg, fsr1l, fsr1h, fsr2l, fsr2h, status,2, status,0, cstack
 11743 ;; Tracked objects:
 11744 ;;		On entry : 0/0
 11745 ;;		On exit  : 0/0
 11746 ;;		Unchanged: 0/0
 11747 ;; Data sizes:     COMRAM   BANK0   BANK1   BANK2   BANK3   BANK4   BANK5
 11748 ;;      Params:         4       0       0       0       0       0       0
 11749 ;;      Locals:        17       0       0       0       0       0       0
 11750 ;;      Temps:          1       0       0       0       0       0       0
 11751 ;;      Totals:        22       0       0       0       0       0       0
 11752 ;;Total ram usage:       22 bytes
 11753 ;; Hardware stack levels used:    1
 11754 ;; Hardware stack levels required when called:    2
 11755 ;; This function calls:
 11756 ;;		_fputc
 11757 ;;		_strlen
 11758 ;; This function is called by:
 11759 ;;		_vfpfcnvrt
 11760 ;; This function uses a non-reentrant model
 11761 ;;
 11762                           
 11763                           	psect	text33
 11764  003102                     __ptext33:
 11765                           	opt callstack 0
 11766  003102                     _stoa:
 11767                           	opt callstack 21
 11768  003102                     
 11769                           ;C:\Program Files (x86)\Microchip\xc8\v2.10\pic\sources\c99\common\doprnt.c: 546: static
      +                           int stoa(FILE *fp, char *s);C:\Program Files (x86)\Microchip\xc8\v2.10\pic\sources\c99\
      +                          common\doprnt.c: 547: {;C:\Program Files (x86)\Microchip\xc8\v2.10\pic\sources\c99\commo
      +                          n\doprnt.c: 548:     char *cp, nuls[] = "(null)";
 11770  003102  EE20  F067         	lfsr	2,stoa@F1131
 11771  003106  EE10  F00F         	lfsr	1,stoa@nuls
 11772  00310A  0E06               	movlw	6
 11773  00310C                     i2u705_41:
 11774  00310C  CFDB FFE3          	movff	plusw2,plusw1
 11775  003110  06E8               	decf	wreg,f,c
 11776  003112  E2FC               	bc	i2u705_41
 11777  003114                     
 11778                           ;C:\Program Files (x86)\Microchip\xc8\v2.10\pic\sources\c99\common\doprnt.c: 549:     in
      +                          t i, l, p, w;;C:\Program Files (x86)\Microchip\xc8\v2.10\pic\sources\c99\common\doprnt.c
      +                          : 552:     cp = s;
 11779  003114  C00C  F01A         	movff	stoa@s,stoa@cp
 11780  003118  C00D  F01B         	movff	stoa@s+1,stoa@cp+1
 11781  00311C                     
 11782                           ;C:\Program Files (x86)\Microchip\xc8\v2.10\pic\sources\c99\common\doprnt.c: 553:     if
      +                           (!cp) {
 11783  00311C  501A               	movf	stoa@cp^0,w,c
 11784  00311E  101B               	iorwf	(stoa@cp+1)^0,w,c
 11785  003120  A4D8               	btfss	status,2,c
 11786  003122  EF95  F018         	goto	i2u706_41
 11787  003126  EF97  F018         	goto	i2u706_40
 11788  00312A                     i2u706_41:
 11789  00312A  EF9B  F018         	goto	i2l2305
 11790  00312E                     i2u706_40:
 11791  00312E                     
 11792                           ;C:\Program Files (x86)\Microchip\xc8\v2.10\pic\sources\c99\common\doprnt.c: 554:       
      +                            cp = nuls;
 11793  00312E  0E0F               	movlw	low stoa@nuls
 11794  003130  6E1A               	movwf	stoa@cp^0,c
 11795  003132  0E00               	movlw	high stoa@nuls
 11796  003134  6E1B               	movwf	(stoa@cp+1)^0,c
 11797  003136                     i2l2305:
 11798                           
 11799                           ;C:\Program Files (x86)\Microchip\xc8\v2.10\pic\sources\c99\common\doprnt.c: 558:     l 
      +                          = strlen(cp);
 11800  003136  C01A  F001         	movff	stoa@cp,strlen@s
 11801  00313A  C01B  F002         	movff	stoa@cp+1,strlen@s+1
 11802  00313E  ECD5  F020         	call	_strlen	;wreg free
 11803  003142  C001  F01E         	movff	?_strlen,stoa@l
 11804  003146  C002  F01F         	movff	?_strlen+1,stoa@l+1
 11805  00314A                     
 11806                           ;C:\Program Files (x86)\Microchip\xc8\v2.10\pic\sources\c99\common\doprnt.c: 559:     p 
      +                          = prec;
 11807  00314A  C04F  F01C         	movff	_prec,stoa@p
 11808  00314E  C050  F01D         	movff	_prec+1,stoa@p+1
 11809  003152                     
 11810                           ;C:\Program Files (x86)\Microchip\xc8\v2.10\pic\sources\c99\common\doprnt.c: 560:     l 
      +                          = (!(p < 0) && (p < l)) ? p : l;
 11811  003152  BE1D               	btfsc	(stoa@p+1)^0,7,c
 11812  003154  EFAE  F018         	goto	i2u707_41
 11813  003158  EFB0  F018         	goto	i2u707_40
 11814  00315C                     i2u707_41:
 11815  00315C  EFC5  F018         	goto	i2l433
 11816  003160                     i2u707_40:
 11817  003160  501E               	movf	stoa@l^0,w,c
 11818  003162  5C1C               	subwf	stoa@p^0,w,c
 11819  003164  501D               	movf	(stoa@p+1)^0,w,c
 11820  003166  0A80               	xorlw	128
 11821  003168  6E0E               	movwf	??_stoa^0,c
 11822  00316A  501F               	movf	(stoa@l+1)^0,w,c
 11823  00316C  0A80               	xorlw	128
 11824  00316E  580E               	subwfb	??_stoa^0,w,c
 11825  003170  A0D8               	btfss	status,0,c
 11826  003172  EFBD  F018         	goto	i2u708_41
 11827  003176  EFBF  F018         	goto	i2u708_40
 11828  00317A                     i2u708_41:
 11829  00317A  EFC1  F018         	goto	i2l431
 11830  00317E                     i2u708_40:
 11831  00317E  EFC5  F018         	goto	i2l433
 11832  003182                     i2l431:
 11833  003182  C01C  F01E         	movff	stoa@p,stoa@l
 11834  003186  C01D  F01F         	movff	stoa@p+1,stoa@l+1
 11835  00318A                     i2l433:
 11836                           
 11837                           ;C:\Program Files (x86)\Microchip\xc8\v2.10\pic\sources\c99\common\doprnt.c: 561:     p 
      +                          = l;
 11838  00318A  C01E  F01C         	movff	stoa@l,stoa@p
 11839  00318E  C01F  F01D         	movff	stoa@l+1,stoa@p+1
 11840                           
 11841                           ;C:\Program Files (x86)\Microchip\xc8\v2.10\pic\sources\c99\common\doprnt.c: 562:     w 
      +                          = width;
 11842  003192  C04D  F018         	movff	_width,stoa@w
 11843  003196  C04E  F019         	movff	_width+1,stoa@w+1
 11844                           
 11845                           ;C:\Program Files (x86)\Microchip\xc8\v2.10\pic\sources\c99\common\doprnt.c: 565:     if
      +                           (!(flags & (1 << 0))) {
 11846  00319A  B051               	btfsc	_flags^0,0,c
 11847  00319C  EFD2  F018         	goto	i2u709_41
 11848  0031A0  EFD4  F018         	goto	i2u709_40
 11849  0031A4                     i2u709_41:
 11850  0031A4  EFF1  F018         	goto	i2l2321
 11851  0031A8                     i2u709_40:
 11852  0031A8  EFE2  F018         	goto	i2l2319
 11853  0031AC                     i2l2315:
 11854                           
 11855                           ;C:\Program Files (x86)\Microchip\xc8\v2.10\pic\sources\c99\common\doprnt.c: 567:       
      +                                fputc(' ', fp);
 11856  0031AC  0E00               	movlw	0
 11857  0031AE  6E02               	movwf	(fputc@c+1)^0,c
 11858  0031B0  0E20               	movlw	32
 11859  0031B2  6E01               	movwf	fputc@c^0,c
 11860  0031B4  C00A  F003         	movff	stoa@fp,fputc@fp
 11861  0031B8  C00B  F004         	movff	stoa@fp+1,fputc@fp+1
 11862  0031BC  ECB4  F01D         	call	_fputc	;wreg free
 11863  0031C0                     
 11864                           ;C:\Program Files (x86)\Microchip\xc8\v2.10\pic\sources\c99\common\doprnt.c: 568:       
      +                                ++l;
 11865  0031C0  4A1E               	infsnz	stoa@l^0,f,c
 11866  0031C2  2A1F               	incf	(stoa@l+1)^0,f,c
 11867  0031C4                     i2l2319:
 11868                           
 11869                           ;C:\Program Files (x86)\Microchip\xc8\v2.10\pic\sources\c99\common\doprnt.c: 566:       
      +                            while (l < w) {
 11870  0031C4  5018               	movf	stoa@w^0,w,c
 11871  0031C6  5C1E               	subwf	stoa@l^0,w,c
 11872  0031C8  501F               	movf	(stoa@l+1)^0,w,c
 11873  0031CA  0A80               	xorlw	128
 11874  0031CC  6E0E               	movwf	??_stoa^0,c
 11875  0031CE  5019               	movf	(stoa@w+1)^0,w,c
 11876  0031D0  0A80               	xorlw	128
 11877  0031D2  580E               	subwfb	??_stoa^0,w,c
 11878  0031D4  A0D8               	btfss	status,0,c
 11879  0031D6  EFEF  F018         	goto	i2u710_41
 11880  0031DA  EFF1  F018         	goto	i2u710_40
 11881  0031DE                     i2u710_41:
 11882  0031DE  EFD6  F018         	goto	i2l2315
 11883  0031E2                     i2u710_40:
 11884  0031E2                     i2l2321:
 11885                           
 11886                           ;C:\Program Files (x86)\Microchip\xc8\v2.10\pic\sources\c99\common\doprnt.c: 573:     i 
      +                          = 0;
 11887  0031E2  0E00               	movlw	0
 11888  0031E4  6E17               	movwf	(stoa@i+1)^0,c
 11889  0031E6  0E00               	movlw	0
 11890  0031E8  6E16               	movwf	stoa@i^0,c
 11891                           
 11892                           ;C:\Program Files (x86)\Microchip\xc8\v2.10\pic\sources\c99\common\doprnt.c: 574:     wh
      +                          ile (i < p) {
 11893  0031EA  EF0A  F019         	goto	i2l2329
 11894  0031EE                     i2l2323:
 11895                           
 11896                           ;C:\Program Files (x86)\Microchip\xc8\v2.10\pic\sources\c99\common\doprnt.c: 575:       
      +                            fputc(*cp, fp);
 11897  0031EE  C01A  FFD9         	movff	stoa@cp,fsr2l
 11898  0031F2  C01B  FFDA         	movff	stoa@cp+1,fsr2h
 11899  0031F6  50DF               	movf	indf2,w,c
 11900  0031F8  6E0E               	movwf	??_stoa^0,c
 11901  0031FA  500E               	movf	??_stoa^0,w,c
 11902  0031FC  6E01               	movwf	fputc@c^0,c
 11903  0031FE  6A02               	clrf	(fputc@c+1)^0,c
 11904  003200  C00A  F003         	movff	stoa@fp,fputc@fp
 11905  003204  C00B  F004         	movff	stoa@fp+1,fputc@fp+1
 11906  003208  ECB4  F01D         	call	_fputc	;wreg free
 11907  00320C                     
 11908                           ;C:\Program Files (x86)\Microchip\xc8\v2.10\pic\sources\c99\common\doprnt.c: 576:       
      +                            ++cp;
 11909  00320C  4A1A               	infsnz	stoa@cp^0,f,c
 11910  00320E  2A1B               	incf	(stoa@cp+1)^0,f,c
 11911  003210                     
 11912                           ;C:\Program Files (x86)\Microchip\xc8\v2.10\pic\sources\c99\common\doprnt.c: 577:       
      +                            ++i;
 11913  003210  4A16               	infsnz	stoa@i^0,f,c
 11914  003212  2A17               	incf	(stoa@i+1)^0,f,c
 11915  003214                     i2l2329:
 11916                           
 11917                           ;C:\Program Files (x86)\Microchip\xc8\v2.10\pic\sources\c99\common\doprnt.c: 574:     wh
      +                          ile (i < p) {
 11918  003214  501C               	movf	stoa@p^0,w,c
 11919  003216  5C16               	subwf	stoa@i^0,w,c
 11920  003218  5017               	movf	(stoa@i+1)^0,w,c
 11921  00321A  0A80               	xorlw	128
 11922  00321C  6E0E               	movwf	??_stoa^0,c
 11923  00321E  501D               	movf	(stoa@p+1)^0,w,c
 11924  003220  0A80               	xorlw	128
 11925  003222  580E               	subwfb	??_stoa^0,w,c
 11926  003224  A0D8               	btfss	status,0,c
 11927  003226  EF17  F019         	goto	i2u711_41
 11928  00322A  EF19  F019         	goto	i2u711_40
 11929  00322E                     i2u711_41:
 11930  00322E  EFF7  F018         	goto	i2l2323
 11931  003232                     i2u711_40:
 11932  003232                     
 11933                           ;C:\Program Files (x86)\Microchip\xc8\v2.10\pic\sources\c99\common\doprnt.c: 581:     if
      +                           (flags & (1 << 0)) {
 11934  003232  A051               	btfss	_flags^0,0,c
 11935  003234  EF1E  F019         	goto	i2u712_41
 11936  003238  EF20  F019         	goto	i2u712_40
 11937  00323C                     i2u712_41:
 11938  00323C  EF3D  F019         	goto	i2l443
 11939  003240                     i2u712_40:
 11940  003240  EF2E  F019         	goto	i2l2337
 11941  003244                     i2l2333:
 11942                           
 11943                           ;C:\Program Files (x86)\Microchip\xc8\v2.10\pic\sources\c99\common\doprnt.c: 583:       
      +                                fputc(' ', fp);
 11944  003244  0E00               	movlw	0
 11945  003246  6E02               	movwf	(fputc@c+1)^0,c
 11946  003248  0E20               	movlw	32
 11947  00324A  6E01               	movwf	fputc@c^0,c
 11948  00324C  C00A  F003         	movff	stoa@fp,fputc@fp
 11949  003250  C00B  F004         	movff	stoa@fp+1,fputc@fp+1
 11950  003254  ECB4  F01D         	call	_fputc	;wreg free
 11951  003258                     
 11952                           ;C:\Program Files (x86)\Microchip\xc8\v2.10\pic\sources\c99\common\doprnt.c: 584:       
      +                                ++l;
 11953  003258  4A1E               	infsnz	stoa@l^0,f,c
 11954  00325A  2A1F               	incf	(stoa@l+1)^0,f,c
 11955  00325C                     i2l2337:
 11956                           
 11957                           ;C:\Program Files (x86)\Microchip\xc8\v2.10\pic\sources\c99\common\doprnt.c: 582:       
      +                            while (l < w) {
 11958  00325C  5018               	movf	stoa@w^0,w,c
 11959  00325E  5C1E               	subwf	stoa@l^0,w,c
 11960  003260  501F               	movf	(stoa@l+1)^0,w,c
 11961  003262  0A80               	xorlw	128
 11962  003264  6E0E               	movwf	??_stoa^0,c
 11963  003266  5019               	movf	(stoa@w+1)^0,w,c
 11964  003268  0A80               	xorlw	128
 11965  00326A  580E               	subwfb	??_stoa^0,w,c
 11966  00326C  A0D8               	btfss	status,0,c
 11967  00326E  EF3B  F019         	goto	i2u713_41
 11968  003272  EF3D  F019         	goto	i2u713_40
 11969  003276                     i2u713_41:
 11970  003276  EF22  F019         	goto	i2l2333
 11971  00327A                     i2u713_40:
 11972  00327A                     i2l443:
 11973                           
 11974                           ;C:\Program Files (x86)\Microchip\xc8\v2.10\pic\sources\c99\common\doprnt.c: 588:     re
      +                          turn l;
 11975  00327A  C01E  F00A         	movff	stoa@l,?_stoa
 11976  00327E  C01F  F00B         	movff	stoa@l+1,?_stoa+1
 11977  003282  0012               	return		;funcret
 11978  003284                     __end_of_stoa:
 11979                           	opt callstack 0
 11980                           
 11981 ;; *************** function _strlen *****************
 11982 ;; Defined at:
 11983 ;;		line 5 in file "C:\Program Files (x86)\Microchip\xc8\v2.10\pic\sources\c99\common\strlen.c"
 11984 ;; Parameters:    Size  Location     Type
 11985 ;;  s               2    0[COMRAM] PTR const unsigned char 
 11986 ;;		 -> ?_sprintf(2), stoa@nuls(7), isr@str(50), 
 11987 ;; Auto vars:     Size  Location     Type
 11988 ;;  a               2    2[COMRAM] PTR const unsigned char 
 11989 ;;		 -> ?_sprintf(2), stoa@nuls(7), isr@str(50), 
 11990 ;; Return value:  Size  Location     Type
 11991 ;;                  2    0[COMRAM] unsigned int 
 11992 ;; Registers used:
 11993 ;;		wreg, fsr2l, fsr2h, status,2, status,0
 11994 ;; Tracked objects:
 11995 ;;		On entry : 0/0
 11996 ;;		On exit  : 0/0
 11997 ;;		Unchanged: 0/0
 11998 ;; Data sizes:     COMRAM   BANK0   BANK1   BANK2   BANK3   BANK4   BANK5
 11999 ;;      Params:         2       0       0       0       0       0       0
 12000 ;;      Locals:         2       0       0       0       0       0       0
 12001 ;;      Temps:          0       0       0       0       0       0       0
 12002 ;;      Totals:         4       0       0       0       0       0       0
 12003 ;;Total ram usage:        4 bytes
 12004 ;; Hardware stack levels used:    1
 12005 ;; This function calls:
 12006 ;;		Nothing
 12007 ;; This function is called by:
 12008 ;;		_stoa
 12009 ;; This function uses a non-reentrant model
 12010 ;;
 12011                           
 12012                           	psect	text34
 12013  0041AA                     __ptext34:
 12014                           	opt callstack 0
 12015  0041AA                     _strlen:
 12016                           	opt callstack 22
 12017  0041AA  C001  F003         	movff	strlen@s,strlen@a
 12018  0041AE  C002  F004         	movff	strlen@s+1,strlen@a+1
 12019  0041B2  EFDD  F020         	goto	i2l2291
 12020  0041B6                     i2l2289:
 12021  0041B6  4A01               	infsnz	strlen@s^0,f,c
 12022  0041B8  2A02               	incf	(strlen@s+1)^0,f,c
 12023  0041BA                     i2l2291:
 12024  0041BA  C001  FFD9         	movff	strlen@s,fsr2l
 12025  0041BE  C002  FFDA         	movff	strlen@s+1,fsr2h
 12026  0041C2  50DF               	movf	indf2,w,c
 12027  0041C4  A4D8               	btfss	status,2,c
 12028  0041C6  EFE7  F020         	goto	i2u704_41
 12029  0041CA  EFE9  F020         	goto	i2u704_40
 12030  0041CE                     i2u704_41:
 12031  0041CE  EFDB  F020         	goto	i2l2289
 12032  0041D2                     i2u704_40:
 12033  0041D2  5003               	movf	strlen@a^0,w,c
 12034  0041D4  5C01               	subwf	strlen@s^0,w,c
 12035  0041D6  6E01               	movwf	?_strlen^0,c
 12036  0041D8  5004               	movf	(strlen@a+1)^0,w,c
 12037  0041DA  5802               	subwfb	(strlen@s+1)^0,w,c
 12038  0041DC  6E02               	movwf	(?_strlen+1)^0,c
 12039  0041DE  0012               	return		;funcret
 12040  0041E0                     __end_of_strlen:
 12041                           	opt callstack 0
 12042                           
 12043 ;; *************** function _fputc *****************
 12044 ;; Defined at:
 12045 ;;		line 8 in file "C:\Program Files (x86)\Microchip\xc8\v2.10\pic\sources\c99\common\nf_fputc.c"
 12046 ;; Parameters:    Size  Location     Type
 12047 ;;  c               2    0[COMRAM] int 
 12048 ;;  fp              2    2[COMRAM] PTR struct _IO_FILE
 12049 ;;		 -> sprintf@f(6), 
 12050 ;; Auto vars:     Size  Location     Type
 12051 ;;		None
 12052 ;; Return value:  Size  Location     Type
 12053 ;;                  2    0[COMRAM] int 
 12054 ;; Registers used:
 12055 ;;		wreg, fsr1l, fsr1h, fsr2l, fsr2h, status,2, status,0, cstack
 12056 ;; Tracked objects:
 12057 ;;		On entry : 0/0
 12058 ;;		On exit  : 0/0
 12059 ;;		Unchanged: 0/0
 12060 ;; Data sizes:     COMRAM   BANK0   BANK1   BANK2   BANK3   BANK4   BANK5
 12061 ;;      Params:         4       0       0       0       0       0       0
 12062 ;;      Locals:         0       0       0       0       0       0       0
 12063 ;;      Temps:          5       0       0       0       0       0       0
 12064 ;;      Totals:         9       0       0       0       0       0       0
 12065 ;;Total ram usage:        9 bytes
 12066 ;; Hardware stack levels used:    1
 12067 ;; Hardware stack levels required when called:    1
 12068 ;; This function calls:
 12069 ;;		_putch
 12070 ;; This function is called by:
 12071 ;;		_stoa
 12072 ;;		_vfpfcnvrt
 12073 ;; This function uses a non-reentrant model
 12074 ;;
 12075                           
 12076                           	psect	text35
 12077  003B68                     __ptext35:
 12078                           	opt callstack 0
 12079  003B68                     _fputc:
 12080                           	opt callstack 21
 12081  003B68  5003               	movf	fputc@fp^0,w,c
 12082  003B6A  1004               	iorwf	(fputc@fp+1)^0,w,c
 12083  003B6C  B4D8               	btfsc	status,2,c
 12084  003B6E  EFBB  F01D         	goto	i2u700_41
 12085  003B72  EFBD  F01D         	goto	i2u700_40
 12086  003B76                     i2u700_41:
 12087  003B76  EFC6  F01D         	goto	i2l2277
 12088  003B7A                     i2u700_40:
 12089  003B7A  5003               	movf	fputc@fp^0,w,c
 12090  003B7C  1004               	iorwf	(fputc@fp+1)^0,w,c
 12091  003B7E  A4D8               	btfss	status,2,c
 12092  003B80  EFC4  F01D         	goto	i2u701_41
 12093  003B84  EFC6  F01D         	goto	i2u701_40
 12094  003B88                     i2u701_41:
 12095  003B88  EFCB  F01D         	goto	i2l2279
 12096  003B8C                     i2u701_40:
 12097  003B8C                     i2l2277:
 12098  003B8C  5001               	movf	fputc@c^0,w,c
 12099  003B8E  EC37  F021         	call	_putch
 12100  003B92  EF18  F01E         	goto	i2l1145
 12101  003B96                     i2l2279:
 12102  003B96  EE20 F004          	lfsr	2,4
 12103  003B9A  5003               	movf	fputc@fp^0,w,c
 12104  003B9C  26D9               	addwf	fsr2l,f,c
 12105  003B9E  5004               	movf	(fputc@fp+1)^0,w,c
 12106  003BA0  22DA               	addwfc	fsr2h,f,c
 12107  003BA2  50DE               	movf	postinc2,w,c
 12108  003BA4  10DE               	iorwf	postinc2,w,c
 12109  003BA6  B4D8               	btfsc	status,2,c
 12110  003BA8  EFD8  F01D         	goto	i2u702_41
 12111  003BAC  EFDA  F01D         	goto	i2u702_40
 12112  003BB0                     i2u702_41:
 12113  003BB0  EFF5  F01D         	goto	i2l2283
 12114  003BB4                     i2u702_40:
 12115  003BB4  EE20 F004          	lfsr	2,4
 12116  003BB8  5003               	movf	fputc@fp^0,w,c
 12117  003BBA  26D9               	addwf	fsr2l,f,c
 12118  003BBC  5004               	movf	(fputc@fp+1)^0,w,c
 12119  003BBE  22DA               	addwfc	fsr2h,f,c
 12120  003BC0  EE10 F002          	lfsr	1,2
 12121  003BC4  5003               	movf	fputc@fp^0,w,c
 12122  003BC6  26E1               	addwf	fsr1l,f,c
 12123  003BC8  5004               	movf	(fputc@fp+1)^0,w,c
 12124  003BCA  22E2               	addwfc	fsr1h,f,c
 12125  003BCC  50DE               	movf	postinc2,w,c
 12126  003BCE  5CE6               	subwf	postinc1,w,c
 12127  003BD0  50E6               	movf	postinc1,w,c
 12128  003BD2  0A80               	xorlw	128
 12129  003BD4  6E09               	movwf	(??_fputc+4)^0,c
 12130  003BD6  50DE               	movf	postinc2,w,c
 12131  003BD8  0A80               	xorlw	128
 12132  003BDA  5809               	subwfb	(??_fputc+4)^0,w,c
 12133  003BDC  B0D8               	btfsc	status,0,c
 12134  003BDE  EFF3  F01D         	goto	i2u703_41
 12135  003BE2  EFF5  F01D         	goto	i2u703_40
 12136  003BE6                     i2u703_41:
 12137  003BE6  EF18  F01E         	goto	i2l1145
 12138  003BEA                     i2u703_40:
 12139  003BEA                     i2l2283:
 12140  003BEA  EE20 F002          	lfsr	2,2
 12141  003BEE  5003               	movf	fputc@fp^0,w,c
 12142  003BF0  26D9               	addwf	fsr2l,f,c
 12143  003BF2  5004               	movf	(fputc@fp+1)^0,w,c
 12144  003BF4  22DA               	addwfc	fsr2h,f,c
 12145  003BF6  CFDE F005          	movff	postinc2,??_fputc
 12146  003BFA  CFDD F006          	movff	postdec2,??_fputc+1
 12147  003BFE  C003  FFD9         	movff	fputc@fp,fsr2l
 12148  003C02  C004  FFDA         	movff	fputc@fp+1,fsr2h
 12149  003C06  CFDE F007          	movff	postinc2,??_fputc+2
 12150  003C0A  CFDD F008          	movff	postdec2,??_fputc+3
 12151  003C0E  5005               	movf	??_fputc^0,w,c
 12152  003C10  2407               	addwf	(??_fputc+2)^0,w,c
 12153  003C12  6ED9               	movwf	fsr2l,c
 12154  003C14  5006               	movf	(??_fputc+1)^0,w,c
 12155  003C16  2008               	addwfc	(??_fputc+3)^0,w,c
 12156  003C18  6EDA               	movwf	fsr2h,c
 12157  003C1A  C001  FFDF         	movff	fputc@c,indf2
 12158  003C1E  EE20 F002          	lfsr	2,2
 12159  003C22  5003               	movf	fputc@fp^0,w,c
 12160  003C24  26D9               	addwf	fsr2l,f,c
 12161  003C26  5004               	movf	(fputc@fp+1)^0,w,c
 12162  003C28  22DA               	addwfc	fsr2h,f,c
 12163  003C2A  2ADE               	incf	postinc2,f,c
 12164  003C2C  0E00               	movlw	0
 12165  003C2E  22DD               	addwfc	postdec2,f,c
 12166  003C30                     i2l1145:
 12167  003C30  0012               	return		;funcret
 12168  003C32                     __end_of_fputc:
 12169                           	opt callstack 0
 12170                           
 12171 ;; *************** function _putch *****************
 12172 ;; Defined at:
 12173 ;;		line 7 in file "C:\Program Files (x86)\Microchip\xc8\v2.10\pic\sources\c99\common\putch.c"
 12174 ;; Parameters:    Size  Location     Type
 12175 ;;  c               1    wreg     unsigned char 
 12176 ;; Auto vars:     Size  Location     Type
 12177 ;;  c               1    0[COMRAM] unsigned char 
 12178 ;; Return value:  Size  Location     Type
 12179 ;;                  1    wreg      void 
 12180 ;; Registers used:
 12181 ;;		wreg
 12182 ;; Tracked objects:
 12183 ;;		On entry : 0/0
 12184 ;;		On exit  : 0/0
 12185 ;;		Unchanged: 0/0
 12186 ;; Data sizes:     COMRAM   BANK0   BANK1   BANK2   BANK3   BANK4   BANK5
 12187 ;;      Params:         0       0       0       0       0       0       0
 12188 ;;      Locals:         0       0       0       0       0       0       0
 12189 ;;      Temps:          0       0       0       0       0       0       0
 12190 ;;      Totals:         0       0       0       0       0       0       0
 12191 ;;Total ram usage:        0 bytes
 12192 ;; Hardware stack levels used:    1
 12193 ;; This function calls:
 12194 ;;		Nothing
 12195 ;; This function is called by:
 12196 ;;		_fputc
 12197 ;; This function uses a non-reentrant model
 12198 ;;
 12199                           
 12200                           	psect	text36
 12201  00426E                     __ptext36:
 12202                           	opt callstack 0
 12203  00426E                     _putch:
 12204                           	opt callstack 21
 12205  00426E  0012               	return		;funcret
 12206  004270                     __end_of_putch:
 12207                           	opt callstack 0
 12208                           
 12209 ;; *************** function _UART_Write_Text *****************
 12210 ;; Defined at:
 12211 ;;		line 53 in file "uart.c"
 12212 ;; Parameters:    Size  Location     Type
 12213 ;;  text            2    1[COMRAM] PTR unsigned char 
 12214 ;;		 -> isr@str(50), STR_1(7), 
 12215 ;; Auto vars:     Size  Location     Type
 12216 ;;  i               2    5[COMRAM] int 
 12217 ;; Return value:  Size  Location     Type
 12218 ;;                  1    wreg      void 
 12219 ;; Registers used:
 12220 ;;		wreg, fsr1l, fsr1h, status,2, status,0, tblptrl, tblptrh, tblptru, cstack
 12221 ;; Tracked objects:
 12222 ;;		On entry : 0/0
 12223 ;;		On exit  : 0/0
 12224 ;;		Unchanged: 0/0
 12225 ;; Data sizes:     COMRAM   BANK0   BANK1   BANK2   BANK3   BANK4   BANK5
 12226 ;;      Params:         2       0       0       0       0       0       0
 12227 ;;      Locals:         2       0       0       0       0       0       0
 12228 ;;      Temps:          2       0       0       0       0       0       0
 12229 ;;      Totals:         6       0       0       0       0       0       0
 12230 ;;Total ram usage:        6 bytes
 12231 ;; Hardware stack levels used:    1
 12232 ;; Hardware stack levels required when called:    1
 12233 ;; This function calls:
 12234 ;;		_UART_Write
 12235 ;; This function is called by:
 12236 ;;		_isr
 12237 ;; This function uses a non-reentrant model
 12238 ;;
 12239                           
 12240                           	psect	text37
 12241  003F7A                     __ptext37:
 12242                           	opt callstack 0
 12243  003F7A                     _UART_Write_Text:
 12244                           	opt callstack 25
 12245  003F7A                     
 12246                           ;uart.c: 54:     for(int i=0;text[i]!='\0';i++)
 12247  003F7A  0E00               	movlw	0
 12248  003F7C  6E07               	movwf	(UART_Write_Text@i+1)^0,c
 12249  003F7E  0E00               	movlw	0
 12250  003F80  6E06               	movwf	UART_Write_Text@i^0,c
 12251  003F82  EFDD  F01F         	goto	i2l2593
 12252  003F86                     i2l2589:
 12253                           
 12254                           ;uart.c: 55:         UART_Write(text[i]);
 12255  003F86  5006               	movf	UART_Write_Text@i^0,w,c
 12256  003F88  2402               	addwf	UART_Write_Text@text^0,w,c
 12257  003F8A  6E04               	movwf	??_UART_Write_Text^0,c
 12258  003F8C  5007               	movf	(UART_Write_Text@i+1)^0,w,c
 12259  003F8E  2003               	addwfc	(UART_Write_Text@text+1)^0,w,c
 12260  003F90  6E05               	movwf	(??_UART_Write_Text+1)^0,c
 12261  003F92  C004  FFF6         	movff	??_UART_Write_Text,tblptrl
 12262  003F96  C005  FFF7         	movff	??_UART_Write_Text+1,tblptrh
 12263  003F9A  6AF8               	clrf	tblptru,c
 12264  003F9C  0E05               	movlw	(high __ramtop+-1)
 12265  003F9E  64F7               	cpfsgt	tblptrh,c
 12266  003FA0  D003               	bra	i2u1173_47
 12267  003FA2  0008               	tblrd		*
 12268  003FA4  50F5               	movf	tablat,w,c
 12269  003FA6  D005               	bra	i2u1173_40
 12270  003FA8                     i2u1173_47:
 12271  003FA8  CFF6 FFE1          	movff	tblptrl,fsr1l
 12272  003FAC  CFF7 FFE2          	movff	tblptrh,fsr1h
 12273  003FB0  50E7               	movf	indf1,w,c
 12274  003FB2                     i2u1173_40:
 12275  003FB2  EC28  F021         	call	_UART_Write
 12276  003FB6  4A06               	infsnz	UART_Write_Text@i^0,f,c
 12277  003FB8  2A07               	incf	(UART_Write_Text@i+1)^0,f,c
 12278  003FBA                     i2l2593:
 12279  003FBA  5006               	movf	UART_Write_Text@i^0,w,c
 12280  003FBC  2402               	addwf	UART_Write_Text@text^0,w,c
 12281  003FBE  6E04               	movwf	??_UART_Write_Text^0,c
 12282  003FC0  5007               	movf	(UART_Write_Text@i+1)^0,w,c
 12283  003FC2  2003               	addwfc	(UART_Write_Text@text+1)^0,w,c
 12284  003FC4  6E05               	movwf	(??_UART_Write_Text+1)^0,c
 12285  003FC6  C004  FFF6         	movff	??_UART_Write_Text,tblptrl
 12286  003FCA  C005  FFF7         	movff	??_UART_Write_Text+1,tblptrh
 12287  003FCE  6AF8               	clrf	tblptru,c
 12288  003FD0  0E05               	movlw	(high __ramtop+-1)
 12289  003FD2  64F7               	cpfsgt	tblptrh,c
 12290  003FD4  D003               	bra	i2u1174_47
 12291  003FD6  0008               	tblrd		*
 12292  003FD8  50F5               	movf	tablat,w,c
 12293  003FDA  D005               	bra	i2u1174_40
 12294  003FDC                     i2u1174_47:
 12295  003FDC  CFF6 FFE1          	movff	tblptrl,fsr1l
 12296  003FE0  CFF7 FFE2          	movff	tblptrh,fsr1h
 12297  003FE4  50E7               	movf	indf1,w,c
 12298  003FE6                     i2u1174_40:
 12299  003FE6  0900               	iorlw	0
 12300  003FE8  A4D8               	btfss	status,2,c
 12301  003FEA  EFF9  F01F         	goto	i2u1175_41
 12302  003FEE  EFFB  F01F         	goto	i2u1175_40
 12303  003FF2                     i2u1175_41:
 12304  003FF2  EFC3  F01F         	goto	i2l2589
 12305  003FF6                     i2u1175_40:
 12306  003FF6  0012               	return		;funcret
 12307  003FF8                     __end_of_UART_Write_Text:
 12308                           	opt callstack 0
 12309                           
 12310 ;; *************** function _UART_Write *****************
 12311 ;; Defined at:
 12312 ;;		line 43 in file "uart.c"
 12313 ;; Parameters:    Size  Location     Type
 12314 ;;  data            1    wreg     unsigned char 
 12315 ;; Auto vars:     Size  Location     Type
 12316 ;;  data            1    0[COMRAM] unsigned char 
 12317 ;; Return value:  Size  Location     Type
 12318 ;;                  1    wreg      void 
 12319 ;; Registers used:
 12320 ;;		wreg
 12321 ;; Tracked objects:
 12322 ;;		On entry : 0/0
 12323 ;;		On exit  : 0/0
 12324 ;;		Unchanged: 0/0
 12325 ;; Data sizes:     COMRAM   BANK0   BANK1   BANK2   BANK3   BANK4   BANK5
 12326 ;;      Params:         0       0       0       0       0       0       0
 12327 ;;      Locals:         1       0       0       0       0       0       0
 12328 ;;      Temps:          0       0       0       0       0       0       0
 12329 ;;      Totals:         1       0       0       0       0       0       0
 12330 ;;Total ram usage:        1 bytes
 12331 ;; Hardware stack levels used:    1
 12332 ;; This function calls:
 12333 ;;		Nothing
 12334 ;; This function is called by:
 12335 ;;		_UART_Write_Text
 12336 ;; This function uses a non-reentrant model
 12337 ;;
 12338                           
 12339                           	psect	text38
 12340  004250                     __ptext38:
 12341                           	opt callstack 0
 12342  004250                     _UART_Write:
 12343                           	opt callstack 25
 12344                           
 12345                           ;incstack = 0
 12346                           ;UART_Write@data stored from wreg
 12347  004250  6E01               	movwf	UART_Write@data^0,c
 12348  004252                     i2l374:
 12349  004252  A2AC               	btfss	172,1,c	;volatile
 12350  004254  EF2E  F021         	goto	i2u1159_41
 12351  004258  EF30  F021         	goto	i2u1159_40
 12352  00425C                     i2u1159_41:
 12353  00425C  EF29  F021         	goto	i2l374
 12354  004260                     i2u1159_40:
 12355  004260                     
 12356                           ;uart.c: 46:     TXREG = data;
 12357  004260  C001  FFAD         	movff	UART_Write@data,4013	;volatile
 12358  004264  0012               	return		;funcret
 12359  004266                     __end_of_UART_Write:
 12360                           	opt callstack 0
 12361                           
 12362 ;; *************** function _MyusartRead *****************
 12363 ;; Defined at:
 12364 ;;		line 64 in file "uart.c"
 12365 ;; Parameters:    Size  Location     Type
 12366 ;;		None
 12367 ;; Auto vars:     Size  Location     Type
 12368 ;;		None
 12369 ;; Return value:  Size  Location     Type
 12370 ;;                  1    wreg      void 
 12371 ;; Registers used:
 12372 ;;		wreg, fsr2l, fsr2h, status,2, status,0, cstack
 12373 ;; Tracked objects:
 12374 ;;		On entry : 0/0
 12375 ;;		On exit  : 0/0
 12376 ;;		Unchanged: 0/0
 12377 ;; Data sizes:     COMRAM   BANK0   BANK1   BANK2   BANK3   BANK4   BANK5
 12378 ;;      Params:         0       0       0       0       0       0       0
 12379 ;;      Locals:         0       0       0       0       0       0       0
 12380 ;;      Temps:          0       0       0       0       0       0       0
 12381 ;;      Totals:         0       0       0       0       0       0       0
 12382 ;;Total ram usage:        0 bytes
 12383 ;; Hardware stack levels used:    1
 12384 ;; Hardware stack levels required when called:    1
 12385 ;; This function calls:
 12386 ;;		i2___awmod
 12387 ;; This function is called by:
 12388 ;;		_isr
 12389 ;; This function uses a non-reentrant model
 12390 ;;
 12391                           
 12392                           	psect	text39
 12393  0041E0                     __ptext39:
 12394                           	opt callstack 0
 12395  0041E0                     _MyusartRead:
 12396                           	opt callstack 25
 12397  0041E0                     
 12398                           ;uart.c: 66:     mystring[lenStr] = RCREG;
 12399  0041E0  0E53               	movlw	low _mystring
 12400  0041E2  0100               	movlb	0	; () banked
 12401  0041E4  25DF               	addwf	_lenStr& (0+255),w,b
 12402  0041E6  6ED9               	movwf	fsr2l,c
 12403  0041E8  0E00               	movlw	high _mystring
 12404  0041EA  21E0               	addwfc	(_lenStr+1)& (0+255),w,b
 12405  0041EC  6EDA               	movwf	fsr2h,c
 12406  0041EE  CFAE FFDF          	movff	4014,indf2	;volatile
 12407  0041F2                     
 12408                           ; BSR set to: 0
 12409                           ;uart.c: 67:     lenStr++;
 12410  0041F2  4BDF               	infsnz	_lenStr& (0+255),f,b
 12411  0041F4  2BE0               	incf	(_lenStr+1)& (0+255),f,b
 12412  0041F6                     
 12413                           ; BSR set to: 0
 12414                           ;uart.c: 68:     lenStr %= 10;
 12415  0041F6  C0DF  F001         	movff	_lenStr,i2___awmod@dividend
 12416  0041FA  C0E0  F002         	movff	_lenStr+1,i2___awmod@dividend+1
 12417  0041FE  0E00               	movlw	0
 12418  004200  6E04               	movwf	(i2___awmod@divisor+1)^0,c
 12419  004202  0E0A               	movlw	10
 12420  004204  6E03               	movwf	i2___awmod@divisor^0,c
 12421  004206  ECD5  F01E         	call	i2___awmod	;wreg free
 12422  00420A  C001  F0DF         	movff	?i2___awmod,_lenStr
 12423  00420E  C002  F0E0         	movff	?i2___awmod+1,_lenStr+1
 12424  004212  0012               	return		;funcret
 12425  004214                     __end_of_MyusartRead:
 12426                           	opt callstack 0
 12427                           
 12428 ;; *************** function i2___awmod *****************
 12429 ;; Defined at:
 12430 ;;		line 7 in file "C:\Program Files (x86)\Microchip\xc8\v2.10\pic\sources\c99\common\awmod.c"
 12431 ;; Parameters:    Size  Location     Type
 12432 ;;  dividend        2    0[COMRAM] int 
 12433 ;;  divisor         2    2[COMRAM] int 
 12434 ;; Auto vars:     Size  Location     Type
 12435 ;;  __awmod         1    5[COMRAM] unsigned char 
 12436 ;;  __awmod         1    4[COMRAM] unsigned char 
 12437 ;; Return value:  Size  Location     Type
 12438 ;;                  2    0[COMRAM] int 
 12439 ;; Registers used:
 12440 ;;		wreg, status,2, status,0
 12441 ;; Tracked objects:
 12442 ;;		On entry : 0/0
 12443 ;;		On exit  : 0/0
 12444 ;;		Unchanged: 0/0
 12445 ;; Data sizes:     COMRAM   BANK0   BANK1   BANK2   BANK3   BANK4   BANK5
 12446 ;;      Params:         4       0       0       0       0       0       0
 12447 ;;      Locals:         2       0       0       0       0       0       0
 12448 ;;      Temps:          0       0       0       0       0       0       0
 12449 ;;      Totals:         6       0       0       0       0       0       0
 12450 ;;Total ram usage:        6 bytes
 12451 ;; Hardware stack levels used:    1
 12452 ;; This function calls:
 12453 ;;		Nothing
 12454 ;; This function is called by:
 12455 ;;		_MyusartRead
 12456 ;; This function uses a non-reentrant model
 12457 ;;
 12458                           
 12459                           	psect	text40
 12460  003DAA                     __ptext40:
 12461                           	opt callstack 0
 12462  003DAA                     i2___awmod:
 12463                           	opt callstack 25
 12464  003DAA  0E00               	movlw	0
 12465  003DAC  6E06               	movwf	i2___awmod@sign^0,c
 12466  003DAE  BE02               	btfsc	(i2___awmod@dividend+1)^0,7,c
 12467  003DB0  EFDE  F01E         	goto	i2u1167_40
 12468  003DB4  EFDC  F01E         	goto	i2u1167_41
 12469  003DB8                     i2u1167_41:
 12470  003DB8  EFE4  F01E         	goto	i2l2551
 12471  003DBC                     i2u1167_40:
 12472  003DBC  6C01               	negf	i2___awmod@dividend^0,c
 12473  003DBE  1E02               	comf	(i2___awmod@dividend+1)^0,f,c
 12474  003DC0  B0D8               	btfsc	status,0,c
 12475  003DC2  2A02               	incf	(i2___awmod@dividend+1)^0,f,c
 12476  003DC4  0E01               	movlw	1
 12477  003DC6  6E06               	movwf	i2___awmod@sign^0,c
 12478  003DC8                     i2l2551:
 12479  003DC8  BE04               	btfsc	(i2___awmod@divisor+1)^0,7,c
 12480  003DCA  EFEB  F01E         	goto	i2u1168_40
 12481  003DCE  EFE9  F01E         	goto	i2u1168_41
 12482  003DD2                     i2u1168_41:
 12483  003DD2  EFEF  F01E         	goto	i2l2555
 12484  003DD6                     i2u1168_40:
 12485  003DD6  6C03               	negf	i2___awmod@divisor^0,c
 12486  003DD8  1E04               	comf	(i2___awmod@divisor+1)^0,f,c
 12487  003DDA  B0D8               	btfsc	status,0,c
 12488  003DDC  2A04               	incf	(i2___awmod@divisor+1)^0,f,c
 12489  003DDE                     i2l2555:
 12490  003DDE  5003               	movf	i2___awmod@divisor^0,w,c
 12491  003DE0  1004               	iorwf	(i2___awmod@divisor+1)^0,w,c
 12492  003DE2  B4D8               	btfsc	status,2,c
 12493  003DE4  EFF6  F01E         	goto	i2u1169_41
 12494  003DE8  EFF8  F01E         	goto	i2u1169_40
 12495  003DEC                     i2u1169_41:
 12496  003DEC  EF1C  F01F         	goto	i2l2571
 12497  003DF0                     i2u1169_40:
 12498  003DF0  0E01               	movlw	1
 12499  003DF2  6E05               	movwf	i2___awmod@counter^0,c
 12500  003DF4  EF00  F01F         	goto	i2l2561
 12501  003DF8                     i2l2559:
 12502  003DF8  90D8               	bcf	status,0,c
 12503  003DFA  3603               	rlcf	i2___awmod@divisor^0,f,c
 12504  003DFC  3604               	rlcf	(i2___awmod@divisor+1)^0,f,c
 12505  003DFE  2A05               	incf	i2___awmod@counter^0,f,c
 12506  003E00                     i2l2561:
 12507  003E00  AE04               	btfss	(i2___awmod@divisor+1)^0,7,c
 12508  003E02  EF05  F01F         	goto	i2u1170_41
 12509  003E06  EF07  F01F         	goto	i2u1170_40
 12510  003E0A                     i2u1170_41:
 12511  003E0A  EFFC  F01E         	goto	i2l2559
 12512  003E0E                     i2u1170_40:
 12513  003E0E                     i2l2563:
 12514  003E0E  5003               	movf	i2___awmod@divisor^0,w,c
 12515  003E10  5C01               	subwf	i2___awmod@dividend^0,w,c
 12516  003E12  5004               	movf	(i2___awmod@divisor+1)^0,w,c
 12517  003E14  5802               	subwfb	(i2___awmod@dividend+1)^0,w,c
 12518  003E16  A0D8               	btfss	status,0,c
 12519  003E18  EF10  F01F         	goto	i2u1171_41
 12520  003E1C  EF12  F01F         	goto	i2u1171_40
 12521  003E20                     i2u1171_41:
 12522  003E20  EF16  F01F         	goto	i2l2567
 12523  003E24                     i2u1171_40:
 12524  003E24  5003               	movf	i2___awmod@divisor^0,w,c
 12525  003E26  5E01               	subwf	i2___awmod@dividend^0,f,c
 12526  003E28  5004               	movf	(i2___awmod@divisor+1)^0,w,c
 12527  003E2A  5A02               	subwfb	(i2___awmod@dividend+1)^0,f,c
 12528  003E2C                     i2l2567:
 12529  003E2C  90D8               	bcf	status,0,c
 12530  003E2E  3204               	rrcf	(i2___awmod@divisor+1)^0,f,c
 12531  003E30  3203               	rrcf	i2___awmod@divisor^0,f,c
 12532  003E32  2E05               	decfsz	i2___awmod@counter^0,f,c
 12533  003E34  EF07  F01F         	goto	i2l2563
 12534  003E38                     i2l2571:
 12535  003E38  5006               	movf	i2___awmod@sign^0,w,c
 12536  003E3A  B4D8               	btfsc	status,2,c
 12537  003E3C  EF22  F01F         	goto	i2u1172_41
 12538  003E40  EF24  F01F         	goto	i2u1172_40
 12539  003E44                     i2u1172_41:
 12540  003E44  EF28  F01F         	goto	i2l2575
 12541  003E48                     i2u1172_40:
 12542  003E48  6C01               	negf	i2___awmod@dividend^0,c
 12543  003E4A  1E02               	comf	(i2___awmod@dividend+1)^0,f,c
 12544  003E4C  B0D8               	btfsc	status,0,c
 12545  003E4E  2A02               	incf	(i2___awmod@dividend+1)^0,f,c
 12546  003E50                     i2l2575:
 12547  003E50  C001  F001         	movff	i2___awmod@dividend,?i2___awmod
 12548  003E54  C002  F002         	movff	i2___awmod@dividend+1,?i2___awmod+1
 12549  003E58  0012               	return		;funcret
 12550  003E5A                     __end_ofi2___awmod:
 12551                           	opt callstack 0
 12552                           
 12553 ;; *************** function _ClearBuffer *****************
 12554 ;; Defined at:
 12555 ;;		line 58 in file "uart.c"
 12556 ;; Parameters:    Size  Location     Type
 12557 ;;		None
 12558 ;; Auto vars:     Size  Location     Type
 12559 ;;  i               2    0[COMRAM] int 
 12560 ;; Return value:  Size  Location     Type
 12561 ;;                  1    wreg      void 
 12562 ;; Registers used:
 12563 ;;		wreg, fsr2l, fsr2h, status,2, status,0
 12564 ;; Tracked objects:
 12565 ;;		On entry : 0/0
 12566 ;;		On exit  : 0/0
 12567 ;;		Unchanged: 0/0
 12568 ;; Data sizes:     COMRAM   BANK0   BANK1   BANK2   BANK3   BANK4   BANK5
 12569 ;;      Params:         0       0       0       0       0       0       0
 12570 ;;      Locals:         2       0       0       0       0       0       0
 12571 ;;      Temps:          0       0       0       0       0       0       0
 12572 ;;      Totals:         2       0       0       0       0       0       0
 12573 ;;Total ram usage:        2 bytes
 12574 ;; Hardware stack levels used:    1
 12575 ;; This function calls:
 12576 ;;		Nothing
 12577 ;; This function is called by:
 12578 ;;		_isr
 12579 ;; This function uses a non-reentrant model
 12580 ;;
 12581                           
 12582                           	psect	text41
 12583  004166                     __ptext41:
 12584                           	opt callstack 0
 12585  004166                     _ClearBuffer:
 12586                           	opt callstack 26
 12587  004166                     
 12588                           ;uart.c: 59:     for(int i = 0; i < 10 ; i++)
 12589  004166  0E00               	movlw	0
 12590  004168  6E02               	movwf	(ClearBuffer@i+1)^0,c
 12591  00416A  0E00               	movlw	0
 12592  00416C  6E01               	movwf	ClearBuffer@i^0,c
 12593  00416E                     i2l2601:
 12594                           
 12595                           ;uart.c: 60:         mystring[i] = '\0';
 12596  00416E  0E53               	movlw	low _mystring
 12597  004170  2401               	addwf	ClearBuffer@i^0,w,c
 12598  004172  6ED9               	movwf	fsr2l,c
 12599  004174  0E00               	movlw	high _mystring
 12600  004176  2002               	addwfc	(ClearBuffer@i+1)^0,w,c
 12601  004178  6EDA               	movwf	fsr2h,c
 12602  00417A  0E00               	movlw	0
 12603  00417C  6EDF               	movwf	indf2,c
 12604  00417E  4A01               	infsnz	ClearBuffer@i^0,f,c
 12605  004180  2A02               	incf	(ClearBuffer@i+1)^0,f,c
 12606  004182  BE02               	btfsc	(ClearBuffer@i+1)^0,7,c
 12607  004184  EFCD  F020         	goto	i2u1176_41
 12608  004188  5002               	movf	(ClearBuffer@i+1)^0,w,c
 12609  00418A  E109               	bnz	i2u1176_40
 12610  00418C  0E0A               	movlw	10
 12611  00418E  5C01               	subwf	ClearBuffer@i^0,w,c
 12612  004190  A0D8               	btfss	status,0,c
 12613  004192  EFCD  F020         	goto	i2u1176_41
 12614  004196  EFCF  F020         	goto	i2u1176_40
 12615  00419A                     i2u1176_41:
 12616  00419A  EFB7  F020         	goto	i2l2601
 12617  00419E                     i2u1176_40:
 12618  00419E                     
 12619                           ;uart.c: 61:     lenStr = 0;
 12620  00419E  0E00               	movlw	0
 12621  0041A0  0100               	movlb	0	; () banked
 12622  0041A2  6FE0               	movwf	(_lenStr+1)& (0+255),b
 12623  0041A4  0E00               	movlw	0
 12624  0041A6  6FDF               	movwf	_lenStr& (0+255),b
 12625  0041A8                     
 12626                           ; BSR set to: 0
 12627  0041A8  0012               	return		;funcret
 12628  0041AA                     __end_of_ClearBuffer:
 12629                           	opt callstack 0
 12630                           
 12631                           	psect	rparam
 12632  0000                     
 12633                           	psect	temp
 12634  00006E                     btemp:
 12635                           	opt callstack 0
 12636  00006E                     	ds	1
 12637  0000                     int$flags	set	btemp
 12638  0000                     wtemp8	set	btemp+1
 12639  0000                     ttemp5	set	btemp+1
 12640  0000                     ttemp6	set	btemp+4
 12641  0000                     ttemp7	set	btemp+8
 12642                           tosu	equ	0xFFF
 12643                           tosh	equ	0xFFE
 12644                           tosl	equ	0xFFD
 12645                           stkptr	equ	0xFFC
 12646                           pclatu	equ	0xFFB
 12647                           pclath	equ	0xFFA
 12648                           pcl	equ	0xFF9
 12649                           tblptru	equ	0xFF8
 12650                           tblptrh	equ	0xFF7
 12651                           tblptrl	equ	0xFF6
 12652                           tablat	equ	0xFF5
 12653                           prodh	equ	0xFF4
 12654                           prodl	equ	0xFF3
 12655                           indf0	equ	0xFEF
 12656                           postinc0	equ	0xFEE
 12657                           postdec0	equ	0xFED
 12658                           preinc0	equ	0xFEC
 12659                           plusw0	equ	0xFEB
 12660                           fsr0h	equ	0xFEA
 12661                           fsr0l	equ	0xFE9
 12662                           wreg	equ	0xFE8
 12663                           indf1	equ	0xFE7
 12664                           postinc1	equ	0xFE6
 12665                           postdec1	equ	0xFE5
 12666                           preinc1	equ	0xFE4
 12667                           plusw1	equ	0xFE3
 12668                           fsr1h	equ	0xFE2
 12669                           fsr1l	equ	0xFE1
 12670                           bsr	equ	0xFE0
 12671                           indf2	equ	0xFDF
 12672                           postinc2	equ	0xFDE
 12673                           postdec2	equ	0xFDD
 12674                           preinc2	equ	0xFDC
 12675                           plusw2	equ	0xFDB
 12676                           fsr2h	equ	0xFDA
 12677                           fsr2l	equ	0xFD9
 12678                           status	equ	0xFD8


Data Sizes:
    Strings     40
    Constant    0
    Data        7
    BSS         158
    Persistent  0
    Stack       0

Auto Spaces:
    Space          Size  Autos    Used
    COMRAM          126     74     109
    BANK0           128     57     105
    BANK1           256     68     150
    BANK2           256      0       0
    BANK3           256      0       0
    BANK4           256      0       0
    BANK5           256      0       0

Pointer List with Targets:

    strlen@s	PTR const unsigned char  size(2) Largest target is 7
		 -> ?_sprintf(COMRAM[2]), stoa@nuls(COMRAM[7]), isr@str(BANK0[50]), 

    strlen@a	PTR const unsigned char  size(2) Largest target is 7
		 -> ?_sprintf(COMRAM[2]), stoa@nuls(COMRAM[7]), isr@str(BANK0[50]), 

    strcmp@r	PTR const unsigned char  size(2) Largest target is 3
		 -> STR_2(CODE[3]), 

    strcmp@l	PTR const unsigned char  size(2) Largest target is 20
		 -> mystring(COMRAM[20]), 

    sprintf@fmt	PTR const unsigned char  size(2) Largest target is 5
		 -> STR_8(CODE[5]), STR_7(CODE[5]), STR_6(CODE[5]), STR_5(CODE[5]), 
		 -> STR_4(CODE[5]), STR_3(CODE[5]), 

    sprintf@s	PTR unsigned char  size(2) Largest target is 50
		 -> isr@str(BANK0[50]), 

    sprintf@ap	PTR void [1] size(2) Largest target is 2
		 -> ?_sprintf(COMRAM[2]), 

    f.buffer	PTR unsigned char  size(2) Largest target is 50
		 -> isr@str(BANK0[50]), 

    S2537_IO_FILE$buffer	PTR unsigned char  size(2) Largest target is 50
		 -> isr@str(BANK0[50]), 

    fputc@fp.buffer	PTR unsigned char  size(2) Largest target is 50
		 -> isr@str(BANK0[50]), 

    fputc@fp	PTR struct _IO_FILE size(2) Largest target is 7
		 -> sprintf@f(COMRAM[6]), 

    vfprintf@ap	PTR PTR void  size(2) Largest target is 2
		 -> sprintf@ap(COMRAM[2]), 

    vfprintf@fp	PTR struct _IO_FILE size(2) Largest target is 7
		 -> sprintf@f(COMRAM[6]), 

    vfprintf@fmt	PTR const unsigned char  size(2) Largest target is 5
		 -> STR_8(CODE[5]), STR_7(CODE[5]), STR_6(CODE[5]), STR_5(CODE[5]), 
		 -> STR_4(CODE[5]), STR_3(CODE[5]), 

    vfprintf@cfmt	PTR unsigned char  size(2) Largest target is 5
		 -> STR_8(CODE[5]), STR_7(CODE[5]), STR_6(CODE[5]), STR_5(CODE[5]), 
		 -> STR_4(CODE[5]), STR_3(CODE[5]), 

    vfpfcnvrt@fp	PTR struct _IO_FILE size(2) Largest target is 7
		 -> sprintf@f(COMRAM[6]), 

    vfpfcnvrt@ap	PTR PTR void  size(2) Largest target is 2
		 -> sprintf@ap(COMRAM[2]), 

    vfpfcnvrt@cp	PTR unsigned char  size(2) Largest target is 2
		 -> ?_sprintf(COMRAM[2]), isr@str(BANK0[50]), 

    vfpfcnvrt@fmt	PTR PTR unsigned char  size(2) Largest target is 2
		 -> vfprintf@cfmt(COMRAM[2]), 

    stoa@fp	PTR struct _IO_FILE size(2) Largest target is 7
		 -> sprintf@f(COMRAM[6]), 

    stoa@s	PTR unsigned char  size(2) Largest target is 2
		 -> ?_sprintf(COMRAM[2]), isr@str(BANK0[50]), 

    stoa@cp	PTR unsigned char  size(2) Largest target is 7
		 -> ?_sprintf(COMRAM[2]), stoa@nuls(COMRAM[7]), isr@str(BANK0[50]), 

    UART_Write_Text@text	PTR unsigned char  size(2) Largest target is 50
		 -> isr@str(BANK0[50]), STR_1(CODE[7]), 

    sp__GetString	PTR unsigned char  size(2) Largest target is 20
		 -> mystring(COMRAM[20]), 


Critical Paths under _main in COMRAM

    None.

Critical Paths under _isr in COMRAM

    _isr->_sprintf
    _sprintf->_vfprintf
    _vfprintf->_vfpfcnvrt
    _vfpfcnvrt->_stoa
    _stoa->_fputc
    _UART_Write_Text->_UART_Write
    _MyusartRead->i2___awmod

Critical Paths under _main in BANK0

    None.

Critical Paths under _isr in BANK0

    None.

Critical Paths under _main in BANK1

    _main->_random_cube
    _rotate_top->___awdiv
    _rotate_sidetop->___awdiv
    _rotate_sidebot->___awdiv
    _rotate_r->___awdiv
    _rotate_l->___awdiv
    _rotate_bot->___awdiv
    _random_cube->___awmod
    _rand->___omul
    ___awmod->_rand

Critical Paths under _isr in BANK1

    None.

Critical Paths under _main in BANK2

    None.

Critical Paths under _isr in BANK2

    None.

Critical Paths under _main in BANK3

    None.

Critical Paths under _isr in BANK3

    None.

Critical Paths under _main in BANK4

    None.

Critical Paths under _isr in BANK4

    None.

Critical Paths under _main in BANK5

    None.

Critical Paths under _isr in BANK5

    None.

Call Graph Tables:

 ---------------------------------------------------------------------------------
 (Depth) Function   	        Calls       Base Space   Used Autos Params    Refs
 ---------------------------------------------------------------------------------
 (0) _main                                                22    22      0   14458
                                             46 BANK1     22    22      0
                     _ADC_Initialize
                           _ADC_Read
                    _UART_Initialize
                            ___awdiv
                            _initial
                        _random_cube
                         _rotate_bot
                           _rotate_l
                           _rotate_r
                     _rotate_sidebot
                     _rotate_sidetop
                         _rotate_top
 ---------------------------------------------------------------------------------
 (1) _rotate_top                                           7     5      2     898
                                              8 BANK1      7     5      2
                            ___awdiv (ARG)
                                 _rt
                               _rt_u
 ---------------------------------------------------------------------------------
 (2) _rt_u                                                 3     3      0     288
                                              0 BANK1      3     3      0
 ---------------------------------------------------------------------------------
 (1) _rotate_sidetop                                       7     5      2     898
                                              8 BANK1      7     5      2
                            ___awdiv (ARG)
                                _rst
                              _rst_u
 ---------------------------------------------------------------------------------
 (2) _rst_u                                                3     3      0     288
                                              0 BANK1      3     3      0
 ---------------------------------------------------------------------------------
 (1) _rotate_sidebot                                       7     5      2     898
                                              8 BANK1      7     5      2
                            ___awdiv (ARG)
                                _rsb
                              _rsb_u
 ---------------------------------------------------------------------------------
 (2) _rsb_u                                                3     3      0     288
                                              0 BANK1      3     3      0
 ---------------------------------------------------------------------------------
 (1) _rotate_r                                             7     5      2     898
                                              8 BANK1      7     5      2
                            ___awdiv (ARG)
                                 _rr
                               _rr_u
 ---------------------------------------------------------------------------------
 (2) _rr_u                                                 3     3      0     288
                                              0 BANK1      3     3      0
 ---------------------------------------------------------------------------------
 (1) _rotate_l                                             7     5      2     898
                                              8 BANK1      7     5      2
                            ___awdiv (ARG)
                                 _rl
                               _rl_u
 ---------------------------------------------------------------------------------
 (2) _rl_u                                                 3     3      0     288
                                              0 BANK1      3     3      0
 ---------------------------------------------------------------------------------
 (1) _rotate_bot                                           7     5      2     898
                                              8 BANK1      7     5      2
                            ___awdiv (ARG)
                                 _rb
                               _rb_u
 ---------------------------------------------------------------------------------
 (2) _rb_u                                                 3     3      0     288
                                              0 BANK1      3     3      0
 ---------------------------------------------------------------------------------
 (1) _random_cube                                          6     6      0    3975
                                             40 BANK1      6     6      0
                            ___awmod
                            _initial
                               _rand
                                 _rb
                                 _rl
                                 _rr
                                _rsb
                                _rst
                                 _rt
 ---------------------------------------------------------------------------------
 (2) _rt                                                   3     3      0     288
                                              0 BANK1      3     3      0
 ---------------------------------------------------------------------------------
 (2) _rst                                                  3     3      0     288
                                              0 BANK1      3     3      0
 ---------------------------------------------------------------------------------
 (2) _rsb                                                  3     3      0     288
                                              0 BANK1      3     3      0
 ---------------------------------------------------------------------------------
 (2) _rr                                                   3     3      0     288
                                              0 BANK1      3     3      0
 ---------------------------------------------------------------------------------
 (2) _rl                                                   3     3      0     288
                                              0 BANK1      3     3      0
 ---------------------------------------------------------------------------------
 (2) _rb                                                   3     3      0     288
                                              0 BANK1      3     3      0
 ---------------------------------------------------------------------------------
 (2) _rand                                                10     8      2     456
                                             24 BANK1     10     8      2
                             ___omul
 ---------------------------------------------------------------------------------
 (3) ___omul                                              24     8     16     456
                                              0 BANK1     24     8     16
 ---------------------------------------------------------------------------------
 (2) _initial                                              2     2      0     966
                                              0 BANK1      2     2      0
 ---------------------------------------------------------------------------------
 (2) ___awmod                                              6     2      4     723
                                             34 BANK1      6     2      4
                               _rand (ARG)
 ---------------------------------------------------------------------------------
 (1) ___awdiv                                              8     4      4    2605
                                              0 BANK1      8     4      4
 ---------------------------------------------------------------------------------
 (1) _UART_Initialize                                      0     0      0       0
 ---------------------------------------------------------------------------------
 (1) _ADC_Read                                             6     4      2     673
                                              0 BANK1      6     4      2
 ---------------------------------------------------------------------------------
 (1) _ADC_Initialize                                       0     0      0       0
 ---------------------------------------------------------------------------------
 Estimated maximum stack depth 3
 ---------------------------------------------------------------------------------
 (Depth) Function   	        Calls       Base Space   Used Autos Params    Refs
 ---------------------------------------------------------------------------------
 (4) _isr                                                 66    66      0    8097
                                             65 COMRAM     9     9      0
                                              0 BANK0     57    57      0
                        _ClearBuffer
                        _MyusartRead
                    _UART_Write_Text
                            _sprintf
                             _strcmp
 ---------------------------------------------------------------------------------
 (5) _strcmp                                               5     1      4     264
                                              0 COMRAM     5     1      4
 ---------------------------------------------------------------------------------
 (5) _sprintf                                             16    10      6    5313
                                             49 COMRAM    16    10      6
                           _vfprintf
 ---------------------------------------------------------------------------------
 (6) _vfprintf                                             8     2      6    4202
                                             41 COMRAM     8     2      6
                          _vfpfcnvrt
 ---------------------------------------------------------------------------------
 (7) _vfpfcnvrt                                           41    35      6    3849
                                             31 COMRAM    10     4      6
                              _fputc
                               _stoa
 ---------------------------------------------------------------------------------
 (8) _stoa                                                22    18      4    2074
                                              9 COMRAM    22    18      4
                              _fputc
                             _strlen
 ---------------------------------------------------------------------------------
 (9) _strlen                                               4     2      2     229
                                              0 COMRAM     4     2      2
 ---------------------------------------------------------------------------------
 (9) _fputc                                                9     5      4    1238
                                              0 COMRAM     9     5      4
                              _putch
 ---------------------------------------------------------------------------------
 (10) _putch                                               1     1      0       0
 ---------------------------------------------------------------------------------
 (5) _UART_Write_Text                                      6     4      2     264
                                              1 COMRAM     6     4      2
                         _UART_Write
 ---------------------------------------------------------------------------------
 (6) _UART_Write                                           1     1      0      22
                                              0 COMRAM     1     1      0
 ---------------------------------------------------------------------------------
 (5) _MyusartRead                                          0     0      0     348
                          i2___awmod
 ---------------------------------------------------------------------------------
 (6) i2___awmod                                            6     2      4     348
                                              0 COMRAM     6     2      4
 ---------------------------------------------------------------------------------
 (5) _ClearBuffer                                          2     2      0      68
                                              0 COMRAM     2     2      0
 ---------------------------------------------------------------------------------
 Estimated maximum stack depth 10
 ---------------------------------------------------------------------------------

 Call Graph Graphs:

 _main (ROOT)
   _ADC_Initialize
   _ADC_Read
   _UART_Initialize
   ___awdiv
   _initial
   _random_cube
     ___awmod
       _rand (ARG)
         ___omul
     _initial
     _rand
       ___omul
     _rb
     _rl
     _rr
     _rsb
     _rst
     _rt
   _rotate_bot
     ___awdiv (ARG)
     _rb (ARG)
     _rb_u (ARG)
   _rotate_l
     ___awdiv (ARG)
     _rl (ARG)
     _rl_u (ARG)
   _rotate_r
     ___awdiv (ARG)
     _rr (ARG)
     _rr_u (ARG)
   _rotate_sidebot
     ___awdiv (ARG)
     _rsb (ARG)
     _rsb_u (ARG)
   _rotate_sidetop
     ___awdiv (ARG)
     _rst (ARG)
     _rst_u (ARG)
   _rotate_top
     ___awdiv (ARG)
     _rt (ARG)
     _rt_u (ARG)

 _isr (ROOT)
   _ClearBuffer
   _MyusartRead
     i2___awmod
   _UART_Write_Text
     _UART_Write
   _sprintf
     _vfprintf
       _vfpfcnvrt
         _fputc
           _putch
         _stoa
           _fputc
             _putch
           _strlen
   _strcmp

 Address spaces:
Name               Size   Autos  Total    Cost      Usage
BIGRAM             5FF      0       0      17        0.0%
EEDATA             100      0       0       0        0.0%
BITBANK5           100      0       0      16        0.0%
BANK5              100      0       0      14        0.0%
BITBANK4           100      0       0      12        0.0%
BANK4              100      0       0      13        0.0%
BITBANK3           100      0       0      10        0.0%
BANK3              100      0       0      11        0.0%
BITBANK2           100      0       0       8        0.0%
BANK2              100      0       0       9        0.0%
BITBANK1           100      0       0       6        0.0%
BANK1              100     44      96       7       58.6%
BITBANK0            80      0       0       4        0.0%
BANK0               80     39      69       5       82.0%
BITCOMRAM           7E      0       0       0        0.0%
COMRAM              7E     4A      6D       1       86.5%
BITSFR               0      0       0     200        0.0%
SFR                  0      0       0     200        0.0%
STACK                0      0       0       2        0.0%
NULL                 0      0       0       0        0.0%
ABS                  0      0     16C      15        0.0%
DATA                 0      0     16C       3        0.0%
CODE                 0      0       0       0        0.0%


Microchip Technology PIC18 Macro Assembler V2.10 build 88905656 
Symbol Table                                                                                   Mon Dec 30 20:26:16 2019

            ___awdiv@sign 0157                        _rb 2F1E                        _rl 2D3A  
                      _rr 2B56                        _rt 25AA               __CFG_BORV$3 000000  
            __CFG_CP0$OFF 000000              __CFG_CP1$OFF 000000              __CFG_CP2$OFF 000000  
            __CFG_CP3$OFF 000000                       l202 23C4                       ?_rb 0001  
                     l221 1C34                       l215 3996                       l304 3B66  
                     l240 25A8                       l154 424E                       l162 3F78  
                     l218 278C                       l234 35D6                       l330 1486  
                     l331 151A                       l180 2D38                       l332 15AE  
                     ?_rl 0001                       l237 3100                       l253 3A86  
                     l333 1642                       l334 168E                       l326 134C  
                     l159 3F4A                       l183 21E0                       l319 1348  
                     l256 2970                       l272 36C6                       l328 13A6  
                     l177 1A50                       l329 13F2                       ?_rr 0001  
                     l371 4234                       l275 2B54                       l291 37B6  
                     l259 1E18                       l196 38A6                       ?_rt 0001  
                     l278 1FFC                       l199 2F1C                       l480 3EF8  
                     l706 3DA8                       l479 3ED8                       l693 3CF6  
            __CFG_CPB$OFF 000000                       _PR2 000FCB              __CFG_CPD$OFF 000000  
                     _rgb 00B9                       _isr 0008                       _rsb 2972  
                     _rst 278E              ___awmod@sign 0179                       wreg 000FE8  
                    ??_rb 0152                      ??_rl 0152                      ??_rr 0152  
                    ??_rt 0152              __CFG_LVP$OFF 000000              __CFG_WDT$OFF 000000  
                    l1171 34E6                      l3401 1882                      l3403 18B6  
                    l3501 3D48                      l3413 18E0                      l3405 18BC  
                    l3511 3D82                      l3503 3D50                      l3431 1994  
                    l3415 1914                      l3407 18D8                      l4055 16FA  
                    l3521 4236                      l3505 3D5E                      l3513 3D88  
                    l3441 19D6                      l3425 193E                      l3417 191A  
                    l4057 3B0E                      l3601 3530                      l3523 4238  
                    l3531 3F18                      l3515 3D98                      l3507 3D74  
                    l3451 1A2E                      l3443 19F2                      l3427 1972  
                    l3419 1936                      l3371 3E5A                      l3611 3598  
                    l3603 3548                      l3525 4240                      l3541 3F58  
                    l3533 3F2C                      l3517 3DA0                      l3509 3D7C  
                    l3453 1A34                      l3437 199C                      l3429 1978  
                    l3381 180E                      l3373 3E66                      l3701 3AA0  
                    l3621 39B6                      l3461 21E2                      l3613 35B0  
                    l3605 354C                      l3543 3F70                      l3535 3F34  
                    l3527 3EFA                      l3439 19D0                      l3391 1858  
                    l3383 1810                      l3375 3E76                      l3455 2B56  
                    l3471 278E                      l3463 25AA                      l3711 3AE6  
                    l3703 3AC6                      l3631 3A04                      l3623 39BE  
                    l3551 37DE                      l3615 35B4                      l3607 3554  
                    l3537 3F46                      l3529 3F10                      l3449 19FA  
                    l3393 185E                      l3377 3E96                      l3481 349E  
                    l3721 3B4A                      l3713 3AEE                      l3705 3ACE  
                    l3641 3A6C                      l3625 39E0                      l3633 3A22  
                    l3457 1FFE                      l3553 3800                      l3561 3842  
                    l3473 1C36                      l3465 1A52                      l3617 35BC  
                    l3609 3572                      l3801 0FFC                      l3539 3F48  
                    l3731 421E                      l3491 3D14                      l3395 187A  
                    l3379 3EA8                      l3467 2F1E                      l3459 2D3A  
                    l3475 2972                      l3707 3AD6                      l3635 3A48  
                    l3627 39F8                      l3619 3998                      l3571 38A8  
                    l3563 3868                      l3555 3818                      l3547 37B8  
                    l3651 3638                      l3643 35D8                      l3811 1010  
                    l3803 1000                      l3741 422A                      l3733 4222  
                    l3493 3D18                      l3485 3CF8                      l3389 1824  
                    l3709 3ADE                      l3717 3AF6                      l3469 23C6  
                    l3637 3A60                      l3629 39FC                      l3581 390C  
                    l3573 38C6                      l3565 3880                      l3557 381C  
                    l3549 37D6                      l3477 1E1A                      l3661 36A0  
                    l3653 363C                      l3645 35F6                      l3901 12DC  
                    l3821 101E                      l3813 1014                      l3805 1004  
                    l3743 422C                      l3735 4224                      l3751 3C32  
                    l3495 3D26                      l3487 3CFE                      l3479 33E8  
                    l3719 3B44                      l3639 3A64                      l3591 3974  
                    l3583 3914                      l3575 38CE                      l3567 3884  
                    l3559 3824                      l3671 36EE                      l3663 36A4  
                    l3655 3644                      l3647 35FE                      l3903 12F0  
                    l3831 1030                      l3823 1020                      l3815 1016  
                    l3807 1008                      l3745 422E                      l3737 4226  
                    l3729 4214                      l3761 3C60                      l3753 3C38  
                    l3497 3D2E                      l3489 3D0C                      l3593 397C  
                    l3577 38F0                      l3585 3932                      l3569 388C  
                    l3673 3710                      l3681 3752                      l3665 36AC  
                    l3649 3620                      l3657 3662                      l3905 1394  
                    l3841 103A                      l3833 1032                      l3825 1024  
                    l3817 101A                      l3809 100C                      l3747 4230  
                    l3739 4228                      l3771 3C8E                      l3763 3C68  
                    l3755 3C46                      l3499 3D40                      l3691 3A88  
                    l3587 3958                      l3579 3908                      l3683 3778  
                    l3675 3728                      l3667 36C8                      l3659 3688  
                    l3595 34E8                      l3907 139E                      l3851 1044  
                    l3843 103C                      l3835 1034                      l3827 102C  
                    l3819 101C                      l3749 4232                      l3781 3CC8  
                    l3773 3C96                      l3765 3C6C                      l3757 3C4E  
                    l3693 3A8C                      l3589 3970                      l3685 3790  
                    l3677 372C                      l3669 36E6                      l3597 3506  
                    l3909 13A0                      l3861 1058                      l3853 1046  
                    l3845 103E                      l3837 1036                      l3829 102E  
                    l3791 3CEE                      l3783 3CCA                      l3775 3CA4  
                    l3767 3C74                      l3759 3C52                      l3695 3A96  
                    l3687 3794                      l3679 3734                      l3599 350E  
                    l3871 10A8                      l3863 1072                      l3855 1050  
                    l3847 1040                      l3839 1038                      l3785 3CD0  
                    l3777 3CAA                      l3769 3C86                      l3689 379C  
                    l3961 177A                      l3881 10C2                      l3873 10AC  
                    l3865 1076                      l3849 1042                      l3779 3CC0  
                    l3787 3CD6                      l3971 17AC                      l3963 1784  
                    l3947 16D6                      l3891 11AC                      l3955 16E2  
                    l3883 10D6                      l3875 10AE                      l3867 1092  
                    l3795 0FF0                      l3789 3CE6                      l3981 17E6  
                    l3973 17B6                      l3965 178E                      l3957 1740  
                    l3893 1204                      l3885 112E                      l3877 10BC  
                    l3869 109A                      l3797 0FF4                      l3983 17EE  
                    l3975 17C0                      l3967 1798                      l3959 175E  
                    l3895 1218                      l3887 1140                      l3879 10C0  
                    l3799 0FF8                      l3985 17F2                      l3969 17A2  
                    l3977 17CC                      l3897 1270                      l3889 1198  
                    _ADFM 007E07                      l3979 17D2                      l3899 1284  
                    ?_isr 0001                      ?_rsb 0001                      STR_1 0601  
                    STR_2 0626                      STR_3 0621                      ?_rst 0001  
                    STR_4 061C                      STR_5 0617                      STR_6 0612  
                    STR_7 060D                      STR_8 0608                      _CREN 007D5C  
                    _LATA 000F89                      _LATB 000F8A                      _LATC 000F8B  
                    _LATD 000F8C                      _RCIF 007CF5                      _dbuf 0132  
                    _main 0FF0                      _rb_u 23C6                      _rand 33E8  
                    _seed 00E1                      _rl_u 21E2                      _prec 004F  
                    _nout 004B                      _rr_u 1FFE                      _rt_u 1A52  
                    fsr1h 000FE2                      fsr2h 000FDA                      indf1 000FE7  
                    indf2 000FDF                      fsr1l 000FE1                      fsr2l 000FD9  
                    _stoa 3102                      btemp 006E                      isr@i 00B7  
                    isr@k 00B5          __end_of_ADC_Read 3F7A                      start 000E  
           __CFG_IESO$OFF 000000             __CFG_MCLRE$ON 000000              ___param_bank 000000  
 __end_of_UART_Write_Text 3FF8                     ??_isr 0042                     ??_rsb 0152  
                   ??_rst 0152          ?_UART_Initialize 0001                     ?_main 0001  
                   ?_rb_u 0001                     ?_rand 016A           __end_of___awdiv 3CF8  
                   ?_rl_u 0001           __end_of___awmod 3DAA                     ?_rr_u 0001  
                   ?_rt_u 0001                     ?_stoa 000A           ___awdiv@divisor 0154  
                   u14000 3E76                     u14001 3E72                     u14010 3ED8  
                   u14011 3ED4                     u14020 187A                     u14021 1876  
                   u14030 18D8                     u14031 18D4                     u14040 1936  
                   u14041 1932                     u14105 2B80                     u14050 1994  
                   u14051 1990                     u14115 2B8C                     u14107 2B84  
                   u14060 19F2                     u14061 19EE                     u15005 2E48  
                   u14205 2BF8                     u14125 2B98                     u14117 2B90  
                   u14070 1A50                     u14071 1A4C                     u15015 2E58  
                   u15007 2E4C                     u14215 2C04                     u14207 2BFC  
                   u14135 2BA4                     u14127 2B9C                     u15105 2ED0  
                   u15025 2E68                     u15017 2E5C                     u14305 2C84  
                   u14225 2C10                     u14217 2C08                     u14145 2BB0  
                   u14137 2BA8                     u15115 2EE0                     u15107 2ED4  
                   u15035 2E78                     u15027 2E6C                     u14315 2C94  
                   u14307 2C88                     u14235 2C1C                     u14227 2C14  
                   u14155 2BBC                     u14147 2BB4                     u15125 2EEC  
                   u15117 2EE4                     u15045 2E88                     u15037 2E7C  
                   u14405 2D08                     u14325 2CA4                     u14317 2C98  
                   u14245 2C28                     u14237 2C20                     u14165 2BC8  
                   u14157 2BC0                     u14085 2B68                     u15205 2224  
                   u16005 1AF4                     u15135 2EFC                     u15127 2EF0  
                   u15055 2E94                     u15047 2E8C                     u14415 2D18  
                   u14407 2D0C                     u14335 2CB0                     u14327 2CA8  
                   u14255 2C34                     u14247 2C2C                     u14175 2BD4  
                   u14167 2BCC                     u14095 2B74                     u14087 2B6C  
                   u15215 2230                     u15207 2228                     u16015 1B00  
                   u16007 1AF8                     u15145 2F08                     u15137 2F00  
                   u15065 2EA0                     u15057 2E98                     u14425 2D24  
                   u14417 2D1C                     u14345 2CBC                     u14337 2CB4  
                   u14265 2C44                     u14257 2C38                     u14185 2BE0  
                   u14177 2BD8                     u14097 2B78                     u15305 229C  
                   u15225 223C                     u15217 2234                     u14505 2058  
                   u16105 1B80                     u16025 1B0C                     u16017 1B04  
                   u15155 2F18                     u15147 2F0C                     u15075 2EAC  
                   u15067 2EA4                     u14435 2D34                     u14427 2D28  
                   u14355 2CC8                     u14347 2CC0                     u14275 2C54  
                   u14267 2C48                     u14195 2BEC                     u14187 2BE4  
                   u15315 22A8                     u15307 22A0                     u15235 2248  
                   u15227 2240                     u14515 2064                     u14507 205C  
                   u16115 1B90                     u16107 1B84                     u16035 1B18  
                   u16027 1B10                     u15157 2F1C                     u15085 2EB8  
                   u15077 2EB0                     u14437 2D38                     u14365 2CD4  
                   u14357 2CCC                     u14285 2C64                     u14277 2C58  
                   u14197 2BF0                     u17005 27D0                     u15405 2330  
                   u15325 22B4                     u15317 22AC                     u15245 2254  
                   u15237 224C                     u15165 21F4                     u14605 20D0  
                   u14525 2070                     u14517 2068                     u14445 2010  
                   u16205 1C04                     u16125 1BA0                     u16117 1B94  
                   u16045 1B24                     u16037 1B1C                     u15095 2EC4  
                   u15087 2EBC                     u14375 2CE0                     u14367 2CD8  
                   u14295 2C74                     u14287 2C68                     u17015 27DC  
                   u17007 27D4                     u15415 233C                     u15407 2334  
                   u15335 22C0                     u15327 22B8                     u15255 2260  
                   u15247 2258                     u15175 2200                     u15167 21F8  
                   u14615 20DC                     u14607 20D4                     u14535 207C  
                   u14527 2074                     u14455 201C                     u14447 2014  
                   u16215 1C14                     u16207 1C08                     u16135 1BAC  
                   u16127 1BA4                     u16055 1B30                     u16047 1B28  
                   u16305 2F78                     u15097 2EC8                     u14385 2CEC  
                   u14377 2CE4                     u14297 2C78                     u17105 2848  
                   u17025 27E8                     u17017 27E0                     u15505 23B0  
                   u15425 2348                     u15417 2340                     u15345 22D0  
                   u15337 22C4                     u15265 226C                     u15257 2264  
                   u15185 220C                     u15177 2204                     u14705 2164  
                   u14625 20EC                     u14617 20E0                     u14545 2088  
                   u14537 2080                     u14465 2028                     u14457 2020  
                   u16225 1C20                     u16217 1C18                     u16145 1BB8  
                   u16137 1BB0                     u16065 1B40                     u16057 1B34  
                   u16315 2F84                     u16307 2F7C                     u14395 2CFC  
                   u14387 2CF0                     u17115 2854                     u17107 284C  
                   u17035 27F4                     u17027 27EC                     u15515 23C0  
                   u15507 23B4                     u15435 2354                     u15427 234C  
                   u15355 22E0                     u15347 22D4                     u15275 2278  
                   u15267 2270                     u15195 2218                     u15187 2210  
                   u14715 2170                     u14707 2168                     u14635 20FC  
                   u14627 20F0                     u14555 2094                     u14547 208C  
                   u14475 2034                     u14467 202C                     u16235 1C30  
                   u16227 1C24                     u16155 1BC4                     u16147 1BBC  
                   u16075 1B50                     u16067 1B44                     u16405 2FF0  
                   u16325 2F90                     u16317 2F88                     u16245 2F30  
                   u14805 2D4C                     u14397 2D00                     u18005 2B24  
                   u17205 28DC                     u17125 2860                     u17117 2858  
                   u17045 2800                     u17037 27F8                     u15605 261C  
                   u15525 25BC                     u15517 23C4                     u15445 2360  
                   u15437 2358                     u15365 22F0                     u15357 22E4  
                   u15285 2284                     u15277 227C                     u15197 221C  
                   u14725 217C                     u14717 2174                     u14645 210C  
                   u14637 2100                     u14565 20A0                     u14557 2098  
                   u14485 2040                     u14477 2038                     u16237 1C34  
                   u16165 1BD0                     u16157 1BC8                     u16085 1B60  
                   u16077 1B54                     u16415 2FFC                     u16407 2FF4  
                   u16335 2F9C                     u16327 2F94                     u16255 2F3C  
                   u16247 2F34                     u14815 2D58                     u14807 2D50  
                   u18015 2B34                     u18007 2B28                     u17215 28E8  
                   u17207 28E0                     u17135 286C                     u17127 2864  
                   u17055 280C                     u17047 2804                     u15615 2628  
                   u15607 2620                     u15535 25C8                     u15527 25C0  
                   u15455 236C                     u15447 2364                     u15375 2300  
                   u15367 22F4                     u15295 2290                     u15287 2288  
                   u14735 2188                     u14727 2180                     u14655 211C  
                   u14647 2110                     u14575 20AC                     u14567 20A4  
                   u14495 204C                     u14487 2044                     u16175 1BDC  
                   u16167 1BD4                     u16095 1B70                     u16087 1B64  
                   u16505 3084                     u16425 300C                     u16417 3000  
                   u16345 2FA8                     u16337 2FA0                     u16265 2F48  
                   u16257 2F40                     u14905 2DC4                     u14825 2D64  
                   u14817 2D5C                     u18025 2B40                     u18017 2B38  
                   u17305 295C                     u17225 28F4                     u17217 28EC  
                   u17145 287C                     u17137 2870                     u17065 2818  
                   u17057 2810                     u15705 2698                     u15625 2634  
                   u15617 262C                     u15545 25D4                     u15537 25CC  
                   u15465 2378                     u15457 2370                     u15385 2310  
                   u15377 2304                     u15297 2294                     u14745 2194  
                   u14737 218C                     u14665 212C                     u14657 2120  
                   u14585 20B8                     u14577 20B0                     u14497 2050  
                   u18105 1E74                     u16185 1BE8                     u16177 1BE0  
                   u16097 1B74                     u16515 3090                     u16507 3088  
                   u16435 301C                     u16427 3010                     u16355 2FB4  
                   u16347 2FAC                     u16275 2F54                     u16267 2F4C  
                   u14915 2DD0                     u14907 2DC8                     u14835 2D70  
                   u14827 2D68                     u18035 2B50                     u18027 2B44  
                   u17315 296C                     u17307 2960                     u17235 2900  
                   u17227 28F8                     u17155 288C                     u17147 2880  
                   u17075 2824                     u17067 281C                     u15715 26A8  
                   u15707 269C                     u15635 2640                     u15627 2638  
                   u15555 25E0                     u15547 25D8                     u15475 2388  
                   u15467 237C                     u15395 2320                     u15387 2314  
                   u14755 21A4                     u14747 2198                     u14675 213C  
                   u14667 2130                     u14595 20C4                     u14587 20BC  
                   u18115 1E80                     u18107 1E78                     u16195 1BF8  
                   u16187 1BEC                     u16525 309C                     u16517 3094  
                   u16445 302C                     u16437 3020                     u16365 2FC0  
                   u16357 2FB8                     u16285 2F60                     u16277 2F58  
                   u14925 2DDC                     u14917 2DD4                     u14845 2D7C  
                   u14837 2D74                     u18037 2B54                     u17317 2970  
                   u17245 290C                     u17237 2904                     u17165 289C  
                   u17157 2890                     u17085 2830                     u17077 2828  
                   u15805 2728                     u15725 26B8                     u15717 26AC  
                   u15645 264C                     u15637 2644                     u15565 25EC  
                   u15557 25E4                     u16605 23D8                     u15485 2394  
                   u15477 238C                     u15397 2324                     u14765 21B0  
                   u14757 21A8                     u14685 214C                     u14677 2140  
                   u14597 20C8                     u18205 1EEC                     u18125 1E8C  
                   u18117 1E84                     u18045 1E2C                     u17405 1CA8  
                   u17325 1C48                     u16197 1BFC                     u19005 1386  
                   u13991 3E60                     u16535 30A8                     u16527 30A0  
                   u16455 303C                     u16447 3030                     u16375 2FCC  
                   u16367 2FC4                     u16295 2F6C                     u16287 2F64  
                   u14935 2DE8                     u14927 2DE0                     u14855 2D88  
                   u14847 2D80                     u17255 2918                     u17247 2910  
                   u17175 28AC                     u17167 28A0                     u17095 283C  
                   u17087 2834                     u15815 2734                     u15807 272C  
                   u15735 26C8                     u15727 26BC                     u15655 2658  
                   u15647 2650                     u15575 25F8                     u15567 25F0  
                   u16615 23E4                     u16607 23DC                     u15495 23A4  
                   u15487 2398                     u14775 21C0                     u14767 21B4  
                   u14695 2158                     u14687 2150                     u18215 1EF8  
                   u18207 1EF0                     u18135 1E98                     u18127 1E90  
                   u18055 1E38                     u18047 1E30                     u17415 1CB4  
                   u17407 1CAC                     u17335 1C54                     u17327 1C4C  
                   u19015 1392                     u19007 1388                     u18400 34D8  
                   u16545 30B4                     u16537 30AC                     u16465 304C  
                   u16457 3040                     u16385 2FD8                     u16377 2FD0  
                   u16297 2F70                     u14945 2DF4                     u14937 2DEC  
                   u14865 2D94                     u14857 2D8C                     u17265 2924  
                   u17257 291C                     u17185 28BC                     u17177 28B0  
                   u17097 2840                     u15825 2740                     u15817 2738  
                   u15745 26D8                     u15737 26CC                     u15665 2664  
                   u15657 265C                     u15585 2604                     u15577 25FC  
                   u16705 2450                     u16625 23F0                     u16617 23E8  
                   u15497 23A8                     u14785 21CC                     u14777 21C4  
                   u14697 215C                     u18305 1F80                     u18225 1F08  
                   u18217 1EFC                     u18145 1EA4                     u18137 1E9C  
                   u18065 1E44                     u18057 1E3C                     u17505 1D24  
                   u17425 1CC0                     u17417 1CB8                     u17345 1C60  
                   u17337 1C58                     u15905 1A7C                     u19105 1414  
                   u19025 13B0                     u19017 1394                     u18410 3D0C  
                   u18411 3D08                     u16555 30C4                     u16547 30B8  
                   u16475 305C                     u16467 3050                     u16395 2FE4  
                   u16387 2FDC                     u14955 2E00                     u14947 2DF8  
                   u14875 2DA0                     u14867 2D98                     u17275 2934  
                   u17267 2928                     u17195 28CC                     u17187 28C0  
                   u15835 2750                     u15827 2744                     u15755 26E8  
                   u15747 26DC                     u15675 2670                     u15667 2668  
                   u15595 2610                     u15587 2608                     u16715 245C  
                   u16707 2454                     u16635 23FC                     u16627 23F4  
                   u14795 21DC                     u14787 21D0                     u18315 1F8C  
                   u18307 1F84                     u18235 1F18                     u18227 1F0C  
                   u18155 1EB0                     u18147 1EA8                     u18075 1E50  
                   u18067 1E48                     u17515 1D34                     u17507 1D28  
                   u17435 1CCC                     u17427 1CC4                     u17355 1C6C  
                   u17347 1C64                     u15915 1A88                     u15907 1A80  
                   u19115 1420                     u19107 1416                     u19035 13BC  
                   u19027 13B2                     u18420 3D26                     u18500 37D6  
                   u18421 3D22                     u18405 34C4                     u16565 30D0  
                   u16557 30C8                     u16485 306C                     u16477 3060  
                   u16397 2FE8                     u14965 2E0C                     u14957 2E04  
                   u14885 2DAC                     u14877 2DA4                     u17285 2940  
                   u17277 2938                     u17197 28D0                     u15845 275C  
                   u15837 2754                     u15765 26F8                     u15757 26EC  
                   u15685 267C                     u15677 2674                     u15597 2614  
                   u16805 24D4                     u16725 2468                     u16717 2460  
                   u16645 2408                     u16637 2400                     u14797 21E0  
                   u18501 37D2                     u18325 1F98                     u18317 1F90  
                   u18245 1F28                     u18237 1F1C                     u18165 1EBC  
                   u18157 1EB4                     u18085 1E5C                     u18077 1E54  
                   u17605 1DB4                     u17525 1D44                     u17517 1D38  
                   u17445 1CD8                     u17437 1CD0                     u17365 1C78  
                   u17357 1C70                     u15925 1A94                     u15917 1A8C  
                   u19205 1490                     u19125 142C                     u19117 1422  
                   u19045 13C8                     u19037 13BE                     u18430 3D40  
                   u18510 3800                     u18431 3D3C                     u16575 30E0  
                   u16567 30D4                     u16495 3078                     u16487 3070  
                   u14975 2E18                     u14967 2E10                     u14895 2DB8  
                   u14887 2DB0                     u17295 2950                     u17287 2944  
                   u15855 276C                     u15847 2760                     u15775 2704  
                   u15767 26FC                     u15695 2688                     u15687 2680  
                   u16815 24E4                     u16807 24D8                     u16735 2474  
                   u16727 246C                     u16655 2414                     u16647 240C  
                   u18511 37FC                     u18335 1FA4                     u18327 1F9C  
                   u18255 1F38                     u18247 1F2C                     u18175 1EC8  
                   u18167 1EC0                     u18095 1E68                     u18087 1E60  
                   u17615 1DC0                     u17607 1DB8                     u17535 1D54  
                   u17527 1D48                     u17455 1CE4                     u17447 1CDC  
                   u17375 1C84                     u17367 1C7C                     u15935 1AA0  
                   u15927 1A98                     u19215 149C                     u19207 1492  
                   u19135 1438                     u19127 142E                     u19055 13D4  
                   u19047 13CA                     u18440 3D5E                     u18520 383E  
                   u18600 3506                     u18441 3D5A                     u16585 30EC  
                   u16577 30E4                     u16497 307C                     u14985 2E28  
                   u14977 2E1C                     u14897 2DBC                     u17705 299C  
                   u17297 2954                     u15865 2778                     u15857 2770  
                   u15785 2710                     u15777 2708                     u15697 268C  
                   u16905 255C                     u16825 24F4                     u16817 24E8  
                   u16745 2480                     u16737 2478                     u16665 2420  
                   u16657 2418                     u18521 383A                     u18345 1FB0  
                   u18337 1FA8                     u18265 1F48                     u18257 1F3C  
                   u18185 1ED4                     u18177 1ECC                     u18097 1E6C  
                   u17625 1DCC                     u17617 1DC4                     u17545 1D64  
                   u17537 1D58                     u17465 1CF0                     u17457 1CE8  
                   u17385 1C90                     u17377 1C88                     u15945 1AAC  
                   u15937 1AA4                     u18601 3502                     u19305 1508  
                   u19225 14A8                     u19217 149E                     u19145 1444  
                   u19137 143A                     u19065 13E0                     u19057 13D6  
                   u18450 3D74                     u18530 3868                     u18610 3530  
                   u18451 3D70                     u16595 30FC                     u16587 30F0  
                   u14995 2E38                     u14987 2E2C                     u17715 29A8  
                   u17707 29A0                     u15875 2788                     u15867 277C  
                   u15795 271C                     u15787 2714                     u16915 256C  
                   u16907 2560                     u16835 2504                     u16827 24F8  
                   u16755 248C                     u16747 2484                     u16675 242C  
                   u16667 2424                     u18531 3864                     u18355 1FC0  
                   u18347 1FB4                     u18275 1F58                     u18267 1F4C  
                   u18195 1EE0                     u18187 1ED8                     u17635 1DDC  
                   u17627 1DD0                     u17555 1D74                     u17547 1D68  
                   u17475 1CFC                     u17467 1CF4                     u17395 1C9C  
                   u17387 1C94                     u15955 1AB8                     u15947 1AB0  
                   u18611 352C                     u19315 1514                     u19307 150A  
                   u19235 14B4                     u19227 14AA                     u19155 1450  
                   u19147 1446                     u19075 13EC                     u19067 13E2  
                   u18460 3D98                     u18540 38A6                     u18700 35F6  
                   u18620 356E                     u18461 3D94                     u16597 3100  
                   u14997 2E3C                     u17805 2A14                     u17725 29B4  
                   u17717 29AC                     u15877 278C                     u15797 2720  
                   u16925 2578                     u16917 2570                     u16845 2514  
                   u16837 2508                     u16765 2498                     u16757 2490  
                   u16685 2438                     u16677 2430                     u18541 38A2  
                   u18365 1FCC                     u18357 1FC4                     u18285 1F68  
                   u18277 1F5C                     u18197 1EE4                     u17645 1DE8  
                   u17637 1DE0                     u17565 1D84                     u17557 1D78  
                   u17485 1D08                     u17477 1D00                     u17397 1CA0  
                   u18701 35F2                     u15965 1AC4                     u15957 1ABC  
                   u15885 1A64                     u18621 356A                     u19405 1584  
                   u19325 1524                     u19317 1516                     u19245 14C0  
                   u19237 14B6                     u19165 145C                     u19157 1452  
                   u19085 13FC                     u19077 13EE                     u18470 3F10  
                   u18550 38C6                     u18710 3620                     u18630 3598  
                   u18471 3F0C                     u17815 2A20                     u17807 2A18  
                   u17735 29C0                     u17727 29B8                     u16935 2588  
                   u16927 257C                     u16855 2520                     u16847 2518  
                   u16775 24A4                     u16767 249C                     u16695 2444  
                   u16687 243C                     u18551 38C2                     u18375 1FDC  
                   u18367 1FD0                     u18295 1F74                     u18287 1F6C  
                   u17655 1DF8                     u17647 1DEC                     u17575 1D90  
                   u17567 1D88                     u17495 1D14                     u17487 1D0C  
                   u18711 361C                     u15975 1AD0                     u15967 1AC8  
                   u15895 1A70                     u15887 1A68                     u18631 3594  
                   u19415 1590                     u19407 1586                     u19335 1530  
                   u19327 1526                     u19255 14CC                     u19247 14C2  
                   u19175 1468                     u19167 145E                     u19095 1408  
                   u19087 13FE                     u18480 3F2C                     u18800 3B66  
                   u18560 38F0                     u18720 365E                     u18640 35D6  
                   u18481 3F28                     u17905 2AA0                     u17825 2A2C  
                   u17817 2A24                     u17745 29CC                     u17737 29C4  
                   u18801 3B62                     u16945 2594                     u16937 258C  
                   u16865 252C                     u16857 2524                     u16785 24B4  
                   u16777 24A8                     u16697 2448                     u18561 38EC  
                   u18385 1FE8                     u18377 1FE0                     u18297 1F78  
                   u17665 1E04                     u17657 1DFC                     u17585 1D9C  
                   u17577 1D94                     u17497 1D18                     u18721 365A  
                   u15985 1ADC                     u15977 1AD4                     u15897 1A74  
                   u18641 35D2                     u19505 1600                     u19425 159C  
                   u19417 1592                     u19345 153C                     u19337 1532  
                   u19265 14D8                     u19257 14CE                     u19185 1474  
                   u19177 146A                     u19097 140A                     u18490 3F58  
                   u18810 3C46                     u18650 39B6                     u18570 392E  
                   u18730 3688                     u18491 3F54                     u18811 3C42  
                   u17915 2AB0                     u17907 2AA4                     u17835 2A38  
                   u17827 2A30                     u17755 29D8                     u17747 29D0  
                   u16955 25A4                     u16947 2598                     u16875 2538  
                   u16867 2530                     u16795 24C4                     u16787 24B8  
                   u18651 39B2                     u18571 392A                     u18395 1FF8  
                   u18387 1FEC                     u17675 1E14                     u17667 1E08  
                   u17595 1DA8                     u17587 1DA0                     u18731 3684  
                   u15995 1AE8                     u15987 1AE0                     u19515 160C  
                   u19507 1602                     u19435 15A8                     u19427 159E  
                   u19355 1548                     u19347 153E                     u19275 14E4  
                   u19267 14DA                     u19195 1480                     u19187 1476  
                   u18820 3C60                     u18660 39E0                     u18580 3958  
                   u18740 36C6                     u18900 10D6                     u18821 3C5C  
                   u17925 2AC0                     u17917 2AB4                     u17845 2A44  
                   u17837 2A3C                     u17765 29E4                     u17757 29DC  
                   u17685 2984                     u16965 27A0                     u16957 25A8  
                   u16885 2544                     u16877 253C                     u16797 24C8  
                   u18661 39DC                     u18581 3954                     u18397 1FFC  
                   u17677 1E18                     u17597 1DAC                     u18741 36C2  
                   u15997 1AEC                     u19605 167C                     u19525 1618  
                   u19517 160E                     u19445 15B8                     u19437 15AA  
                   u19365 1554                     u19357 154A                     u19285 14F0  
                   u19277 14E6                     u19197 1482                     u18901 10D2  
                   u18830 3C86                     u18670 3A1E                     u18590 3996  
                   u18750 36E6                     u18910 1140                     u18831 3C82  
                   u17935 2ACC                     u17927 2AC4                     u17855 2A50  
                   u17847 2A48                     u17775 29F0                     u17767 29E8  
                   u17695 2990                     u17687 2988                     u16975 27AC  
                   u16967 27A4                     u16895 2550                     u16887 2548  
                   u18671 3A1A                     u18591 3992                     u18751 36E2  
                   u19615 1688                     u19607 167E                     u19535 1624  
                   u19527 161A                     u19455 15C4                     u19447 15BA  
                   u19375 1560                     u19367 1556                     u19295 14FC  
                   u19287 14F2                     u18911 113C                     u18840 3CA4  
                   u18680 3A48                     u18760 3710                     u18920 11AC  
                   u18841 3CA0                     u17945 2AD8                     u17937 2AD0  
                   u17865 2A60                     u17857 2A54                     u17785 29FC  
                   u17777 29F4                     u17697 2994                     u16985 27B8  
                   u16977 27B0                     u16897 2554                     u18681 3A44  
                   u18761 370C                     u19705 1782                     u19625 1698  
                   u19617 168A                     u19545 1630                     u19537 1626  
                   u19465 15D0                     u19457 15C6                     u19385 156C  
                   u19377 1562                     u19297 14FE                     u18921 11A8  
                   u18850 3CC0                     u18690 3A86                     u18770 374E  
                   u18930 1218                     u18851 3CBC                     u17955 2AE4  
                   u17947 2ADC                     u17875 2A70                     u17867 2A64  
                   u17795 2A08                     u17787 2A00                     u16995 27C4  
                   u16987 27BC                     u18691 3A82                     u18771 374A  
                   u19715 178C                     u19707 1784                     u19635 16A4  
                   u19627 169A                     u19555 163C                     u19547 1632  
                   u19475 15DC                     u19467 15D2                     u19395 1578  
                   u19387 156E                     u18931 1214                     u18860 3CE6  
                   u18780 3778                     u18940 1284                     u18861 3CE2  
                   u17965 2AF0                     u17957 2AE8                     u17885 2A80  
                   u17877 2A74                     u17797 2A0C                     u16997 27C8  
                   u18781 3774                     u19725 1796                     u19717 178E  
                   u19645 16B0                     u19637 16A6                     u19565 164C  
                   u19557 163E                     u19485 15E8                     u19477 15DE  
                   u19397 157A                     u18941 1280                     u18790 37B6  
                   u18950 12F0                     u18870 1092                     u17975 2AFC  
                   u17967 2AF4                     u17895 2A90                     u17887 2A84  
                   u18791 37B2                     u19735 17A0                     u19727 1798  
                   u19655 16BC                     u19647 16B2                     u19575 1658  
                   u19567 164E                     u19495 15F4                     u19487 15EA  
                   u19807 1396                     u18951 12EC                     u18871 108E  
                   u19680 175E                     u18880 10A8                     u17985 2B08  
                   u17977 2B00                     u17897 2A94                     u19745 17AA  
                   u19737 17A2                     u19681 175A                     u19817 16D8  
                   u19665 16C8                     u19657 16BE                     u19585 1664  
                   u19577 165A                     u19497 15F6                     u18881 10A4  
                   u19690 1770                     u18890 10BC                     u17995 2B18  
                   u17987 2B0C                     u19755 17B4                     u19747 17AC  
                   u19691 1768                     u19675 16D4                     u19667 16CA  
                   u19595 1670                     u19587 1666                     u18891 10B8  
                   u19780 17E6                     u17997 2B1C                     u19781 17E2  
                   u19765 17BE                     u19757 17B6                     u19677 16D6  
                   u19597 1672                     u18965 1356                     i2l102 0770  
                   u19790 1806                     u19791 1802                     u19775 17CA  
                   u19767 17C0                     u18975 1362                     u18967 1358  
                   i2l112 0964                     u19776 17CC                     u18985 136E  
                   u18977 1364                     i2l122 0B58                     u19698 1774  
                   i2l107 086A                     u18995 137A                     u18987 1370  
                   i2l117 0A5E                     u18997 137C                     i2l151 0FCC  
                   i2l145 0F98                     i2l431 3182                     i2l433 318A  
                   i2l442 3232                     i2l443 327A                     i2l452 33E6  
                   i2l374 4252                     i2l391 41A8                     i2l447 3282  
                   i2l377 4264                     i2l706 3E58                     i2l394 4212  
                   i2l386 3FF6                     i2l458 40BC                     i2l459 40C4  
         ___awdiv@counter 0156                     _RCREG 000FAE              vfpfcnvrt@fmt 0022  
            main@val_1751 018E              main@val_1743 0186              main@val_1745 0188  
            main@val_1747 018A              main@val_1749 018C                     _SPBRG 000FAF  
                   _PORTA 000F80                     _TRISA 000F92                     _TRISB 000F93  
                   _TRISC 000F94                     _TRISD 000F95            _rotate_sidebot 36C8  
                   _TXREG 000FAD            _rotate_sidetop 35D8             __CFG_PWRT$OFF 000000  
           __CFG_WRT0$OFF 000000             __CFG_WRT1$OFF 000000             __CFG_WRT2$OFF 000000  
           __CFG_WRT3$OFF 000000            __CFG_EBTR0$OFF 000000            __CFG_FCMEN$OFF 000000  
          __CFG_EBTR1$OFF 000000            __CFG_EBTR2$OFF 000000            __CFG_EBTR3$OFF 000000  
             ?_UART_Write 0001             __CFG_WRTB$OFF 000000             __CFG_WRTC$OFF 000000  
           __CFG_WRTD$OFF 000000            __CFG_EBTRB$OFF 000000                     _flags 0051  
                   _fputc 3B68           __end_of_initial 1A52                     _rsb_u 1E1A  
                   _width 004D                     _putch 426E                     main@i 0192  
                   main@j 0190                     _rst_u 1C36               _ClearBuffer 4166  
                   tablat 000FF5                     plusw1 000FE3                     plusw2 000FDB  
                   stoa@i 0016                     stoa@l 001E                     stoa@p 001C  
                   stoa@s 000C                     stoa@w 0018                     ttemp5 006F  
                   ttemp6 0072                     ttemp7 0076                     status 000FD8  
                   wtemp8 006F           __end_of_sprintf 4166        __size_ofi2___awmod 00B0  
         __initialization 40C6        rotate_bot@buf_1409 015F              ?_random_cube 0001  
            __end_of_main 180E              __end_of_rb_u 25AA              __end_of_rand 34E8  
            __end_of_rl_u 23C6              __end_of_rr_u 21E2              __end_of_rt_u 1C36  
            __end_of_stoa 3284    __end_of_rotate_sidebot 37B8                    ??_main 0180  
                  ??_rb_u 0152    __end_of_rotate_sidetop 36C8                    ??_rand 016C  
                  ??_rl_u 0152                    ??_rr_u 0152                    ??_rt_u 0152  
                  ??_stoa 000E             __activetblptr 000002             _need_to_check 00DD  
                  _ADCON1 000FC1                    _ADCON2 000FC0                    ?_fputc 0001  
                  _ADRESH 000FC4                    _ADRESL 000FC3          ___awdiv@dividend 0152  
                  ?_rsb_u 0001                    ?_putch 0001                    ?_rst_u 0001  
                  i2l1160 4164                    i2l1145 3C30                    i2l3001 0B3C  
                  i2l1163 426E                    i2l3011 0BA6                    i2l3003 0B5C  
                  i2l2301 311C                    i2l3101 0F9E                    i2l3021 0C52  
                  i2l3013 0BE8                    i2l2311 3160                    i2l2303 312E  
                  i2l3103 0FBA                    i2l3031 0C8A                    i2l3023 0C64  
                  i2l3015 0C2A                    i2l1185 41DE                    i2l2321 31E2  
                  i2l2305 3136                    i2l3105 0FC6                    i2l3041 0CC2  
                  i2l3033 0C90                    i2l3025 0C66                    i2l3017 0C32  
                  i2l3009 0B64                    i2l2323 31EE                    i2l2315 31AC  
                  i2l2307 314A                    i2l1179 4066                    i2l3051 0D04  
                  i2l3043 0CE8                    i2l3035 0C94                    i2l3107 0FCA  
                  i2l3019 0C36                    i2l3027 0C6E                    i2l2333 3244  
                  i2l2325 320C                    i2l2317 31C0                    i2l2309 3152  
                  i2l2341 32A8                    i2l2501 4070                    i2l3061 0D8C  
                  i2l3053 0D1E                    i2l3045 0CFA                    i2l3037 0CB2  
                  i2l3029 0C7C                    i2l2335 3258                    i2l2327 3210  
                  i2l2319 31C4                    i2l2351 3324                    i2l2343 32B6  
                  i2l2503 407C                    i2l3071 0E14                    i2l3063 0DA6  
                  i2l3055 0D38                    i2l3039 0CBE                    i2l2601 416E  
                  i2l2281 3BB4                    i2l2273 3B68                    i2l2337 325C  
                  i2l2329 3214                    i2l2361 338A                    i2l2345 32C6  
                  i2l2505 40A0                    i2l3081 0E9C                    i2l3073 0E2E  
                  i2l3065 0DC0                    i2l3057 0D52                    i2l2603 417E  
                  i2l2283 3BEA                    i2l2275 3B7A                    i2l2291 41BA  
                  i2l2355 3344                    i2l2347 32CA                    i2l2371 33B0  
                  i2l2339 3284                    i2l2611 3FFC                    i2l3091 0F2A  
                  i2l3083 0EBC                    i2l3075 0E4E                    i2l3067 0DE0  
                  i2l3059 0D72                    i2l2605 4182                    i2l2277 3B8C  
                  i2l2293 41D2                    i2l2373 33D4                    i2l2357 3368  
                  i2l2365 3396                    i2l2349 32EE                    i2l2621 4118  
                  i2l2613 4004                    i2l3093 0F44                    i2l3085 0ED6  
                  i2l3077 0E68                    i2l3069 0DFA                    i2l2607 419E  
                  i2l2551 3DC8                    i2l2543 3DAA                    i2l2279 3B96  
                  i2l2287 41AA                    i2l2367 33A4                    i2l2359 3376  
                  i2l2623 4128                    i2l2615 402C                    i2l3095 0F5E  
                  i2l3087 0EF0                    i2l3079 0E82                    i2l2561 3E00  
                  i2l2553 3DD6                    i2l2545 3DAE                    i2l2289 41B6  
                  i2l2297 3102                    i2l2625 4130                    i2l2617 4044  
                  i2l2609 3FF8                    i2l3097 0F78                    i2l3089 0F0A  
                  i2l2563 3E0E                    i2l2571 3E38                    i2l2555 3DDE  
                  i2l2547 3DBC                    i2l2299 3114                    i2l2627 4138  
                  i2l3099 0F98                    i2l2573 3E48                    i2l2565 3E24  
                  i2l2557 3DF0                    i2l2549 3DC4                    i2l2581 41F2  
                  i2l2629 4154                    i2l2575 3E50                    i2l2567 3E2C  
                  i2l2559 3DF8                    i2l2583 41F6                    i2l2495 4252  
                  i2l2591 3FB6                    i2l2911 066E                    i2l2569 3E32  
                  i2l2497 4260                    i2l2593 3FBA                    i2l2921 06C4  
                  i2l2913 0676                    i2l2595 4166                    i2l2579 41E0  
                  i2l2587 3F7A                    i2l2499 4068                    i2l2931 0774  
                  i2l2923 0706                    i2l2907 064C                    i2l2589 3F86  
                  i2l2941 0800                    i2l2925 0748                    i2l2909 065A  
                  i2l2943 0842                    i2l2927 0750                    i2l2919 0682  
                  i2l2961 093C                    i2l2945 084A                    i2l2937 077C  
                  i2l2929 0754                    i2l2963 0944                    i2l2955 0876  
                  i2l2947 084E                    i2l2939 07BE                    i2l2981 0A3E  
                  i2l2973 0970                    i2l2965 0948                    i2l2957 08B8  
                  i2l2949 086E                    i2l2991 0A6A                    i2l2983 0A42  
                  i2l2975 09B2                    i2l2967 0968                    i2l2959 08FA  
                  i2l2993 0AAC                    i2l2985 0A62                    i2l2977 09F4  
                  i2l2995 0AEE                    i2l2979 0A36                    i2l2997 0B30  
                  i2l2999 0B38    rotate_sidebot@buf_1653 015F            __CFG_XINST$OFF 000000  
            vfprintf@cfmt 0030                    ___omul 3E5A       __size_of_UART_Write 0016  
               ??___awdiv 0156            __CFG_STVREN$ON 000000                 ??___awmod 0178  
        ?_UART_Write_Text 0002           ADC_Read@channle 0152                    _lenStr 00DF  
         ADC_Read@digital 0156                    clear_0 40EC                    clear_1 40F8  
                  clear_2 4104          ___awdiv@quotient 0158           ___awmod@divisor 0176  
         ___awmod@counter 0178           ?_rotate_sidebot 015A                    _strcmp 3FF8  
         ?_rotate_sidetop 015A                    _strlen 41AA                    fputc@c 0001  
                  isr@str 0080              __pdataCOMRAM 0067                 ??_initial 0152  
       __end_ofi2___awmod 3E5A                 ?_ADC_Read 0152              __mediumconst 0000  
                  tblptrh 000FF7                    tblptrl 000FF6                    tblptru 000FF8  
                  stoa@cp 001A                    stoa@fp 000A                    putch@c 0001  
        __end_of_rotate_l 3998          __end_of_rotate_r 38A8          __end_of_vfprintf 40C6  
          i2___awmod@sign 0006                 ??_sprintf 0038                __accesstop 0080  
 __end_of__initialization 410A           __CFG_PBADEN$OFF 000000             ___rparam_used 000001  
          __pcstackCOMRAM 0001             __end_of_fputc 3C32             __end_of_rsb_u 1FFE  
           __end_of_putch 4270             __end_of_rst_u 1E1A                __end_of_rb 3102  
              __end_of_rl 2F1E                __end_of_rr 2D3A                __end_of_rt 278E  
              ??_ADC_Read 0154             ??_MyusartRead 0007                   ??_fputc 0005  
                 ??_rsb_u 0152                   ??_putch 0001                   ??_rst_u 0152  
              __pbssBANK0 00B9                __pbssBANK1 0100                   ?___omul 0152  
    __size_of_random_cube 00E0       ___omul@multiplicand 015A             rotate_bot@buf 015D  
           rotate_bot@val 015A   __size_of_ADC_Initialize 001A                   ?_strcmp 0001  
                 ?_strlen 0001              ??_UART_Write 0001        __size_of_vfpfcnvrt 0164  
           rotate_top@buf 015D             rotate_top@val 015A              ?_ClearBuffer 0001  
     __end_of_MyusartRead 4214                   __Hparam 0000                   __Lparam 0000  
                 ___awdiv 3C32                   ___awmod 3CF8           __size_of___omul 00A0  
      __end_of_UART_Write 4266                 ?_rotate_l 015A                 ?_rotate_r 015A  
               ?_vfprintf 002A              __psmallconst 0600                   __pcinit 40C6  
                 __ramtop 0600                   __ptext0 0FF0                   __ptext1 34E8  
                 __ptext2 1A52                   __ptext3 35D8                   __ptext4 1C36  
                 __ptext5 36C8                   __ptext6 1E1A                   __ptext7 37B8  
                 __ptext8 1FFE                   __ptext9 38A8           __size_of_strcmp 0070  
         __size_of_strlen 0036                 _T2CONbits 000FCA                   _initial 180E  
            __size_of_isr 0FE8              __size_of_rsb 01E4              __size_of_rst 01E4  
        ___awmod@dividend 0174  __size_of_UART_Initialize 0022                   rb@tempa 0152  
                 rb@tempb 0153                   rb@tempc 0154                   _sprintf 4118  
                 main@val 0184            __pintcode_body 062A      end_of_initialization 410A  
                 rl@tempa 0152                   rl@tempb 0153                   rl@tempf 0154  
          ___omul@product 0162                   isr@temp 00B4                   fputc@fp 0003  
           __Lmediumconst 0000                   int_func 062A                   rr@tempa 0152  
                 rr@tempb 0153                   rr@tempc 0154                   rt@tempa 0152  
                 rt@tempb 0153                   rt@tempc 0154                 i2u1300_40 0EF0  
               i2u1220_40 066E                 i2u1300_41 0EEC                 i2u1220_41 066A  
               i2u1301_40 0F0A                 i2u1221_40 069E                 i2u1301_41 0F06  
               i2u1221_41 0698                 i2u1221_42 06A0                 i2u1302_40 0F44  
               i2u1230_40 0770                 i2u1222_40 06B2                 i2u1302_41 0F40  
               i2u1230_41 076C                 i2u1222_41 06AC                 i2u1222_42 06B4  
               i2u1303_40 0F5E                 i2u1231_40 0798                 i2u1223_40 06C4  
               i2u1303_41 0F5A                 i2u1231_41 0792                 i2u1223_41 06C0  
               i2u1231_42 079A                 i2u1160_40 40BC                 i2u1304_40 0F78  
               i2u1240_40 086A                 i2u1232_40 07AC                 i2u1224_40 06E0  
               i2u1160_41 40B8                 i2u1304_41 0F74                 i2u1240_41 0866  
               i2u1232_41 07A6                 i2u1224_41 06DA                 i2u1232_42 07AE  
               i2u1224_42 06E2                 i2u1305_40 0FBA                 i2u1241_40 0892  
               i2u1233_40 07BE                 i2u1225_40 06F4                 i2u1305_41 0FB6  
               i2u1241_41 088C                 i2u1233_41 07BA                 i2u1225_41 06EE  
               i2u1241_42 0894                 i2u1225_42 06F6                 i2u1170_40 3E0E  
               i2u1250_40 0964                 i2u1242_40 08A6                 i2u1234_40 07DA  
               i2u1226_40 0706                 i2u1170_41 3E0A                 i2u1250_41 0960  
               i2u1242_41 08A0                 i2u1234_41 07D4                 i2u1226_41 0702  
               i2u1242_42 08A8                 i2u1234_42 07DC                 i2u1171_40 3E24  
               i2u1251_40 098C                 i2u1243_40 08B8                 i2u1235_40 07EE  
               i2u1227_40 0722                 i2u1219_40 065A                 i2u1171_41 3E20  
               i2u1251_41 0986                 i2u1243_41 08B4                 i2u1235_41 07E8  
               i2u1227_41 071C                 i2u1219_41 0656                 i2u1251_42 098E  
               i2u1235_42 07F0                 i2u1227_42 0724                 i2u1172_40 3E48  
               i2u1260_40 0A5E                 i2u1252_40 09A0                 i2u1244_40 08D4  
               i2u1236_40 0800                 i2u1228_40 0736                 i2u1172_41 3E44  
               i2u1260_41 0A5A                 i2u1252_41 099A                 i2u1244_41 08CE  
               i2u1236_41 07FC                 i2u1228_41 0730                 i2u1252_42 09A2  
               i2u1244_42 08D6                 i2u1228_42 0738                 i2u1173_40 3FB2  
               i2u1261_40 0A86                 i2u1253_40 09B2                 i2u1245_40 08E8  
               i2u1237_40 081C                 i2u1229_40 0748                 i2u1261_41 0A80  
               i2u1253_41 09AE                 i2u1245_41 08E2                 i2u1237_41 0816  
               i2u1229_41 0744                 i2u1261_42 0A88                 i2u1245_42 08EA  
               i2u1237_42 081E                 i2u1173_47 3FA8                 i2u1174_40 3FE6  
               i2u1270_40 0B58                 i2u1262_40 0A9A                 i2u1254_40 09CE  
               i2u1246_40 08FA                 i2u1238_40 0830                 i2u1270_41 0B54  
               i2u1262_41 0A94                 i2u1254_41 09C8                 i2u1246_41 08F6  
               i2u1238_41 082A                 i2u1262_42 0A9C                 i2u1254_42 09D0  
               i2u1238_42 0832                 i2u1174_47 3FDC                 i2u1167_40 3DBC  
               i2u1159_40 4260                 i2u1175_40 3FF6                 i2u1271_40 0B80  
               i2u1263_40 0AAC                 i2u1255_40 09E2                 i2u1247_40 0916  
               i2u1239_40 0842                 i2u1167_41 3DB8                 i2u1159_41 425C  
               i2u1175_41 3FF2                 i2u1271_41 0B7A                 i2u1263_41 0AA8  
               i2u1255_41 09DC                 i2u1247_41 0910                 i2u1239_41 083E  
               i2u1271_42 0B82                 i2u1255_42 09E4                 i2u1247_42 0918  
               i2u1176_40 419E                 i2u1168_40 3DD6                 i2u1280_40 0C52  
               i2u1272_40 0B94                 i2u1264_40 0AC8                 i2u1256_40 09F4  
               i2u1248_40 092A                 i2u1176_41 419A                 i2u1168_41 3DD2  
               i2u1280_41 0C4E                 i2u1272_41 0B8E                 i2u1264_41 0AC2  
               i2u1256_41 09F0                 i2u1248_41 0924                 i2u1272_42 0B96  
               i2u1264_42 0ACA                 i2u1248_42 092C                 i2u1169_40 3DF0  
               i2u1177_40 402C                 i2u1281_40 0C64                 i2u1273_40 0BA6  
               i2u1265_40 0ADC                 i2u1257_40 0A10                 i2u1249_40 093C  
               i2u1169_41 3DEC                 i2u1177_41 4028                 i2u1281_41 0C60  
               i2u1273_41 0BA2                 i2u1265_41 0AD6                 i2u1257_41 0A0A  
               i2u1249_41 0938                 i2u1265_42 0ADE                 i2u1257_42 0A12  
               i2u1178_40 4044                 i2u1290_40 0D8C                 i2u1282_40 0C7C  
               i2u1274_40 0BC2                 i2u1266_40 0AEE                 i2u1258_40 0A24  
               i2u1178_41 4040                 i2u1290_41 0D88                 i2u1282_41 0C78  
               i2u1274_41 0BBC                 i2u1266_41 0AEA                 i2u1258_41 0A1E  
               i2u1274_42 0BC4                 i2u1258_42 0A26                 i2u1291_40 0DA6  
               i2u1283_40 0C8A                 i2u1275_40 0BD6                 i2u1267_40 0B0A  
               i2u1259_40 0A36                 i2u1291_41 0DA2                 i2u1283_41 0C86  
               i2u1275_41 0BD0                 i2u1267_41 0B04                 i2u1259_41 0A32  
               i2u1275_42 0BD8                 i2u1267_42 0B0C                 i2u1292_40 0DC0  
               i2u1284_40 0CB2                 i2u1276_40 0BE8                 i2u1268_40 0B1E  
               i2u1292_41 0DBC                 i2u1284_41 0CAE                 i2u1276_41 0BE4  
               i2u1268_41 0B18                 i2u1268_42 0B20                 i2u1293_40 0DFA  
               i2u1285_40 0CE8                 i2u1277_40 0C04                 i2u1269_40 0B30  
               i2u1293_41 0DF6                 i2u1285_41 0CE4                 i2u1277_41 0BFE  
               i2u1269_41 0B2C                 i2u1277_42 0C06                 i2u1294_40 0E14  
               i2u1278_40 0C18                 i2u1294_41 0E10                 i2u1286_41 0CF2  
               i2u1278_41 0C12                 i2u1278_42 0C1A                 i2u1295_40 0E2E  
               i2u1287_40 0D1E                 i2u1279_40 0C2A                 i2u1295_41 0E2A  
               i2u1287_41 0D1A                 i2u1279_41 0C26                 i2u1296_40 0E68  
               i2u1288_40 0D38                 i2u1296_41 0E64                 i2u1288_41 0D34  
               i2u1297_40 0E82                 i2u1289_40 0D52                 i2u1297_41 0E7E  
               i2u1289_41 0D4E                 i2u1298_40 0E9C                 i2u1298_41 0E98  
               i2u1299_40 0ED6                 i2u1299_41 0ED2         __end_of_vfpfcnvrt 33E8  
               _RCSTAbits 000FAB                   postdec1 000FE5                   postdec2 000FDD  
        ??_rotate_sidebot 015C                   postinc0 000FEE                   postinc1 000FE6  
                 postinc2 000FDE          ??_rotate_sidetop 015C                ??_rotate_l 015C  
              ??_rotate_r 015C                ??_vfprintf 0030                   strcmp@l 0001  
                 strcmp@r 0003                   strlen@a 0003                   strlen@s 0001  
               _PORTAbits 000F80            UART_Write@data 0001                 _TRISAbits 000F92  
               _TRISCbits 000F94               _MyusartRead 41E0                _rotate_bot 3998  
       __size_of_ADC_Read 0080                _rotate_top 34E8                 i2___awmod 3DAA  
               _TXSTAbits 000FAC            __end_of___omul 3EFA               vfpfcnvrt@ap 0024  
             vfpfcnvrt@cp 0028               vfpfcnvrt@fp 0020               _BAUDCONbits 000FB8  
           __pidataCOMRAM 4266            _ADC_Initialize 4236  __size_of_UART_Write_Text 007E  
          __end_of_strcmp 4068            __end_of_strlen 41E0       start_initialization 40C6  
             __end_of_isr 0FF0               __end_of_rsb 2B56               __end_of_rst 2972  
              ?i2___awmod 0001              ClearBuffer@i 0001         ??_UART_Initialize 0152  
             rotate_l@buf 015D               rotate_l@val 015A               rotate_r@buf 015D  
    __size_of_ClearBuffer 0044               rotate_r@val 015A         ___omul@multiplier 0152  
        __CFG_OSC$INTIO67 000000               vfprintf@fmt 002C                  ??___omul 0162  
  __end_of_ADC_Initialize 4250          __CFG_LPT1OSC$OFF 000000                  ??_strcmp 0005  
            random_cube@j 017E              random_cube@r 017C                  ??_strlen 0003  
             __pbssCOMRAM 004B             __pcstackBANK0 0080             __pcstackBANK1 0152  
             ?_rotate_bot 015A               ?_rotate_top 015A         __CFG_CCP2MX$PORTC 000000  
           ??_random_cube 017A                 __pintcode 0008                  ?___awdiv 0152  
                ?___awmod 0174          rotate_l@buf_1165 015F           ?_ADC_Initialize 0001  
       __size_of_rotate_l 00F0         __size_of_rotate_r 00F0         __size_of_vfprintf 005E  
             __smallconst 0600                  ?_initial 0001                  _ADC_Read 3EFA  
             ??i2___awmod 0005                  ?_sprintf 0032            __size_of_fputc 00CA  
          __size_of_rsb_u 01E4            __size_of_putch 0002            __size_of_rst_u 01E4  
       ??_UART_Write_Text 0004        rotate_top@buf_1287 015F               __size_of_rb 01E4  
             __size_of_rl 01E4               __size_of_rr 01E4               __size_of_rt 01E4  
                _LATAbits 000F89                  _LATBbits 000F8A                  _LATCbits 000F8B  
                _LATDbits 000F8C                  _IPR1bits 000F9F                  _PIE1bits 000F9D  
        rotate_r@buf_1043 015F                  _PIR1bits 000F9E                  i2u700_40 3B7A  
                i2u700_41 3B76                  i2u701_40 3B8C                  i2u701_41 3B88  
                i2u702_40 3BB4                  i2u710_40 31E2                  i2u702_41 3BB0  
                i2u710_41 31DE                  i2u703_40 3BEA                  i2u711_40 3232  
                i2u703_41 3BE6                  i2u711_41 322E                  i2u704_40 41D2  
                i2u712_40 3240                  i2u704_41 41CE                  i2u712_41 323C  
                i2u713_40 327A                  i2u713_41 3276                  i2u705_41 310C  
                i2u706_40 312E                  i2u714_40 32A8                  i2u706_41 312A  
                i2u714_41 32A4                  i2u707_40 3160                  i2u715_40 32EE  
                i2u707_41 315C                  i2u715_41 32EA                  i2u708_40 317E  
                i2u716_40 3368                  i2u708_41 317A                  i2u716_41 3364  
                i2u709_40 31A8                  i2u709_41 31A4                rsb_u@tempa 0154  
              rsb_u@tempc 0152                rsb_u@tempd 0153                  _RCONbits 000FD0  
        __CFG_WDTPS$32768 000000       __size_of_rotate_bot 00F0       __size_of_rotate_top 00F0  
               _vfpfcnvrt 3284                _ADCON0bits 000FC2                _ADCON2bits 000FC0  
     __end_of_random_cube 3B68    rotate_sidetop@buf_1531 015F              ?_MyusartRead 0001  
               copy_data0 40DA        i2___awmod@dividend 0001                  __Hrparam 0000  
               rb_u@tempa 0154                 rb_u@tempc 0152                 rb_u@tempd 0153  
              vfprintf@ap 002E                  __Lrparam 0000                vfprintf@fp 002A  
      __CFG_BOREN$SBORDIS 000000                rst_u@tempa 0154                rst_u@tempc 0152  
              rst_u@tempd 0153          __size_of___awdiv 00C6          __size_of___awmod 00B2  
              ?_vfpfcnvrt 0020         rotate_sidebot@buf 015D         rotate_sidebot@val 015A  
         _UART_Initialize 4214                sprintf@fmt 0034          __size_of_initial 0244  
       rotate_sidetop@buf 015D                  __ptext10 21E2                  __ptext11 3998  
                __ptext20 33E8                  __ptext12 23C6                  __ptext21 3E5A  
                __ptext13 3A88                  __ptext30 4118                  __ptext22 180E  
                __ptext14 25AA                  __ptext31 4068                  __ptext23 3CF8  
                __ptext15 278E                  __ptext40 3DAA                  __ptext32 3284  
                __ptext24 3C32                  __ptext16 2972                  __ptext41 4166  
                __ptext33 3102                  __ptext25 4214                  __ptext17 2B56  
                __ptext34 41AA                  __ptext26 3EFA                  __ptext18 2D3A  
                __ptext35 3B68                  __ptext27 4236                  __ptext19 2F1E  
                __ptext36 426E                  __ptext37 3F7A                  __ptext29 3FF8  
                __ptext38 4250                  __ptext39 41E0         rotate_sidetop@val 015A  
               rl_u@tempc 0152                 rl_u@tempd 0153                 rl_u@tempf 0154  
        __size_of_sprintf 004E       UART_Write_Text@text 0002             __size_of_main 081E  
           __size_of_rb_u 01E4             __size_of_rand 0100             __size_of_rl_u 01E4  
           __size_of_rr_u 01E4             __size_of_rt_u 01E4             __size_of_stoa 0182  
               rr_u@tempc 0152                 rr_u@tempd 0153                 rr_u@tempf 0154  
               stoa@F1131 0067                  _original 00D1               _random_cube 3A88  
               rt_u@tempa 0154                 rt_u@tempc 0152                 rt_u@tempd 0153  
                int$flags 006E                  isr@F2876 0100                  _rotate_l 38A8  
                _rotate_r 37B8                  _vfprintf 4068                  _mystring 0053  
                main@temp 0182                  main@turn 0194         i2___awmod@divisor 0003  
       i2___awmod@counter 0005                _INTCONbits 000FF2                  isr@check 00B2  
 __size_of_rotate_sidebot 00F0   __size_of_rotate_sidetop 00F0                  initial@i 0152  
            ??_rotate_bot 015C              ??_rotate_top 015C             ??_ClearBuffer 0001  
                intlevel2 0000                 sprintf@ap 003A                  rsb@tempa 0152  
                rsb@tempb 0153                  rsb@tempc 0154          ??_ADC_Initialize 0152  
              _OSCCONbits 000FD3                  rst@tempa 0152                  rst@tempb 0153  
                rst@tempc 0154   __end_of_UART_Initialize 4236        __end_of_rotate_bot 3A88  
             ??_vfpfcnvrt 0026                  stoa@nuls 000F        __end_of_rotate_top 35D8  
         _UART_Write_Text 3F7A                  sprintf@f 003C                  sprintf@s 0032  
              _UART_Write 4250      __size_of_MyusartRead 0034          UART_Write_Text@i 0006  
     __end_of_ClearBuffer 41AA  
